
.pioenvs/test/firmware.elf:     file format elf32-littlearm


Disassembly of section .text:

00004000 <_sfixed>:
    4000:	20010eb8 	.word	0x20010eb8
    4004:	000042bd 	.word	0x000042bd
    4008:	000042b9 	.word	0x000042b9
    400c:	000042b9 	.word	0x000042b9
    4010:	000042b9 	.word	0x000042b9
    4014:	000042b9 	.word	0x000042b9
    4018:	000042b9 	.word	0x000042b9
	...
    402c:	000042b9 	.word	0x000042b9
    4030:	000042b9 	.word	0x000042b9
    4034:	00000000 	.word	0x00000000
    4038:	000042b9 	.word	0x000042b9
    403c:	000042b9 	.word	0x000042b9
    4040:	000042b9 	.word	0x000042b9
    4044:	000042b9 	.word	0x000042b9
    4048:	000042b9 	.word	0x000042b9
    404c:	000042b9 	.word	0x000042b9
    4050:	000042b9 	.word	0x000042b9
    4054:	000042b9 	.word	0x000042b9
    4058:	000042b9 	.word	0x000042b9
    405c:	000042b9 	.word	0x000042b9
    4060:	000042b9 	.word	0x000042b9
    4064:	000042b9 	.word	0x000042b9
    4068:	000042b9 	.word	0x000042b9
    406c:	000042b9 	.word	0x000042b9
    4070:	000051a5 	.word	0x000051a5
    4074:	000051b1 	.word	0x000051b1
    4078:	000042b9 	.word	0x000042b9
    407c:	000042b9 	.word	0x000042b9
    4080:	000042b9 	.word	0x000042b9
    4084:	000042b9 	.word	0x000042b9
    4088:	000051bd 	.word	0x000051bd
    408c:	000051c9 	.word	0x000051c9
    4090:	000042b9 	.word	0x000042b9
    4094:	000042b9 	.word	0x000042b9
    4098:	000042b9 	.word	0x000042b9
    409c:	000051d5 	.word	0x000051d5
    40a0:	000042b9 	.word	0x000042b9
    40a4:	000042b9 	.word	0x000042b9
    40a8:	000051e1 	.word	0x000051e1
    40ac:	000042b9 	.word	0x000042b9
    40b0:	000042b9 	.word	0x000042b9
    40b4:	000042b9 	.word	0x000042b9
    40b8:	000042b9 	.word	0x000042b9
    40bc:	000042b9 	.word	0x000042b9
    40c0:	000042b9 	.word	0x000042b9
    40c4:	000042b9 	.word	0x000042b9
    40c8:	000042b9 	.word	0x000042b9
    40cc:	000042b9 	.word	0x000042b9
    40d0:	000042b9 	.word	0x000042b9
    40d4:	000042b9 	.word	0x000042b9
    40d8:	000042b9 	.word	0x000042b9
    40dc:	000042b9 	.word	0x000042b9
    40e0:	000042b9 	.word	0x000042b9
    40e4:	000042b9 	.word	0x000042b9
	...
    40f4:	00005345 	.word	0x00005345
    40f8:	000042b9 	.word	0x000042b9
    40fc:	000042b9 	.word	0x000042b9
    4100:	000042b9 	.word	0x000042b9
    4104:	000042b9 	.word	0x000042b9
    4108:	000042b9 	.word	0x000042b9
    410c:	000042b9 	.word	0x000042b9
    4110:	000042b9 	.word	0x000042b9
    4114:	000042b9 	.word	0x000042b9
    4118:	000042b9 	.word	0x000042b9
    411c:	000042b9 	.word	0x000042b9
    4120:	000042b9 	.word	0x000042b9
    4124:	000042b9 	.word	0x000042b9
    4128:	000042b9 	.word	0x000042b9
    412c:	000042b9 	.word	0x000042b9
    4130:	000042b9 	.word	0x000042b9
    4134:	000042b9 	.word	0x000042b9
    4138:	000042b9 	.word	0x000042b9
    413c:	000042b9 	.word	0x000042b9
    4140:	000042b9 	.word	0x000042b9
    4144:	000042b9 	.word	0x000042b9
    4148:	000042b9 	.word	0x000042b9
    414c:	000042b9 	.word	0x000042b9
    4150:	000042b9 	.word	0x000042b9
    4154:	000042b9 	.word	0x000042b9
	...
    4178:	000042b9 	.word	0x000042b9
    417c:	000042b9 	.word	0x000042b9
    4180:	00006fa9 	.word	0x00006fa9
    4184:	00006fb5 	.word	0x00006fb5
    4188:	00006fc1 	.word	0x00006fc1
    418c:	00006fcd 	.word	0x00006fcd
    4190:	00000000 	.word	0x00000000
    4194:	000042b9 	.word	0x000042b9
    4198:	000042b9 	.word	0x000042b9
    419c:	000042b9 	.word	0x000042b9
    41a0:	000042b9 	.word	0x000042b9
    41a4:	000042b9 	.word	0x000042b9
    41a8:	000042b9 	.word	0x000042b9
    41ac:	000042b9 	.word	0x000042b9
    41b0:	000042b9 	.word	0x000042b9
    41b4:	000042b9 	.word	0x000042b9
    41b8:	000042b9 	.word	0x000042b9
    41bc:	000042b9 	.word	0x000042b9
    41c0:	000042b9 	.word	0x000042b9
    41c4:	000042b9 	.word	0x000042b9
    41c8:	000042b9 	.word	0x000042b9
    41cc:	000042b9 	.word	0x000042b9
    41d0:	000042b9 	.word	0x000042b9
    41d4:	000042b9 	.word	0x000042b9
    41d8:	000042b9 	.word	0x000042b9
    41dc:	000042b9 	.word	0x000042b9
    41e0:	000042b9 	.word	0x000042b9
    41e4:	000042b9 	.word	0x000042b9
    41e8:	000042b9 	.word	0x000042b9
    41ec:	000042b9 	.word	0x000042b9
    41f0:	000042b9 	.word	0x000042b9
    41f4:	000042b9 	.word	0x000042b9
    41f8:	000042b9 	.word	0x000042b9
    41fc:	000042b9 	.word	0x000042b9
    4200:	000042b9 	.word	0x000042b9
	...
    420c:	000042b9 	.word	0x000042b9
    4210:	000042b9 	.word	0x000042b9
    4214:	000042b9 	.word	0x000042b9
    4218:	000042b9 	.word	0x000042b9
    421c:	000042b9 	.word	0x000042b9
    4220:	000042b9 	.word	0x000042b9
    4224:	000042b9 	.word	0x000042b9
    4228:	000042b9 	.word	0x000042b9
    422c:	000042b9 	.word	0x000042b9
    4230:	000042b9 	.word	0x000042b9
    4234:	000042b9 	.word	0x000042b9
    4238:	000042b9 	.word	0x000042b9
    423c:	000042b9 	.word	0x000042b9
    4240:	000042b9 	.word	0x000042b9
    4244:	000042b9 	.word	0x000042b9
    4248:	000042b9 	.word	0x000042b9
    424c:	000042b9 	.word	0x000042b9
    4250:	000042b9 	.word	0x000042b9
    4254:	000042b9 	.word	0x000042b9
    4258:	000042b9 	.word	0x000042b9
    425c:	000042b9 	.word	0x000042b9
    4260:	00000000 	.word	0x00000000

00004264 <__do_global_dtors_aux>:
    4264:	b510      	push	{r4, lr}
    4266:	4c05      	ldr	r4, [pc, #20]	; (427c <__do_global_dtors_aux+0x18>)
    4268:	7823      	ldrb	r3, [r4, #0]
    426a:	b933      	cbnz	r3, 427a <__do_global_dtors_aux+0x16>
    426c:	4b04      	ldr	r3, [pc, #16]	; (4280 <__do_global_dtors_aux+0x1c>)
    426e:	b113      	cbz	r3, 4276 <__do_global_dtors_aux+0x12>
    4270:	4804      	ldr	r0, [pc, #16]	; (4284 <__do_global_dtors_aux+0x20>)
    4272:	f3af 8000 	nop.w
    4276:	2301      	movs	r3, #1
    4278:	7023      	strb	r3, [r4, #0]
    427a:	bd10      	pop	{r4, pc}
    427c:	200009a0 	.word	0x200009a0
    4280:	00000000 	.word	0x00000000
    4284:	00011900 	.word	0x00011900

00004288 <frame_dummy>:
    4288:	b508      	push	{r3, lr}
    428a:	4b06      	ldr	r3, [pc, #24]	; (42a4 <frame_dummy+0x1c>)
    428c:	b11b      	cbz	r3, 4296 <frame_dummy+0xe>
    428e:	4806      	ldr	r0, [pc, #24]	; (42a8 <frame_dummy+0x20>)
    4290:	4906      	ldr	r1, [pc, #24]	; (42ac <frame_dummy+0x24>)
    4292:	f3af 8000 	nop.w
    4296:	4806      	ldr	r0, [pc, #24]	; (42b0 <frame_dummy+0x28>)
    4298:	6803      	ldr	r3, [r0, #0]
    429a:	b113      	cbz	r3, 42a2 <frame_dummy+0x1a>
    429c:	4b05      	ldr	r3, [pc, #20]	; (42b4 <frame_dummy+0x2c>)
    429e:	b103      	cbz	r3, 42a2 <frame_dummy+0x1a>
    42a0:	4798      	blx	r3
    42a2:	bd08      	pop	{r3, pc}
    42a4:	00000000 	.word	0x00000000
    42a8:	00011900 	.word	0x00011900
    42ac:	200009a4 	.word	0x200009a4
    42b0:	00011900 	.word	0x00011900
    42b4:	00000000 	.word	0x00000000

000042b8 <Dummy_Handler>:
    42b8:	e7fe      	b.n	42b8 <Dummy_Handler>
    42ba:	bf00      	nop

000042bc <Reset_Handler>:
    42bc:	b510      	push	{r4, lr}
    42be:	4b1e      	ldr	r3, [pc, #120]	; (4338 <Reset_Handler+0x7c>)
    42c0:	4a1e      	ldr	r2, [pc, #120]	; (433c <Reset_Handler+0x80>)
    42c2:	429a      	cmp	r2, r3
    42c4:	d003      	beq.n	42ce <Reset_Handler+0x12>
    42c6:	4b1e      	ldr	r3, [pc, #120]	; (4340 <Reset_Handler+0x84>)
    42c8:	4a1b      	ldr	r2, [pc, #108]	; (4338 <Reset_Handler+0x7c>)
    42ca:	429a      	cmp	r2, r3
    42cc:	d304      	bcc.n	42d8 <Reset_Handler+0x1c>
    42ce:	4b1d      	ldr	r3, [pc, #116]	; (4344 <Reset_Handler+0x88>)
    42d0:	4a1d      	ldr	r2, [pc, #116]	; (4348 <Reset_Handler+0x8c>)
    42d2:	429a      	cmp	r2, r3
    42d4:	d30f      	bcc.n	42f6 <Reset_Handler+0x3a>
    42d6:	e01a      	b.n	430e <Reset_Handler+0x52>
    42d8:	4b1c      	ldr	r3, [pc, #112]	; (434c <Reset_Handler+0x90>)
    42da:	4c1d      	ldr	r4, [pc, #116]	; (4350 <Reset_Handler+0x94>)
    42dc:	1ae4      	subs	r4, r4, r3
    42de:	f024 0403 	bic.w	r4, r4, #3
    42e2:	3404      	adds	r4, #4
    42e4:	2300      	movs	r3, #0
    42e6:	4814      	ldr	r0, [pc, #80]	; (4338 <Reset_Handler+0x7c>)
    42e8:	4914      	ldr	r1, [pc, #80]	; (433c <Reset_Handler+0x80>)
    42ea:	585a      	ldr	r2, [r3, r1]
    42ec:	501a      	str	r2, [r3, r0]
    42ee:	3304      	adds	r3, #4
    42f0:	42a3      	cmp	r3, r4
    42f2:	d1fa      	bne.n	42ea <Reset_Handler+0x2e>
    42f4:	e7eb      	b.n	42ce <Reset_Handler+0x12>
    42f6:	4b17      	ldr	r3, [pc, #92]	; (4354 <Reset_Handler+0x98>)
    42f8:	4917      	ldr	r1, [pc, #92]	; (4358 <Reset_Handler+0x9c>)
    42fa:	1ac9      	subs	r1, r1, r3
    42fc:	f021 0103 	bic.w	r1, r1, #3
    4300:	1d1a      	adds	r2, r3, #4
    4302:	4411      	add	r1, r2
    4304:	2200      	movs	r2, #0
    4306:	f843 2f04 	str.w	r2, [r3, #4]!
    430a:	428b      	cmp	r3, r1
    430c:	d1fb      	bne.n	4306 <Reset_Handler+0x4a>
    430e:	4b13      	ldr	r3, [pc, #76]	; (435c <Reset_Handler+0xa0>)
    4310:	4a13      	ldr	r2, [pc, #76]	; (4360 <Reset_Handler+0xa4>)
    4312:	f022 027f 	bic.w	r2, r2, #127	; 0x7f
    4316:	609a      	str	r2, [r3, #8]
    4318:	f8d3 2088 	ldr.w	r2, [r3, #136]	; 0x88
    431c:	f442 0270 	orr.w	r2, r2, #15728640	; 0xf00000
    4320:	f8c3 2088 	str.w	r2, [r3, #136]	; 0x88
    4324:	f3bf 8f4f 	dsb	sy
    4328:	f3bf 8f6f 	isb	sy
    432c:	4b0d      	ldr	r3, [pc, #52]	; (4364 <Reset_Handler+0xa8>)
    432e:	4798      	blx	r3
    4330:	4b0d      	ldr	r3, [pc, #52]	; (4368 <Reset_Handler+0xac>)
    4332:	4798      	blx	r3
    4334:	e7fe      	b.n	4334 <Reset_Handler+0x78>
    4336:	bf00      	nop
    4338:	20000000 	.word	0x20000000
    433c:	00011900 	.word	0x00011900
    4340:	2000099c 	.word	0x2000099c
    4344:	20000eb4 	.word	0x20000eb4
    4348:	200009a0 	.word	0x200009a0
    434c:	20000004 	.word	0x20000004
    4350:	2000099f 	.word	0x2000099f
    4354:	2000099c 	.word	0x2000099c
    4358:	20000eaf 	.word	0x20000eaf
    435c:	e000ed00 	.word	0xe000ed00
    4360:	00004000 	.word	0x00004000
    4364:	0000af35 	.word	0x0000af35
    4368:	00009511 	.word	0x00009511

0000436c <adc_sync_init>:
    436c:	b538      	push	{r3, r4, r5, lr}
    436e:	460c      	mov	r4, r1
    4370:	4605      	mov	r5, r0
    4372:	b118      	cbz	r0, 437c <adc_sync_init+0x10>
    4374:	1c08      	adds	r0, r1, #0
    4376:	bf18      	it	ne
    4378:	2001      	movne	r0, #1
    437a:	e000      	b.n	437e <adc_sync_init+0x12>
    437c:	2000      	movs	r0, #0
    437e:	4904      	ldr	r1, [pc, #16]	; (4390 <adc_sync_init+0x24>)
    4380:	2239      	movs	r2, #57	; 0x39
    4382:	4b04      	ldr	r3, [pc, #16]	; (4394 <adc_sync_init+0x28>)
    4384:	4798      	blx	r3
    4386:	4628      	mov	r0, r5
    4388:	4621      	mov	r1, r4
    438a:	4b03      	ldr	r3, [pc, #12]	; (4398 <adc_sync_init+0x2c>)
    438c:	4798      	blx	r3
    438e:	bd38      	pop	{r3, r4, r5, pc}
    4390:	00011004 	.word	0x00011004
    4394:	00004cf9 	.word	0x00004cf9
    4398:	00004ef5 	.word	0x00004ef5

0000439c <atomic_enter_critical>:
    439c:	f3ef 8310 	mrs	r3, PRIMASK
    43a0:	6003      	str	r3, [r0, #0]
    43a2:	b672      	cpsid	i
    43a4:	f3bf 8f5f 	dmb	sy
    43a8:	4770      	bx	lr
    43aa:	bf00      	nop

000043ac <atomic_leave_critical>:
    43ac:	f3bf 8f5f 	dmb	sy
    43b0:	6803      	ldr	r3, [r0, #0]
    43b2:	f383 8810 	msr	PRIMASK, r3
    43b6:	4770      	bx	lr

000043b8 <delay_ms>:
    43b8:	b510      	push	{r4, lr}
    43ba:	4b04      	ldr	r3, [pc, #16]	; (43cc <delay_ms+0x14>)
    43bc:	681c      	ldr	r4, [r3, #0]
    43be:	4b04      	ldr	r3, [pc, #16]	; (43d0 <delay_ms+0x18>)
    43c0:	4798      	blx	r3
    43c2:	4601      	mov	r1, r0
    43c4:	4620      	mov	r0, r4
    43c6:	4b03      	ldr	r3, [pc, #12]	; (43d4 <delay_ms+0x1c>)
    43c8:	4798      	blx	r3
    43ca:	bd10      	pop	{r4, pc}
    43cc:	200009bc 	.word	0x200009bc
    43d0:	00004f2d 	.word	0x00004f2d
    43d4:	00004f49 	.word	0x00004f49

000043d8 <process_ext_irq>:
    43d8:	b570      	push	{r4, r5, r6, lr}
    43da:	4b13      	ldr	r3, [pc, #76]	; (4428 <process_ext_irq+0x50>)
    43dc:	69db      	ldr	r3, [r3, #28]
    43de:	4283      	cmp	r3, r0
    43e0:	d113      	bne.n	440a <process_ext_irq+0x32>
    43e2:	e00b      	b.n	43fc <process_ext_irq+0x24>
    43e4:	1863      	adds	r3, r4, r1
    43e6:	105b      	asrs	r3, r3, #1
    43e8:	b2da      	uxtb	r2, r3
    43ea:	2a05      	cmp	r2, #5
    43ec:	d81a      	bhi.n	4424 <process_ext_irq+0x4c>
    43ee:	4615      	mov	r5, r2
    43f0:	eb06 03c2 	add.w	r3, r6, r2, lsl #3
    43f4:	685b      	ldr	r3, [r3, #4]
    43f6:	4283      	cmp	r3, r0
    43f8:	d10b      	bne.n	4412 <process_ext_irq+0x3a>
    43fa:	e000      	b.n	43fe <process_ext_irq+0x26>
    43fc:	2503      	movs	r5, #3
    43fe:	4b0a      	ldr	r3, [pc, #40]	; (4428 <process_ext_irq+0x50>)
    4400:	f853 3035 	ldr.w	r3, [r3, r5, lsl #3]
    4404:	b173      	cbz	r3, 4424 <process_ext_irq+0x4c>
    4406:	4798      	blx	r3
    4408:	bd70      	pop	{r4, r5, r6, pc}
    440a:	2203      	movs	r2, #3
    440c:	2406      	movs	r4, #6
    440e:	2100      	movs	r1, #0
    4410:	4e05      	ldr	r6, [pc, #20]	; (4428 <process_ext_irq+0x50>)
    4412:	4298      	cmp	r0, r3
    4414:	bf87      	ittee	hi
    4416:	3201      	addhi	r2, #1
    4418:	b2d1      	uxtbhi	r1, r2
    441a:	f102 32ff 	addls.w	r2, r2, #4294967295	; 0xffffffff
    441e:	b2d4      	uxtbls	r4, r2
    4420:	428c      	cmp	r4, r1
    4422:	d2df      	bcs.n	43e4 <process_ext_irq+0xc>
    4424:	bd70      	pop	{r4, r5, r6, pc}
    4426:	bf00      	nop
    4428:	200009c0 	.word	0x200009c0

0000442c <ext_irq_init>:
    442c:	b510      	push	{r4, lr}
    442e:	2300      	movs	r3, #0
    4430:	4a06      	ldr	r2, [pc, #24]	; (444c <ext_irq_init+0x20>)
    4432:	f04f 34ff 	mov.w	r4, #4294967295	; 0xffffffff
    4436:	4618      	mov	r0, r3
    4438:	18d1      	adds	r1, r2, r3
    443a:	604c      	str	r4, [r1, #4]
    443c:	5098      	str	r0, [r3, r2]
    443e:	3308      	adds	r3, #8
    4440:	2b30      	cmp	r3, #48	; 0x30
    4442:	d1f9      	bne.n	4438 <ext_irq_init+0xc>
    4444:	4802      	ldr	r0, [pc, #8]	; (4450 <ext_irq_init+0x24>)
    4446:	4b03      	ldr	r3, [pc, #12]	; (4454 <ext_irq_init+0x28>)
    4448:	4798      	blx	r3
    444a:	bd10      	pop	{r4, pc}
    444c:	200009c0 	.word	0x200009c0
    4450:	000043d9 	.word	0x000043d9
    4454:	0000507d 	.word	0x0000507d

00004458 <i2c_m_sync_write>:
    4458:	b510      	push	{r4, lr}
    445a:	b084      	sub	sp, #16
    445c:	8903      	ldrh	r3, [r0, #8]
    445e:	f8ad 3004 	strh.w	r3, [sp, #4]
    4462:	4614      	mov	r4, r2
    4464:	9202      	str	r2, [sp, #8]
    4466:	f44f 4300 	mov.w	r3, #32768	; 0x8000
    446a:	f8ad 3006 	strh.w	r3, [sp, #6]
    446e:	9103      	str	r1, [sp, #12]
    4470:	3814      	subs	r0, #20
    4472:	a901      	add	r1, sp, #4
    4474:	4b03      	ldr	r3, [pc, #12]	; (4484 <i2c_m_sync_write+0x2c>)
    4476:	4798      	blx	r3
    4478:	2800      	cmp	r0, #0
    447a:	bf08      	it	eq
    447c:	4620      	moveq	r0, r4
    447e:	b004      	add	sp, #16
    4480:	bd10      	pop	{r4, pc}
    4482:	bf00      	nop
    4484:	000056e9 	.word	0x000056e9

00004488 <i2c_m_sync_read>:
    4488:	b510      	push	{r4, lr}
    448a:	b084      	sub	sp, #16
    448c:	8903      	ldrh	r3, [r0, #8]
    448e:	f8ad 3004 	strh.w	r3, [sp, #4]
    4492:	4614      	mov	r4, r2
    4494:	9202      	str	r2, [sp, #8]
    4496:	f248 0301 	movw	r3, #32769	; 0x8001
    449a:	f8ad 3006 	strh.w	r3, [sp, #6]
    449e:	9103      	str	r1, [sp, #12]
    44a0:	3814      	subs	r0, #20
    44a2:	a901      	add	r1, sp, #4
    44a4:	4b03      	ldr	r3, [pc, #12]	; (44b4 <i2c_m_sync_read+0x2c>)
    44a6:	4798      	blx	r3
    44a8:	2800      	cmp	r0, #0
    44aa:	bf08      	it	eq
    44ac:	4620      	moveq	r0, r4
    44ae:	b004      	add	sp, #16
    44b0:	bd10      	pop	{r4, pc}
    44b2:	bf00      	nop
    44b4:	000056e9 	.word	0x000056e9

000044b8 <i2c_m_sync_init>:
    44b8:	b538      	push	{r3, r4, r5, lr}
    44ba:	460d      	mov	r5, r1
    44bc:	4604      	mov	r4, r0
    44be:	3000      	adds	r0, #0
    44c0:	bf18      	it	ne
    44c2:	2001      	movne	r0, #1
    44c4:	4907      	ldr	r1, [pc, #28]	; (44e4 <i2c_m_sync_init+0x2c>)
    44c6:	225e      	movs	r2, #94	; 0x5e
    44c8:	4b07      	ldr	r3, [pc, #28]	; (44e8 <i2c_m_sync_init+0x30>)
    44ca:	4798      	blx	r3
    44cc:	4620      	mov	r0, r4
    44ce:	4629      	mov	r1, r5
    44d0:	4b06      	ldr	r3, [pc, #24]	; (44ec <i2c_m_sync_init+0x34>)
    44d2:	4798      	blx	r3
    44d4:	4603      	mov	r3, r0
    44d6:	b918      	cbnz	r0, 44e0 <i2c_m_sync_init+0x28>
    44d8:	4a05      	ldr	r2, [pc, #20]	; (44f0 <i2c_m_sync_init+0x38>)
    44da:	61a2      	str	r2, [r4, #24]
    44dc:	4a05      	ldr	r2, [pc, #20]	; (44f4 <i2c_m_sync_init+0x3c>)
    44de:	6162      	str	r2, [r4, #20]
    44e0:	4618      	mov	r0, r3
    44e2:	bd38      	pop	{r3, r4, r5, pc}
    44e4:	00011028 	.word	0x00011028
    44e8:	00004cf9 	.word	0x00004cf9
    44ec:	000056b9 	.word	0x000056b9
    44f0:	00004489 	.word	0x00004489
    44f4:	00004459 	.word	0x00004459

000044f8 <mci_sync_init>:
    44f8:	b538      	push	{r3, r4, r5, lr}
    44fa:	460c      	mov	r4, r1
    44fc:	4605      	mov	r5, r0
    44fe:	b118      	cbz	r0, 4508 <mci_sync_init+0x10>
    4500:	1c08      	adds	r0, r1, #0
    4502:	bf18      	it	ne
    4504:	2001      	movne	r0, #1
    4506:	e000      	b.n	450a <mci_sync_init+0x12>
    4508:	2000      	movs	r0, #0
    450a:	4904      	ldr	r1, [pc, #16]	; (451c <mci_sync_init+0x24>)
    450c:	2231      	movs	r2, #49	; 0x31
    450e:	4b04      	ldr	r3, [pc, #16]	; (4520 <mci_sync_init+0x28>)
    4510:	4798      	blx	r3
    4512:	4628      	mov	r0, r5
    4514:	4621      	mov	r1, r4
    4516:	4b03      	ldr	r3, [pc, #12]	; (4524 <mci_sync_init+0x2c>)
    4518:	4798      	blx	r3
    451a:	bd38      	pop	{r3, r4, r5, pc}
    451c:	00011050 	.word	0x00011050
    4520:	00004cf9 	.word	0x00004cf9
    4524:	00005389 	.word	0x00005389

00004528 <spi_m_sync_init>:
    4528:	b538      	push	{r3, r4, r5, lr}
    452a:	460d      	mov	r5, r1
    452c:	4604      	mov	r4, r0
    452e:	b118      	cbz	r0, 4538 <spi_m_sync_init+0x10>
    4530:	1c08      	adds	r0, r1, #0
    4532:	bf18      	it	ne
    4534:	2001      	movne	r0, #1
    4536:	e000      	b.n	453a <spi_m_sync_init+0x12>
    4538:	2000      	movs	r0, #0
    453a:	490a      	ldr	r1, [pc, #40]	; (4564 <spi_m_sync_init+0x3c>)
    453c:	2238      	movs	r2, #56	; 0x38
    453e:	4b0a      	ldr	r3, [pc, #40]	; (4568 <spi_m_sync_init+0x40>)
    4540:	4798      	blx	r3
    4542:	6025      	str	r5, [r4, #0]
    4544:	4620      	mov	r0, r4
    4546:	4629      	mov	r1, r5
    4548:	4b08      	ldr	r3, [pc, #32]	; (456c <spi_m_sync_init+0x44>)
    454a:	4798      	blx	r3
    454c:	2800      	cmp	r0, #0
    454e:	db07      	blt.n	4560 <spi_m_sync_init+0x38>
    4550:	f44f 4300 	mov.w	r3, #32768	; 0x8000
    4554:	8223      	strh	r3, [r4, #16]
    4556:	4b06      	ldr	r3, [pc, #24]	; (4570 <spi_m_sync_init+0x48>)
    4558:	60e3      	str	r3, [r4, #12]
    455a:	4b06      	ldr	r3, [pc, #24]	; (4574 <spi_m_sync_init+0x4c>)
    455c:	60a3      	str	r3, [r4, #8]
    455e:	2000      	movs	r0, #0
    4560:	bd38      	pop	{r3, r4, r5, pc}
    4562:	bf00      	nop
    4564:	00011074 	.word	0x00011074
    4568:	00004cf9 	.word	0x00004cf9
    456c:	00005c3d 	.word	0x00005c3d
    4570:	00004671 	.word	0x00004671
    4574:	00004635 	.word	0x00004635

00004578 <spi_m_sync_enable>:
    4578:	b510      	push	{r4, lr}
    457a:	4604      	mov	r4, r0
    457c:	3000      	adds	r0, #0
    457e:	bf18      	it	ne
    4580:	2001      	movne	r0, #1
    4582:	4904      	ldr	r1, [pc, #16]	; (4594 <spi_m_sync_enable+0x1c>)
    4584:	2251      	movs	r2, #81	; 0x51
    4586:	4b04      	ldr	r3, [pc, #16]	; (4598 <spi_m_sync_enable+0x20>)
    4588:	4798      	blx	r3
    458a:	4620      	mov	r0, r4
    458c:	4b03      	ldr	r3, [pc, #12]	; (459c <spi_m_sync_enable+0x24>)
    458e:	4798      	blx	r3
    4590:	bd10      	pop	{r4, pc}
    4592:	bf00      	nop
    4594:	00011074 	.word	0x00011074
    4598:	00004cf9 	.word	0x00004cf9
    459c:	00005da1 	.word	0x00005da1

000045a0 <spi_m_sync_disable>:
    45a0:	b510      	push	{r4, lr}
    45a2:	4604      	mov	r4, r0
    45a4:	3000      	adds	r0, #0
    45a6:	bf18      	it	ne
    45a8:	2001      	movne	r0, #1
    45aa:	4904      	ldr	r1, [pc, #16]	; (45bc <spi_m_sync_disable+0x1c>)
    45ac:	2258      	movs	r2, #88	; 0x58
    45ae:	4b04      	ldr	r3, [pc, #16]	; (45c0 <spi_m_sync_disable+0x20>)
    45b0:	4798      	blx	r3
    45b2:	4620      	mov	r0, r4
    45b4:	4b03      	ldr	r3, [pc, #12]	; (45c4 <spi_m_sync_disable+0x24>)
    45b6:	4798      	blx	r3
    45b8:	bd10      	pop	{r4, pc}
    45ba:	bf00      	nop
    45bc:	00011074 	.word	0x00011074
    45c0:	00004cf9 	.word	0x00004cf9
    45c4:	00005dd1 	.word	0x00005dd1

000045c8 <spi_m_sync_set_mode>:
    45c8:	b538      	push	{r3, r4, r5, lr}
    45ca:	460c      	mov	r4, r1
    45cc:	4605      	mov	r5, r0
    45ce:	3000      	adds	r0, #0
    45d0:	bf18      	it	ne
    45d2:	2001      	movne	r0, #1
    45d4:	4904      	ldr	r1, [pc, #16]	; (45e8 <spi_m_sync_set_mode+0x20>)
    45d6:	2266      	movs	r2, #102	; 0x66
    45d8:	4b04      	ldr	r3, [pc, #16]	; (45ec <spi_m_sync_set_mode+0x24>)
    45da:	4798      	blx	r3
    45dc:	4628      	mov	r0, r5
    45de:	4621      	mov	r1, r4
    45e0:	4b03      	ldr	r3, [pc, #12]	; (45f0 <spi_m_sync_set_mode+0x28>)
    45e2:	4798      	blx	r3
    45e4:	bd38      	pop	{r3, r4, r5, pc}
    45e6:	bf00      	nop
    45e8:	00011074 	.word	0x00011074
    45ec:	00004cf9 	.word	0x00004cf9
    45f0:	00005e01 	.word	0x00005e01

000045f4 <spi_m_sync_transfer>:
    45f4:	b530      	push	{r4, r5, lr}
    45f6:	b085      	sub	sp, #20
    45f8:	460c      	mov	r4, r1
    45fa:	4605      	mov	r5, r0
    45fc:	b118      	cbz	r0, 4606 <spi_m_sync_transfer+0x12>
    45fe:	1c08      	adds	r0, r1, #0
    4600:	bf18      	it	ne
    4602:	2001      	movne	r0, #1
    4604:	e000      	b.n	4608 <spi_m_sync_transfer+0x14>
    4606:	2000      	movs	r0, #0
    4608:	4907      	ldr	r1, [pc, #28]	; (4628 <spi_m_sync_transfer+0x34>)
    460a:	22b3      	movs	r2, #179	; 0xb3
    460c:	4b07      	ldr	r3, [pc, #28]	; (462c <spi_m_sync_transfer+0x38>)
    460e:	4798      	blx	r3
    4610:	6823      	ldr	r3, [r4, #0]
    4612:	9301      	str	r3, [sp, #4]
    4614:	6863      	ldr	r3, [r4, #4]
    4616:	9302      	str	r3, [sp, #8]
    4618:	68a3      	ldr	r3, [r4, #8]
    461a:	9303      	str	r3, [sp, #12]
    461c:	4628      	mov	r0, r5
    461e:	a901      	add	r1, sp, #4
    4620:	4b03      	ldr	r3, [pc, #12]	; (4630 <spi_m_sync_transfer+0x3c>)
    4622:	4798      	blx	r3
    4624:	b005      	add	sp, #20
    4626:	bd30      	pop	{r4, r5, pc}
    4628:	00011074 	.word	0x00011074
    462c:	00004cf9 	.word	0x00004cf9
    4630:	00005e35 	.word	0x00005e35

00004634 <_spi_m_sync_io_write>:
    4634:	b570      	push	{r4, r5, r6, lr}
    4636:	b084      	sub	sp, #16
    4638:	460e      	mov	r6, r1
    463a:	4615      	mov	r5, r2
    463c:	4604      	mov	r4, r0
    463e:	3000      	adds	r0, #0
    4640:	bf18      	it	ne
    4642:	2001      	movne	r0, #1
    4644:	4907      	ldr	r1, [pc, #28]	; (4664 <_spi_m_sync_io_write+0x30>)
    4646:	22a3      	movs	r2, #163	; 0xa3
    4648:	4b07      	ldr	r3, [pc, #28]	; (4668 <_spi_m_sync_io_write+0x34>)
    464a:	4798      	blx	r3
    464c:	2300      	movs	r3, #0
    464e:	9302      	str	r3, [sp, #8]
    4650:	9601      	str	r6, [sp, #4]
    4652:	9503      	str	r5, [sp, #12]
    4654:	f1a4 0008 	sub.w	r0, r4, #8
    4658:	a901      	add	r1, sp, #4
    465a:	4b04      	ldr	r3, [pc, #16]	; (466c <_spi_m_sync_io_write+0x38>)
    465c:	4798      	blx	r3
    465e:	b004      	add	sp, #16
    4660:	bd70      	pop	{r4, r5, r6, pc}
    4662:	bf00      	nop
    4664:	00011074 	.word	0x00011074
    4668:	00004cf9 	.word	0x00004cf9
    466c:	000045f5 	.word	0x000045f5

00004670 <_spi_m_sync_io_read>:
    4670:	b570      	push	{r4, r5, r6, lr}
    4672:	b084      	sub	sp, #16
    4674:	460e      	mov	r6, r1
    4676:	4615      	mov	r5, r2
    4678:	4604      	mov	r4, r0
    467a:	3000      	adds	r0, #0
    467c:	bf18      	it	ne
    467e:	2001      	movne	r0, #1
    4680:	4907      	ldr	r1, [pc, #28]	; (46a0 <_spi_m_sync_io_read+0x30>)
    4682:	2287      	movs	r2, #135	; 0x87
    4684:	4b07      	ldr	r3, [pc, #28]	; (46a4 <_spi_m_sync_io_read+0x34>)
    4686:	4798      	blx	r3
    4688:	9602      	str	r6, [sp, #8]
    468a:	2300      	movs	r3, #0
    468c:	9301      	str	r3, [sp, #4]
    468e:	9503      	str	r5, [sp, #12]
    4690:	f1a4 0008 	sub.w	r0, r4, #8
    4694:	a901      	add	r1, sp, #4
    4696:	4b04      	ldr	r3, [pc, #16]	; (46a8 <_spi_m_sync_io_read+0x38>)
    4698:	4798      	blx	r3
    469a:	b004      	add	sp, #16
    469c:	bd70      	pop	{r4, r5, r6, pc}
    469e:	bf00      	nop
    46a0:	00011074 	.word	0x00011074
    46a4:	00004cf9 	.word	0x00004cf9
    46a8:	000045f5 	.word	0x000045f5

000046ac <usart_sync_write>:
    46ac:	e92d 43f8 	stmdb	sp!, {r3, r4, r5, r6, r7, r8, r9, lr}
    46b0:	460f      	mov	r7, r1
    46b2:	4690      	mov	r8, r2
    46b4:	4605      	mov	r5, r0
    46b6:	b120      	cbz	r0, 46c2 <usart_sync_write+0x16>
    46b8:	b129      	cbz	r1, 46c6 <usart_sync_write+0x1a>
    46ba:	1c10      	adds	r0, r2, #0
    46bc:	bf18      	it	ne
    46be:	2001      	movne	r0, #1
    46c0:	e002      	b.n	46c8 <usart_sync_write+0x1c>
    46c2:	2000      	movs	r0, #0
    46c4:	e000      	b.n	46c8 <usart_sync_write+0x1c>
    46c6:	2000      	movs	r0, #0
    46c8:	4910      	ldr	r1, [pc, #64]	; (470c <usart_sync_write+0x60>)
    46ca:	22f1      	movs	r2, #241	; 0xf1
    46cc:	4b10      	ldr	r3, [pc, #64]	; (4710 <usart_sync_write+0x64>)
    46ce:	4798      	blx	r3
    46d0:	3508      	adds	r5, #8
    46d2:	4e10      	ldr	r6, [pc, #64]	; (4714 <usart_sync_write+0x68>)
    46d4:	462c      	mov	r4, r5
    46d6:	4628      	mov	r0, r5
    46d8:	47b0      	blx	r6
    46da:	2800      	cmp	r0, #0
    46dc:	d0fa      	beq.n	46d4 <usart_sync_write+0x28>
    46de:	2600      	movs	r6, #0
    46e0:	f8df 9038 	ldr.w	r9, [pc, #56]	; 471c <usart_sync_write+0x70>
    46e4:	4d0b      	ldr	r5, [pc, #44]	; (4714 <usart_sync_write+0x68>)
    46e6:	4620      	mov	r0, r4
    46e8:	5db9      	ldrb	r1, [r7, r6]
    46ea:	47c8      	blx	r9
    46ec:	4620      	mov	r0, r4
    46ee:	47a8      	blx	r5
    46f0:	2800      	cmp	r0, #0
    46f2:	d0fb      	beq.n	46ec <usart_sync_write+0x40>
    46f4:	3601      	adds	r6, #1
    46f6:	4546      	cmp	r6, r8
    46f8:	d3f5      	bcc.n	46e6 <usart_sync_write+0x3a>
    46fa:	4d07      	ldr	r5, [pc, #28]	; (4718 <usart_sync_write+0x6c>)
    46fc:	4620      	mov	r0, r4
    46fe:	47a8      	blx	r5
    4700:	2800      	cmp	r0, #0
    4702:	d0fb      	beq.n	46fc <usart_sync_write+0x50>
    4704:	4630      	mov	r0, r6
    4706:	e8bd 83f8 	ldmia.w	sp!, {r3, r4, r5, r6, r7, r8, r9, pc}
    470a:	bf00      	nop
    470c:	0001109c 	.word	0x0001109c
    4710:	00004cf9 	.word	0x00004cf9
    4714:	00005695 	.word	0x00005695
    4718:	000056a1 	.word	0x000056a1
    471c:	00005685 	.word	0x00005685

00004720 <usart_sync_read>:
    4720:	e92d 4ff8 	stmdb	sp!, {r3, r4, r5, r6, r7, r8, r9, sl, fp, lr}
    4724:	4688      	mov	r8, r1
    4726:	4691      	mov	r9, r2
    4728:	4683      	mov	fp, r0
    472a:	b120      	cbz	r0, 4736 <usart_sync_read+0x16>
    472c:	b129      	cbz	r1, 473a <usart_sync_read+0x1a>
    472e:	1c10      	adds	r0, r2, #0
    4730:	bf18      	it	ne
    4732:	2001      	movne	r0, #1
    4734:	e002      	b.n	473c <usart_sync_read+0x1c>
    4736:	2000      	movs	r0, #0
    4738:	e000      	b.n	473c <usart_sync_read+0x1c>
    473a:	2000      	movs	r0, #0
    473c:	490c      	ldr	r1, [pc, #48]	; (4770 <usart_sync_read+0x50>)
    473e:	f44f 7286 	mov.w	r2, #268	; 0x10c
    4742:	4b0c      	ldr	r3, [pc, #48]	; (4774 <usart_sync_read+0x54>)
    4744:	4798      	blx	r3
    4746:	2700      	movs	r7, #0
    4748:	4e0b      	ldr	r6, [pc, #44]	; (4778 <usart_sync_read+0x58>)
    474a:	f8df a030 	ldr.w	sl, [pc, #48]	; 477c <usart_sync_read+0x5c>
    474e:	f10b 0408 	add.w	r4, fp, #8
    4752:	4620      	mov	r0, r4
    4754:	47b0      	blx	r6
    4756:	2800      	cmp	r0, #0
    4758:	d0fb      	beq.n	4752 <usart_sync_read+0x32>
    475a:	4620      	mov	r0, r4
    475c:	47d0      	blx	sl
    475e:	f808 0007 	strb.w	r0, [r8, r7]
    4762:	3701      	adds	r7, #1
    4764:	454f      	cmp	r7, r9
    4766:	d3f2      	bcc.n	474e <usart_sync_read+0x2e>
    4768:	4638      	mov	r0, r7
    476a:	e8bd 8ff8 	ldmia.w	sp!, {r3, r4, r5, r6, r7, r8, r9, sl, fp, pc}
    476e:	bf00      	nop
    4770:	0001109c 	.word	0x0001109c
    4774:	00004cf9 	.word	0x00004cf9
    4778:	000056ad 	.word	0x000056ad
    477c:	0000568d 	.word	0x0000568d

00004780 <usart_sync_init>:
    4780:	b538      	push	{r3, r4, r5, lr}
    4782:	460d      	mov	r5, r1
    4784:	4604      	mov	r4, r0
    4786:	b118      	cbz	r0, 4790 <usart_sync_init+0x10>
    4788:	1c08      	adds	r0, r1, #0
    478a:	bf18      	it	ne
    478c:	2001      	movne	r0, #1
    478e:	e000      	b.n	4792 <usart_sync_init+0x12>
    4790:	2000      	movs	r0, #0
    4792:	4908      	ldr	r1, [pc, #32]	; (47b4 <usart_sync_init+0x34>)
    4794:	2234      	movs	r2, #52	; 0x34
    4796:	4b08      	ldr	r3, [pc, #32]	; (47b8 <usart_sync_init+0x38>)
    4798:	4798      	blx	r3
    479a:	f104 0008 	add.w	r0, r4, #8
    479e:	4629      	mov	r1, r5
    47a0:	4b06      	ldr	r3, [pc, #24]	; (47bc <usart_sync_init+0x3c>)
    47a2:	4798      	blx	r3
    47a4:	4603      	mov	r3, r0
    47a6:	b918      	cbnz	r0, 47b0 <usart_sync_init+0x30>
    47a8:	4a05      	ldr	r2, [pc, #20]	; (47c0 <usart_sync_init+0x40>)
    47aa:	6062      	str	r2, [r4, #4]
    47ac:	4a05      	ldr	r2, [pc, #20]	; (47c4 <usart_sync_init+0x44>)
    47ae:	6022      	str	r2, [r4, #0]
    47b0:	4618      	mov	r0, r3
    47b2:	bd38      	pop	{r3, r4, r5, pc}
    47b4:	0001109c 	.word	0x0001109c
    47b8:	00004cf9 	.word	0x00004cf9
    47bc:	00005659 	.word	0x00005659
    47c0:	00004721 	.word	0x00004721
    47c4:	000046ad 	.word	0x000046ad

000047c8 <_usb_d_find_ep>:
    47c8:	b470      	push	{r4, r5, r6}
    47ca:	4b11      	ldr	r3, [pc, #68]	; (4810 <_usb_d_find_ep+0x48>)
    47cc:	785a      	ldrb	r2, [r3, #1]
    47ce:	4282      	cmp	r2, r0
    47d0:	d019      	beq.n	4806 <_usb_d_find_ep+0x3e>
    47d2:	2301      	movs	r3, #1
    47d4:	2400      	movs	r4, #0
    47d6:	490e      	ldr	r1, [pc, #56]	; (4810 <_usb_d_find_ep+0x48>)
    47d8:	f000 060f 	and.w	r6, r0, #15
    47dc:	e007      	b.n	47ee <_usb_d_find_ep+0x26>
    47de:	461c      	mov	r4, r3
    47e0:	3301      	adds	r3, #1
    47e2:	eb01 1243 	add.w	r2, r1, r3, lsl #5
    47e6:	f812 2c1f 	ldrb.w	r2, [r2, #-31]
    47ea:	4282      	cmp	r2, r0
    47ec:	d00c      	beq.n	4808 <_usb_d_find_ep+0x40>
    47ee:	1e5d      	subs	r5, r3, #1
    47f0:	b2ed      	uxtb	r5, r5
    47f2:	0164      	lsls	r4, r4, #5
    47f4:	5d0c      	ldrb	r4, [r1, r4]
    47f6:	b90c      	cbnz	r4, 47fc <_usb_d_find_ep+0x34>
    47f8:	4296      	cmp	r6, r2
    47fa:	d005      	beq.n	4808 <_usb_d_find_ep+0x40>
    47fc:	b2dd      	uxtb	r5, r3
    47fe:	2b04      	cmp	r3, #4
    4800:	d1ed      	bne.n	47de <_usb_d_find_ep+0x16>
    4802:	25ff      	movs	r5, #255	; 0xff
    4804:	e000      	b.n	4808 <_usb_d_find_ep+0x40>
    4806:	2500      	movs	r5, #0
    4808:	b268      	sxtb	r0, r5
    480a:	bc70      	pop	{r4, r5, r6}
    480c:	4770      	bx	lr
    480e:	bf00      	nop
    4810:	200009f0 	.word	0x200009f0

00004814 <usb_d_dummy_cb_false>:
    4814:	2000      	movs	r0, #0
    4816:	4770      	bx	lr

00004818 <usb_d_cb_trans_more>:
    4818:	b538      	push	{r3, r4, r5, lr}
    481a:	4605      	mov	r5, r0
    481c:	460c      	mov	r4, r1
    481e:	4b07      	ldr	r3, [pc, #28]	; (483c <usb_d_cb_trans_more+0x24>)
    4820:	4798      	blx	r3
    4822:	4b07      	ldr	r3, [pc, #28]	; (4840 <usb_d_cb_trans_more+0x28>)
    4824:	eb03 1040 	add.w	r0, r3, r0, lsl #5
    4828:	7882      	ldrb	r2, [r0, #2]
    482a:	2a03      	cmp	r2, #3
    482c:	d104      	bne.n	4838 <usb_d_cb_trans_more+0x20>
    482e:	6983      	ldr	r3, [r0, #24]
    4830:	4628      	mov	r0, r5
    4832:	4621      	mov	r1, r4
    4834:	4798      	blx	r3
    4836:	bd38      	pop	{r3, r4, r5, pc}
    4838:	2000      	movs	r0, #0
    483a:	bd38      	pop	{r3, r4, r5, pc}
    483c:	000047c9 	.word	0x000047c9
    4840:	200009f0 	.word	0x200009f0

00004844 <_usb_d_cb_trans_done>:
    4844:	b5f0      	push	{r4, r5, r6, r7, lr}
    4846:	b085      	sub	sp, #20
    4848:	4606      	mov	r6, r0
    484a:	460d      	mov	r5, r1
    484c:	4617      	mov	r7, r2
    484e:	4b39      	ldr	r3, [pc, #228]	; (4934 <_usb_d_cb_trans_done+0xf0>)
    4850:	4798      	blx	r3
    4852:	4b39      	ldr	r3, [pc, #228]	; (4938 <_usb_d_cb_trans_done+0xf4>)
    4854:	0140      	lsls	r0, r0, #5
    4856:	181c      	adds	r4, r3, r0
    4858:	2d00      	cmp	r5, #0
    485a:	d13f      	bne.n	48dc <_usb_d_cb_trans_done+0x98>
    485c:	2200      	movs	r2, #0
    485e:	70e2      	strb	r2, [r4, #3]
    4860:	5c1b      	ldrb	r3, [r3, r0]
    4862:	2b00      	cmp	r3, #0
    4864:	d137      	bne.n	48d6 <_usb_d_cb_trans_done+0x92>
    4866:	7b22      	ldrb	r2, [r4, #12]
    4868:	78a3      	ldrb	r3, [r4, #2]
    486a:	2b03      	cmp	r3, #3
    486c:	d12a      	bne.n	48c4 <_usb_d_cb_trans_done+0x80>
    486e:	09d5      	lsrs	r5, r2, #7
    4870:	69e3      	ldr	r3, [r4, #28]
    4872:	7860      	ldrb	r0, [r4, #1]
    4874:	2101      	movs	r1, #1
    4876:	f104 020c 	add.w	r2, r4, #12
    487a:	4798      	blx	r3
    487c:	b168      	cbz	r0, 489a <_usb_d_cb_trans_done+0x56>
    487e:	2305      	movs	r3, #5
    4880:	70a3      	strb	r3, [r4, #2]
    4882:	2302      	movs	r3, #2
    4884:	70e3      	strb	r3, [r4, #3]
    4886:	b10d      	cbz	r5, 488c <_usb_d_cb_trans_done+0x48>
    4888:	7860      	ldrb	r0, [r4, #1]
    488a:	e002      	b.n	4892 <_usb_d_cb_trans_done+0x4e>
    488c:	7860      	ldrb	r0, [r4, #1]
    488e:	f040 0080 	orr.w	r0, r0, #128	; 0x80
    4892:	2101      	movs	r1, #1
    4894:	4b29      	ldr	r3, [pc, #164]	; (493c <_usb_d_cb_trans_done+0xf8>)
    4896:	4798      	blx	r3
    4898:	e04a      	b.n	4930 <_usb_d_cb_trans_done+0xec>
    489a:	2304      	movs	r3, #4
    489c:	70a3      	strb	r3, [r4, #2]
    489e:	7862      	ldrb	r2, [r4, #1]
    48a0:	2300      	movs	r3, #0
    48a2:	9301      	str	r3, [sp, #4]
    48a4:	9302      	str	r3, [sp, #8]
    48a6:	b915      	cbnz	r5, 48ae <_usb_d_cb_trans_done+0x6a>
    48a8:	f042 0380 	orr.w	r3, r2, #128	; 0x80
    48ac:	e001      	b.n	48b2 <_usb_d_cb_trans_done+0x6e>
    48ae:	f002 030f 	and.w	r3, r2, #15
    48b2:	f88d 300c 	strb.w	r3, [sp, #12]
    48b6:	2301      	movs	r3, #1
    48b8:	f88d 300d 	strb.w	r3, [sp, #13]
    48bc:	a801      	add	r0, sp, #4
    48be:	4b20      	ldr	r3, [pc, #128]	; (4940 <_usb_d_cb_trans_done+0xfc>)
    48c0:	4798      	blx	r3
    48c2:	e035      	b.n	4930 <_usb_d_cb_trans_done+0xec>
    48c4:	69e3      	ldr	r3, [r4, #28]
    48c6:	7860      	ldrb	r0, [r4, #1]
    48c8:	2100      	movs	r1, #0
    48ca:	f104 020c 	add.w	r2, r4, #12
    48ce:	4798      	blx	r3
    48d0:	2302      	movs	r3, #2
    48d2:	70a3      	strb	r3, [r4, #2]
    48d4:	e02c      	b.n	4930 <_usb_d_cb_trans_done+0xec>
    48d6:	2301      	movs	r3, #1
    48d8:	70a3      	strb	r3, [r4, #2]
    48da:	e024      	b.n	4926 <_usb_d_cb_trans_done+0xe2>
    48dc:	2d01      	cmp	r5, #1
    48de:	d10c      	bne.n	48fa <_usb_d_cb_trans_done+0xb6>
    48e0:	2202      	movs	r2, #2
    48e2:	70e2      	strb	r2, [r4, #3]
    48e4:	5c1b      	ldrb	r3, [r3, r0]
    48e6:	b92b      	cbnz	r3, 48f4 <_usb_d_cb_trans_done+0xb0>
    48e8:	70a2      	strb	r2, [r4, #2]
    48ea:	4630      	mov	r0, r6
    48ec:	2100      	movs	r1, #0
    48ee:	4b13      	ldr	r3, [pc, #76]	; (493c <_usb_d_cb_trans_done+0xf8>)
    48f0:	4798      	blx	r3
    48f2:	e018      	b.n	4926 <_usb_d_cb_trans_done+0xe2>
    48f4:	2305      	movs	r3, #5
    48f6:	70a3      	strb	r3, [r4, #2]
    48f8:	e015      	b.n	4926 <_usb_d_cb_trans_done+0xe2>
    48fa:	2d02      	cmp	r5, #2
    48fc:	d109      	bne.n	4912 <_usb_d_cb_trans_done+0xce>
    48fe:	2204      	movs	r2, #4
    4900:	70e2      	strb	r2, [r4, #3]
    4902:	5c1b      	ldrb	r3, [r3, r0]
    4904:	b913      	cbnz	r3, 490c <_usb_d_cb_trans_done+0xc8>
    4906:	2302      	movs	r3, #2
    4908:	70a3      	strb	r3, [r4, #2]
    490a:	e011      	b.n	4930 <_usb_d_cb_trans_done+0xec>
    490c:	2301      	movs	r3, #1
    490e:	70a3      	strb	r3, [r4, #2]
    4910:	e009      	b.n	4926 <_usb_d_cb_trans_done+0xe2>
    4912:	2d03      	cmp	r5, #3
    4914:	d104      	bne.n	4920 <_usb_d_cb_trans_done+0xdc>
    4916:	2300      	movs	r3, #0
    4918:	70a3      	strb	r3, [r4, #2]
    491a:	2305      	movs	r3, #5
    491c:	70e3      	strb	r3, [r4, #3]
    491e:	e002      	b.n	4926 <_usb_d_cb_trans_done+0xe2>
    4920:	2306      	movs	r3, #6
    4922:	70a3      	strb	r3, [r4, #2]
    4924:	70e3      	strb	r3, [r4, #3]
    4926:	69e3      	ldr	r3, [r4, #28]
    4928:	4630      	mov	r0, r6
    492a:	78e1      	ldrb	r1, [r4, #3]
    492c:	463a      	mov	r2, r7
    492e:	4798      	blx	r3
    4930:	b005      	add	sp, #20
    4932:	bdf0      	pop	{r4, r5, r6, r7, pc}
    4934:	000047c9 	.word	0x000047c9
    4938:	200009f0 	.word	0x200009f0
    493c:	00006c8d 	.word	0x00006c8d
    4940:	00006e01 	.word	0x00006e01

00004944 <usb_d_cb_trans_setup>:
    4944:	e92d 41f0 	stmdb	sp!, {r4, r5, r6, r7, r8, lr}
    4948:	4604      	mov	r4, r0
    494a:	4b19      	ldr	r3, [pc, #100]	; (49b0 <usb_d_cb_trans_setup+0x6c>)
    494c:	4798      	blx	r3
    494e:	4d19      	ldr	r5, [pc, #100]	; (49b4 <usb_d_cb_trans_setup+0x70>)
    4950:	eb05 1540 	add.w	r5, r5, r0, lsl #5
    4954:	f105 060c 	add.w	r6, r5, #12
    4958:	4620      	mov	r0, r4
    495a:	4631      	mov	r1, r6
    495c:	4b16      	ldr	r3, [pc, #88]	; (49b8 <usb_d_cb_trans_setup+0x74>)
    495e:	4798      	blx	r3
    4960:	b2c0      	uxtb	r0, r0
    4962:	2808      	cmp	r0, #8
    4964:	d009      	beq.n	497a <usb_d_cb_trans_setup+0x36>
    4966:	4620      	mov	r0, r4
    4968:	2101      	movs	r1, #1
    496a:	4d14      	ldr	r5, [pc, #80]	; (49bc <usb_d_cb_trans_setup+0x78>)
    496c:	47a8      	blx	r5
    496e:	f044 0080 	orr.w	r0, r4, #128	; 0x80
    4972:	2101      	movs	r1, #1
    4974:	47a8      	blx	r5
    4976:	e8bd 81f0 	ldmia.w	sp!, {r4, r5, r6, r7, r8, pc}
    497a:	4620      	mov	r0, r4
    497c:	2100      	movs	r1, #0
    497e:	4f0f      	ldr	r7, [pc, #60]	; (49bc <usb_d_cb_trans_setup+0x78>)
    4980:	47b8      	blx	r7
    4982:	f044 0880 	orr.w	r8, r4, #128	; 0x80
    4986:	4640      	mov	r0, r8
    4988:	2100      	movs	r1, #0
    498a:	47b8      	blx	r7
    498c:	2301      	movs	r3, #1
    498e:	70ab      	strb	r3, [r5, #2]
    4990:	696b      	ldr	r3, [r5, #20]
    4992:	4620      	mov	r0, r4
    4994:	4631      	mov	r1, r6
    4996:	4798      	blx	r3
    4998:	b938      	cbnz	r0, 49aa <usb_d_cb_trans_setup+0x66>
    499a:	2305      	movs	r3, #5
    499c:	70ab      	strb	r3, [r5, #2]
    499e:	4620      	mov	r0, r4
    49a0:	2101      	movs	r1, #1
    49a2:	47b8      	blx	r7
    49a4:	4640      	mov	r0, r8
    49a6:	2101      	movs	r1, #1
    49a8:	47b8      	blx	r7
    49aa:	e8bd 81f0 	ldmia.w	sp!, {r4, r5, r6, r7, r8, pc}
    49ae:	bf00      	nop
    49b0:	000047c9 	.word	0x000047c9
    49b4:	200009f0 	.word	0x200009f0
    49b8:	00006d9d 	.word	0x00006d9d
    49bc:	00006c8d 	.word	0x00006c8d

000049c0 <usb_d_init>:
    49c0:	b510      	push	{r4, lr}
    49c2:	4b12      	ldr	r3, [pc, #72]	; (4a0c <usb_d_init+0x4c>)
    49c4:	4798      	blx	r3
    49c6:	2800      	cmp	r0, #0
    49c8:	db1f      	blt.n	4a0a <usb_d_init+0x4a>
    49ca:	4c11      	ldr	r4, [pc, #68]	; (4a10 <usb_d_init+0x50>)
    49cc:	4620      	mov	r0, r4
    49ce:	2100      	movs	r1, #0
    49d0:	2280      	movs	r2, #128	; 0x80
    49d2:	4b10      	ldr	r3, [pc, #64]	; (4a14 <usb_d_init+0x54>)
    49d4:	4798      	blx	r3
    49d6:	1c63      	adds	r3, r4, #1
    49d8:	f104 0081 	add.w	r0, r4, #129	; 0x81
    49dc:	21ff      	movs	r1, #255	; 0xff
    49de:	4a0e      	ldr	r2, [pc, #56]	; (4a18 <usb_d_init+0x58>)
    49e0:	7019      	strb	r1, [r3, #0]
    49e2:	f8c3 2013 	str.w	r2, [r3, #19]
    49e6:	f8c3 2017 	str.w	r2, [r3, #23]
    49ea:	f8c3 201b 	str.w	r2, [r3, #27]
    49ee:	3320      	adds	r3, #32
    49f0:	4283      	cmp	r3, r0
    49f2:	d1f5      	bne.n	49e0 <usb_d_init+0x20>
    49f4:	2000      	movs	r0, #0
    49f6:	4909      	ldr	r1, [pc, #36]	; (4a1c <usb_d_init+0x5c>)
    49f8:	4c09      	ldr	r4, [pc, #36]	; (4a20 <usb_d_init+0x60>)
    49fa:	47a0      	blx	r4
    49fc:	2001      	movs	r0, #1
    49fe:	4909      	ldr	r1, [pc, #36]	; (4a24 <usb_d_init+0x64>)
    4a00:	47a0      	blx	r4
    4a02:	2002      	movs	r0, #2
    4a04:	4908      	ldr	r1, [pc, #32]	; (4a28 <usb_d_init+0x68>)
    4a06:	47a0      	blx	r4
    4a08:	2000      	movs	r0, #0
    4a0a:	bd10      	pop	{r4, pc}
    4a0c:	00006749 	.word	0x00006749
    4a10:	200009f0 	.word	0x200009f0
    4a14:	0000b611 	.word	0x0000b611
    4a18:	00004815 	.word	0x00004815
    4a1c:	00004945 	.word	0x00004945
    4a20:	00006f79 	.word	0x00006f79
    4a24:	00004819 	.word	0x00004819
    4a28:	00004845 	.word	0x00004845

00004a2c <usb_d_register_callback>:
    4a2c:	b508      	push	{r3, lr}
    4a2e:	4b01      	ldr	r3, [pc, #4]	; (4a34 <usb_d_register_callback+0x8>)
    4a30:	4798      	blx	r3
    4a32:	bd08      	pop	{r3, pc}
    4a34:	00006f55 	.word	0x00006f55

00004a38 <usb_d_enable>:
    4a38:	b508      	push	{r3, lr}
    4a3a:	4b01      	ldr	r3, [pc, #4]	; (4a40 <usb_d_enable+0x8>)
    4a3c:	4798      	blx	r3
    4a3e:	bd08      	pop	{r3, pc}
    4a40:	0000684d 	.word	0x0000684d

00004a44 <usb_d_attach>:
    4a44:	b508      	push	{r3, lr}
    4a46:	4b01      	ldr	r3, [pc, #4]	; (4a4c <usb_d_attach+0x8>)
    4a48:	4798      	blx	r3
    4a4a:	bd08      	pop	{r3, pc}
    4a4c:	000068b9 	.word	0x000068b9

00004a50 <usb_d_set_address>:
    4a50:	b508      	push	{r3, lr}
    4a52:	4b01      	ldr	r3, [pc, #4]	; (4a58 <usb_d_set_address+0x8>)
    4a54:	4798      	blx	r3
    4a56:	bd08      	pop	{r3, pc}
    4a58:	000068cd 	.word	0x000068cd

00004a5c <usb_d_ep_init>:
    4a5c:	e92d 43f8 	stmdb	sp!, {r3, r4, r5, r6, r7, r8, r9, lr}
    4a60:	4605      	mov	r5, r0
    4a62:	460c      	mov	r4, r1
    4a64:	4690      	mov	r8, r2
    4a66:	4b12      	ldr	r3, [pc, #72]	; (4ab0 <usb_d_ep_init+0x54>)
    4a68:	4798      	blx	r3
    4a6a:	2800      	cmp	r0, #0
    4a6c:	da17      	bge.n	4a9e <usb_d_ep_init+0x42>
    4a6e:	20ff      	movs	r0, #255	; 0xff
    4a70:	4b0f      	ldr	r3, [pc, #60]	; (4ab0 <usb_d_ep_init+0x54>)
    4a72:	4798      	blx	r3
    4a74:	2800      	cmp	r0, #0
    4a76:	db16      	blt.n	4aa6 <usb_d_ep_init+0x4a>
    4a78:	4f0e      	ldr	r7, [pc, #56]	; (4ab4 <usb_d_ep_init+0x58>)
    4a7a:	0146      	lsls	r6, r0, #5
    4a7c:	eb07 0906 	add.w	r9, r7, r6
    4a80:	4628      	mov	r0, r5
    4a82:	4621      	mov	r1, r4
    4a84:	4642      	mov	r2, r8
    4a86:	4b0c      	ldr	r3, [pc, #48]	; (4ab8 <usb_d_ep_init+0x5c>)
    4a88:	4798      	blx	r3
    4a8a:	2800      	cmp	r0, #0
    4a8c:	db0d      	blt.n	4aaa <usb_d_ep_init+0x4e>
    4a8e:	f889 5001 	strb.w	r5, [r9, #1]
    4a92:	f004 0403 	and.w	r4, r4, #3
    4a96:	55bc      	strb	r4, [r7, r6]
    4a98:	2000      	movs	r0, #0
    4a9a:	e8bd 83f8 	ldmia.w	sp!, {r3, r4, r5, r6, r7, r8, r9, pc}
    4a9e:	f06f 0013 	mvn.w	r0, #19
    4aa2:	e8bd 83f8 	ldmia.w	sp!, {r3, r4, r5, r6, r7, r8, r9, pc}
    4aa6:	f06f 0014 	mvn.w	r0, #20
    4aaa:	e8bd 83f8 	ldmia.w	sp!, {r3, r4, r5, r6, r7, r8, r9, pc}
    4aae:	bf00      	nop
    4ab0:	000047c9 	.word	0x000047c9
    4ab4:	200009f0 	.word	0x200009f0
    4ab8:	000068d9 	.word	0x000068d9

00004abc <usb_d_ep0_init>:
    4abc:	b508      	push	{r3, lr}
    4abe:	4602      	mov	r2, r0
    4ac0:	2000      	movs	r0, #0
    4ac2:	4601      	mov	r1, r0
    4ac4:	4b01      	ldr	r3, [pc, #4]	; (4acc <usb_d_ep0_init+0x10>)
    4ac6:	4798      	blx	r3
    4ac8:	bd08      	pop	{r3, pc}
    4aca:	bf00      	nop
    4acc:	00004a5d 	.word	0x00004a5d

00004ad0 <usb_d_ep_deinit>:
    4ad0:	b538      	push	{r3, r4, r5, lr}
    4ad2:	4605      	mov	r5, r0
    4ad4:	4b06      	ldr	r3, [pc, #24]	; (4af0 <usb_d_ep_deinit+0x20>)
    4ad6:	4798      	blx	r3
    4ad8:	1e04      	subs	r4, r0, #0
    4ada:	db07      	blt.n	4aec <usb_d_ep_deinit+0x1c>
    4adc:	4628      	mov	r0, r5
    4ade:	4b05      	ldr	r3, [pc, #20]	; (4af4 <usb_d_ep_deinit+0x24>)
    4ae0:	4798      	blx	r3
    4ae2:	4b05      	ldr	r3, [pc, #20]	; (4af8 <usb_d_ep_deinit+0x28>)
    4ae4:	eb03 1444 	add.w	r4, r3, r4, lsl #5
    4ae8:	23ff      	movs	r3, #255	; 0xff
    4aea:	7063      	strb	r3, [r4, #1]
    4aec:	bd38      	pop	{r3, r4, r5, pc}
    4aee:	bf00      	nop
    4af0:	000047c9 	.word	0x000047c9
    4af4:	00006995 	.word	0x00006995
    4af8:	200009f0 	.word	0x200009f0

00004afc <usb_d_ep_enable>:
    4afc:	b538      	push	{r3, r4, r5, lr}
    4afe:	4605      	mov	r5, r0
    4b00:	4b0b      	ldr	r3, [pc, #44]	; (4b30 <usb_d_ep_enable+0x34>)
    4b02:	4798      	blx	r3
    4b04:	490b      	ldr	r1, [pc, #44]	; (4b34 <usb_d_ep_enable+0x38>)
    4b06:	0142      	lsls	r2, r0, #5
    4b08:	188c      	adds	r4, r1, r2
    4b0a:	2800      	cmp	r0, #0
    4b0c:	db0d      	blt.n	4b2a <usb_d_ep_enable+0x2e>
    4b0e:	5c8b      	ldrb	r3, [r1, r2]
    4b10:	2b00      	cmp	r3, #0
    4b12:	bf14      	ite	ne
    4b14:	2301      	movne	r3, #1
    4b16:	2302      	moveq	r3, #2
    4b18:	70a3      	strb	r3, [r4, #2]
    4b1a:	4628      	mov	r0, r5
    4b1c:	4b06      	ldr	r3, [pc, #24]	; (4b38 <usb_d_ep_enable+0x3c>)
    4b1e:	4798      	blx	r3
    4b20:	2800      	cmp	r0, #0
    4b22:	da04      	bge.n	4b2e <usb_d_ep_enable+0x32>
    4b24:	2300      	movs	r3, #0
    4b26:	70a3      	strb	r3, [r4, #2]
    4b28:	bd38      	pop	{r3, r4, r5, pc}
    4b2a:	f06f 0011 	mvn.w	r0, #17
    4b2e:	bd38      	pop	{r3, r4, r5, pc}
    4b30:	000047c9 	.word	0x000047c9
    4b34:	200009f0 	.word	0x200009f0
    4b38:	00006a25 	.word	0x00006a25

00004b3c <usb_d_ep_transfer>:
    4b3c:	e92d 47f0 	stmdb	sp!, {r4, r5, r6, r7, r8, r9, sl, lr}
    4b40:	b086      	sub	sp, #24
    4b42:	4604      	mov	r4, r0
    4b44:	f890 8008 	ldrb.w	r8, [r0, #8]
    4b48:	4640      	mov	r0, r8
    4b4a:	4b3c      	ldr	r3, [pc, #240]	; (4c3c <usb_d_ep_transfer+0x100>)
    4b4c:	4798      	blx	r3
    4b4e:	4f3c      	ldr	r7, [pc, #240]	; (4c40 <usb_d_ep_transfer+0x104>)
    4b50:	0146      	lsls	r6, r0, #5
    4b52:	19bd      	adds	r5, r7, r6
    4b54:	f894 a009 	ldrb.w	sl, [r4, #9]
    4b58:	f8d4 9004 	ldr.w	r9, [r4, #4]
    4b5c:	2800      	cmp	r0, #0
    4b5e:	db5a      	blt.n	4c16 <usb_d_ep_transfer+0xda>
    4b60:	a804      	add	r0, sp, #16
    4b62:	4b38      	ldr	r3, [pc, #224]	; (4c44 <usb_d_ep_transfer+0x108>)
    4b64:	4798      	blx	r3
    4b66:	78ab      	ldrb	r3, [r5, #2]
    4b68:	f88d 3017 	strb.w	r3, [sp, #23]
    4b6c:	f89d 3017 	ldrb.w	r3, [sp, #23]
    4b70:	b2db      	uxtb	r3, r3
    4b72:	2b01      	cmp	r3, #1
    4b74:	d107      	bne.n	4b86 <usb_d_ep_transfer+0x4a>
    4b76:	2303      	movs	r3, #3
    4b78:	70ab      	strb	r3, [r5, #2]
    4b7a:	a804      	add	r0, sp, #16
    4b7c:	4b32      	ldr	r3, [pc, #200]	; (4c48 <usb_d_ep_transfer+0x10c>)
    4b7e:	4798      	blx	r3
    4b80:	5dbb      	ldrb	r3, [r7, r6]
    4b82:	b193      	cbz	r3, 4baa <usb_d_ep_transfer+0x6e>
    4b84:	e02d      	b.n	4be2 <usb_d_ep_transfer+0xa6>
    4b86:	a804      	add	r0, sp, #16
    4b88:	4b2f      	ldr	r3, [pc, #188]	; (4c48 <usb_d_ep_transfer+0x10c>)
    4b8a:	4798      	blx	r3
    4b8c:	f89d 3017 	ldrb.w	r3, [sp, #23]
    4b90:	b2db      	uxtb	r3, r3
    4b92:	2b05      	cmp	r3, #5
    4b94:	d007      	beq.n	4ba6 <usb_d_ep_transfer+0x6a>
    4b96:	2b06      	cmp	r3, #6
    4b98:	d040      	beq.n	4c1c <usb_d_ep_transfer+0xe0>
    4b9a:	2b00      	cmp	r3, #0
    4b9c:	bf0c      	ite	eq
    4b9e:	f06f 0012 	mvneq.w	r0, #18
    4ba2:	2001      	movne	r0, #1
    4ba4:	e047      	b.n	4c36 <usb_d_ep_transfer+0xfa>
    4ba6:	2002      	movs	r0, #2
    4ba8:	e045      	b.n	4c36 <usb_d_ep_transfer+0xfa>
    4baa:	7cea      	ldrb	r2, [r5, #19]
    4bac:	7cab      	ldrb	r3, [r5, #18]
    4bae:	eb03 2302 	add.w	r3, r3, r2, lsl #8
    4bb2:	b29b      	uxth	r3, r3
    4bb4:	b92b      	cbnz	r3, 4bc2 <usb_d_ep_transfer+0x86>
    4bb6:	2304      	movs	r3, #4
    4bb8:	70ab      	strb	r3, [r5, #2]
    4bba:	2200      	movs	r2, #0
    4bbc:	f04f 0a01 	mov.w	sl, #1
    4bc0:	e02f      	b.n	4c22 <usb_d_ep_transfer+0xe6>
    4bc2:	f895 a00c 	ldrb.w	sl, [r5, #12]
    4bc6:	454b      	cmp	r3, r9
    4bc8:	bf34      	ite	cc
    4bca:	461a      	movcc	r2, r3
    4bcc:	464a      	movcs	r2, r9
    4bce:	f01a 0a80 	ands.w	sl, sl, #128	; 0x80
    4bd2:	d02b      	beq.n	4c2c <usb_d_ep_transfer+0xf0>
    4bd4:	4293      	cmp	r3, r2
    4bd6:	bf94      	ite	ls
    4bd8:	f04f 0a00 	movls.w	sl, #0
    4bdc:	f04f 0a01 	movhi.w	sl, #1
    4be0:	e01f      	b.n	4c22 <usb_d_ep_transfer+0xe6>
    4be2:	7a23      	ldrb	r3, [r4, #8]
    4be4:	f11a 0a00 	adds.w	sl, sl, #0
    4be8:	bf18      	it	ne
    4bea:	f04f 0a01 	movne.w	sl, #1
    4bee:	6822      	ldr	r2, [r4, #0]
    4bf0:	9201      	str	r2, [sp, #4]
    4bf2:	f8cd 9008 	str.w	r9, [sp, #8]
    4bf6:	f018 0f80 	tst.w	r8, #128	; 0x80
    4bfa:	d002      	beq.n	4c02 <usb_d_ep_transfer+0xc6>
    4bfc:	f043 0380 	orr.w	r3, r3, #128	; 0x80
    4c00:	e001      	b.n	4c06 <usb_d_ep_transfer+0xca>
    4c02:	f003 030f 	and.w	r3, r3, #15
    4c06:	f88d 300c 	strb.w	r3, [sp, #12]
    4c0a:	f88d a00d 	strb.w	sl, [sp, #13]
    4c0e:	a801      	add	r0, sp, #4
    4c10:	4b0e      	ldr	r3, [pc, #56]	; (4c4c <usb_d_ep_transfer+0x110>)
    4c12:	4798      	blx	r3
    4c14:	e00f      	b.n	4c36 <usb_d_ep_transfer+0xfa>
    4c16:	f06f 0011 	mvn.w	r0, #17
    4c1a:	e00c      	b.n	4c36 <usb_d_ep_transfer+0xfa>
    4c1c:	f06f 000f 	mvn.w	r0, #15
    4c20:	e009      	b.n	4c36 <usb_d_ep_transfer+0xfa>
    4c22:	7a23      	ldrb	r3, [r4, #8]
    4c24:	6821      	ldr	r1, [r4, #0]
    4c26:	9101      	str	r1, [sp, #4]
    4c28:	9202      	str	r2, [sp, #8]
    4c2a:	e7e7      	b.n	4bfc <usb_d_ep_transfer+0xc0>
    4c2c:	7a23      	ldrb	r3, [r4, #8]
    4c2e:	6821      	ldr	r1, [r4, #0]
    4c30:	9101      	str	r1, [sp, #4]
    4c32:	9202      	str	r2, [sp, #8]
    4c34:	e7e5      	b.n	4c02 <usb_d_ep_transfer+0xc6>
    4c36:	b006      	add	sp, #24
    4c38:	e8bd 87f0 	ldmia.w	sp!, {r4, r5, r6, r7, r8, r9, sl, pc}
    4c3c:	000047c9 	.word	0x000047c9
    4c40:	200009f0 	.word	0x200009f0
    4c44:	0000439d 	.word	0x0000439d
    4c48:	000043ad 	.word	0x000043ad
    4c4c:	00006e01 	.word	0x00006e01

00004c50 <usb_d_ep_halt>:
    4c50:	b538      	push	{r3, r4, r5, lr}
    4c52:	4604      	mov	r4, r0
    4c54:	bb09      	cbnz	r1, 4c9a <usb_d_ep_halt+0x4a>
    4c56:	4b15      	ldr	r3, [pc, #84]	; (4cac <usb_d_ep_halt+0x5c>)
    4c58:	4798      	blx	r3
    4c5a:	1e05      	subs	r5, r0, #0
    4c5c:	db18      	blt.n	4c90 <usb_d_ep_halt+0x40>
    4c5e:	4620      	mov	r0, r4
    4c60:	2102      	movs	r1, #2
    4c62:	4b13      	ldr	r3, [pc, #76]	; (4cb0 <usb_d_ep_halt+0x60>)
    4c64:	4798      	blx	r3
    4c66:	4603      	mov	r3, r0
    4c68:	b1f0      	cbz	r0, 4ca8 <usb_d_ep_halt+0x58>
    4c6a:	4620      	mov	r0, r4
    4c6c:	2100      	movs	r1, #0
    4c6e:	4b10      	ldr	r3, [pc, #64]	; (4cb0 <usb_d_ep_halt+0x60>)
    4c70:	4798      	blx	r3
    4c72:	2800      	cmp	r0, #0
    4c74:	db0f      	blt.n	4c96 <usb_d_ep_halt+0x46>
    4c76:	4b0f      	ldr	r3, [pc, #60]	; (4cb4 <usb_d_ep_halt+0x64>)
    4c78:	eb03 1545 	add.w	r5, r3, r5, lsl #5
    4c7c:	2301      	movs	r3, #1
    4c7e:	70ab      	strb	r3, [r5, #2]
    4c80:	2103      	movs	r1, #3
    4c82:	70e9      	strb	r1, [r5, #3]
    4c84:	69eb      	ldr	r3, [r5, #28]
    4c86:	4620      	mov	r0, r4
    4c88:	2200      	movs	r2, #0
    4c8a:	4798      	blx	r3
    4c8c:	2300      	movs	r3, #0
    4c8e:	e00b      	b.n	4ca8 <usb_d_ep_halt+0x58>
    4c90:	f06f 0311 	mvn.w	r3, #17
    4c94:	e008      	b.n	4ca8 <usb_d_ep_halt+0x58>
    4c96:	4603      	mov	r3, r0
    4c98:	e006      	b.n	4ca8 <usb_d_ep_halt+0x58>
    4c9a:	2901      	cmp	r1, #1
    4c9c:	bf0c      	ite	eq
    4c9e:	2101      	moveq	r1, #1
    4ca0:	2102      	movne	r1, #2
    4ca2:	4b03      	ldr	r3, [pc, #12]	; (4cb0 <usb_d_ep_halt+0x60>)
    4ca4:	4798      	blx	r3
    4ca6:	4603      	mov	r3, r0
    4ca8:	4618      	mov	r0, r3
    4caa:	bd38      	pop	{r3, r4, r5, pc}
    4cac:	000047c9 	.word	0x000047c9
    4cb0:	00006c8d 	.word	0x00006c8d
    4cb4:	200009f0 	.word	0x200009f0

00004cb8 <usb_d_ep_register_callback>:
    4cb8:	b538      	push	{r3, r4, r5, lr}
    4cba:	460d      	mov	r5, r1
    4cbc:	4614      	mov	r4, r2
    4cbe:	4b0b      	ldr	r3, [pc, #44]	; (4cec <usb_d_ep_register_callback+0x34>)
    4cc0:	4798      	blx	r3
    4cc2:	4b0b      	ldr	r3, [pc, #44]	; (4cf0 <usb_d_ep_register_callback+0x38>)
    4cc4:	eb03 1240 	add.w	r2, r3, r0, lsl #5
    4cc8:	4b0a      	ldr	r3, [pc, #40]	; (4cf4 <usb_d_ep_register_callback+0x3c>)
    4cca:	2c00      	cmp	r4, #0
    4ccc:	bf08      	it	eq
    4cce:	461c      	moveq	r4, r3
    4cd0:	2800      	cmp	r0, #0
    4cd2:	db0a      	blt.n	4cea <usb_d_ep_register_callback+0x32>
    4cd4:	2d01      	cmp	r5, #1
    4cd6:	d005      	beq.n	4ce4 <usb_d_ep_register_callback+0x2c>
    4cd8:	b115      	cbz	r5, 4ce0 <usb_d_ep_register_callback+0x28>
    4cda:	2d02      	cmp	r5, #2
    4cdc:	d004      	beq.n	4ce8 <usb_d_ep_register_callback+0x30>
    4cde:	bd38      	pop	{r3, r4, r5, pc}
    4ce0:	6154      	str	r4, [r2, #20]
    4ce2:	bd38      	pop	{r3, r4, r5, pc}
    4ce4:	6194      	str	r4, [r2, #24]
    4ce6:	bd38      	pop	{r3, r4, r5, pc}
    4ce8:	61d4      	str	r4, [r2, #28]
    4cea:	bd38      	pop	{r3, r4, r5, pc}
    4cec:	000047c9 	.word	0x000047c9
    4cf0:	200009f0 	.word	0x200009f0
    4cf4:	00004815 	.word	0x00004815

00004cf8 <assert>:
    4cf8:	b900      	cbnz	r0, 4cfc <assert+0x4>
    4cfa:	be00      	bkpt	0x0000
    4cfc:	4770      	bx	lr
    4cfe:	bf00      	nop

00004d00 <is_list_element>:
    4d00:	6803      	ldr	r3, [r0, #0]
    4d02:	b14b      	cbz	r3, 4d18 <is_list_element+0x18>
    4d04:	428b      	cmp	r3, r1
    4d06:	d102      	bne.n	4d0e <is_list_element+0xe>
    4d08:	e008      	b.n	4d1c <is_list_element+0x1c>
    4d0a:	4299      	cmp	r1, r3
    4d0c:	d008      	beq.n	4d20 <is_list_element+0x20>
    4d0e:	681b      	ldr	r3, [r3, #0]
    4d10:	2b00      	cmp	r3, #0
    4d12:	d1fa      	bne.n	4d0a <is_list_element+0xa>
    4d14:	2000      	movs	r0, #0
    4d16:	4770      	bx	lr
    4d18:	2000      	movs	r0, #0
    4d1a:	4770      	bx	lr
    4d1c:	2001      	movs	r0, #1
    4d1e:	4770      	bx	lr
    4d20:	2001      	movs	r0, #1
    4d22:	4770      	bx	lr

00004d24 <list_insert_at_end>:
    4d24:	b570      	push	{r4, r5, r6, lr}
    4d26:	4605      	mov	r5, r0
    4d28:	460e      	mov	r6, r1
    4d2a:	6804      	ldr	r4, [r0, #0]
    4d2c:	4b0a      	ldr	r3, [pc, #40]	; (4d58 <list_insert_at_end+0x34>)
    4d2e:	4798      	blx	r3
    4d30:	f080 0001 	eor.w	r0, r0, #1
    4d34:	b2c0      	uxtb	r0, r0
    4d36:	4909      	ldr	r1, [pc, #36]	; (4d5c <list_insert_at_end+0x38>)
    4d38:	224f      	movs	r2, #79	; 0x4f
    4d3a:	4b09      	ldr	r3, [pc, #36]	; (4d60 <list_insert_at_end+0x3c>)
    4d3c:	4798      	blx	r3
    4d3e:	682b      	ldr	r3, [r5, #0]
    4d40:	b913      	cbnz	r3, 4d48 <list_insert_at_end+0x24>
    4d42:	602e      	str	r6, [r5, #0]
    4d44:	6033      	str	r3, [r6, #0]
    4d46:	bd70      	pop	{r4, r5, r6, pc}
    4d48:	6823      	ldr	r3, [r4, #0]
    4d4a:	b10b      	cbz	r3, 4d50 <list_insert_at_end+0x2c>
    4d4c:	461c      	mov	r4, r3
    4d4e:	e7fb      	b.n	4d48 <list_insert_at_end+0x24>
    4d50:	6026      	str	r6, [r4, #0]
    4d52:	2300      	movs	r3, #0
    4d54:	6033      	str	r3, [r6, #0]
    4d56:	bd70      	pop	{r4, r5, r6, pc}
    4d58:	00004d01 	.word	0x00004d01
    4d5c:	000110c4 	.word	0x000110c4
    4d60:	00004cf9 	.word	0x00004cf9

00004d64 <_sbrk>:
    4d64:	4b05      	ldr	r3, [pc, #20]	; (4d7c <_sbrk+0x18>)
    4d66:	681b      	ldr	r3, [r3, #0]
    4d68:	b913      	cbnz	r3, 4d70 <_sbrk+0xc>
    4d6a:	4a05      	ldr	r2, [pc, #20]	; (4d80 <_sbrk+0x1c>)
    4d6c:	4b03      	ldr	r3, [pc, #12]	; (4d7c <_sbrk+0x18>)
    4d6e:	601a      	str	r2, [r3, #0]
    4d70:	4a02      	ldr	r2, [pc, #8]	; (4d7c <_sbrk+0x18>)
    4d72:	6813      	ldr	r3, [r2, #0]
    4d74:	4418      	add	r0, r3
    4d76:	6010      	str	r0, [r2, #0]
    4d78:	4618      	mov	r0, r3
    4d7a:	4770      	bx	lr
    4d7c:	20000a70 	.word	0x20000a70
    4d80:	20010eb8 	.word	0x20010eb8

00004d84 <_close>:
    4d84:	f04f 30ff 	mov.w	r0, #4294967295	; 0xffffffff
    4d88:	4770      	bx	lr
    4d8a:	bf00      	nop

00004d8c <_fstat>:
    4d8c:	f44f 5300 	mov.w	r3, #8192	; 0x2000
    4d90:	604b      	str	r3, [r1, #4]
    4d92:	2000      	movs	r0, #0
    4d94:	4770      	bx	lr
    4d96:	bf00      	nop

00004d98 <_isatty>:
    4d98:	2001      	movs	r0, #1
    4d9a:	4770      	bx	lr

00004d9c <_lseek>:
    4d9c:	2000      	movs	r0, #0
    4d9e:	4770      	bx	lr

00004da0 <_adc_init>:
    4da0:	6b03      	ldr	r3, [r0, #48]	; 0x30
    4da2:	f013 0f01 	tst.w	r3, #1
    4da6:	d11c      	bne.n	4de2 <_adc_init+0x42>
    4da8:	6b03      	ldr	r3, [r0, #48]	; 0x30
    4daa:	f013 0f03 	tst.w	r3, #3
    4dae:	d1fb      	bne.n	4da8 <_adc_init+0x8>
    4db0:	8803      	ldrh	r3, [r0, #0]
    4db2:	f003 0302 	and.w	r3, r3, #2
    4db6:	b29b      	uxth	r3, r3
    4db8:	b16b      	cbz	r3, 4dd6 <_adc_init+0x36>
    4dba:	8803      	ldrh	r3, [r0, #0]
    4dbc:	f023 0302 	bic.w	r3, r3, #2
    4dc0:	041b      	lsls	r3, r3, #16
    4dc2:	0c1b      	lsrs	r3, r3, #16
    4dc4:	8003      	strh	r3, [r0, #0]
    4dc6:	6b03      	ldr	r3, [r0, #48]	; 0x30
    4dc8:	f013 0f03 	tst.w	r3, #3
    4dcc:	d1fb      	bne.n	4dc6 <_adc_init+0x26>
    4dce:	6b03      	ldr	r3, [r0, #48]	; 0x30
    4dd0:	f013 0f02 	tst.w	r3, #2
    4dd4:	d1fb      	bne.n	4dce <_adc_init+0x2e>
    4dd6:	2301      	movs	r3, #1
    4dd8:	8003      	strh	r3, [r0, #0]
    4dda:	6b03      	ldr	r3, [r0, #48]	; 0x30
    4ddc:	f013 0f03 	tst.w	r3, #3
    4de0:	d1fb      	bne.n	4dda <_adc_init+0x3a>
    4de2:	6b03      	ldr	r3, [r0, #48]	; 0x30
    4de4:	f013 0f01 	tst.w	r3, #1
    4de8:	d1fb      	bne.n	4de2 <_adc_init+0x42>
    4dea:	2216      	movs	r2, #22
    4dec:	4b36      	ldr	r3, [pc, #216]	; (4ec8 <_adc_init+0x128>)
    4dee:	fb02 3301 	mla	r3, r2, r1, r3
    4df2:	889b      	ldrh	r3, [r3, #4]
    4df4:	80c3      	strh	r3, [r0, #6]
    4df6:	6b03      	ldr	r3, [r0, #48]	; 0x30
    4df8:	f3c3 030b 	ubfx	r3, r3, #0, #12
    4dfc:	2b00      	cmp	r3, #0
    4dfe:	d1fa      	bne.n	4df6 <_adc_init+0x56>
    4e00:	2216      	movs	r2, #22
    4e02:	4b31      	ldr	r3, [pc, #196]	; (4ec8 <_adc_init+0x128>)
    4e04:	fb02 3301 	mla	r3, r2, r1, r3
    4e08:	799b      	ldrb	r3, [r3, #6]
    4e0a:	7203      	strb	r3, [r0, #8]
    4e0c:	6b03      	ldr	r3, [r0, #48]	; 0x30
    4e0e:	f3c3 030b 	ubfx	r3, r3, #0, #12
    4e12:	2b00      	cmp	r3, #0
    4e14:	d1fa      	bne.n	4e0c <_adc_init+0x6c>
    4e16:	2216      	movs	r2, #22
    4e18:	4b2b      	ldr	r3, [pc, #172]	; (4ec8 <_adc_init+0x128>)
    4e1a:	fb02 3301 	mla	r3, r2, r1, r3
    4e1e:	79da      	ldrb	r2, [r3, #7]
    4e20:	7082      	strb	r2, [r0, #2]
    4e22:	891b      	ldrh	r3, [r3, #8]
    4e24:	8083      	strh	r3, [r0, #4]
    4e26:	6b03      	ldr	r3, [r0, #48]	; 0x30
    4e28:	f3c3 030b 	ubfx	r3, r3, #0, #12
    4e2c:	2b00      	cmp	r3, #0
    4e2e:	d1fa      	bne.n	4e26 <_adc_init+0x86>
    4e30:	2216      	movs	r2, #22
    4e32:	4b25      	ldr	r3, [pc, #148]	; (4ec8 <_adc_init+0x128>)
    4e34:	fb02 3301 	mla	r3, r2, r1, r3
    4e38:	7a9b      	ldrb	r3, [r3, #10]
    4e3a:	7283      	strb	r3, [r0, #10]
    4e3c:	6b03      	ldr	r3, [r0, #48]	; 0x30
    4e3e:	f3c3 030b 	ubfx	r3, r3, #0, #12
    4e42:	2b00      	cmp	r3, #0
    4e44:	d1fa      	bne.n	4e3c <_adc_init+0x9c>
    4e46:	2216      	movs	r2, #22
    4e48:	4b1f      	ldr	r3, [pc, #124]	; (4ec8 <_adc_init+0x128>)
    4e4a:	fb02 3301 	mla	r3, r2, r1, r3
    4e4e:	7adb      	ldrb	r3, [r3, #11]
    4e50:	72c3      	strb	r3, [r0, #11]
    4e52:	6b03      	ldr	r3, [r0, #48]	; 0x30
    4e54:	f3c3 030b 	ubfx	r3, r3, #0, #12
    4e58:	2b00      	cmp	r3, #0
    4e5a:	d1fa      	bne.n	4e52 <_adc_init+0xb2>
    4e5c:	2216      	movs	r2, #22
    4e5e:	4b1a      	ldr	r3, [pc, #104]	; (4ec8 <_adc_init+0x128>)
    4e60:	fb02 3301 	mla	r3, r2, r1, r3
    4e64:	899b      	ldrh	r3, [r3, #12]
    4e66:	8183      	strh	r3, [r0, #12]
    4e68:	6b03      	ldr	r3, [r0, #48]	; 0x30
    4e6a:	f013 0f80 	tst.w	r3, #128	; 0x80
    4e6e:	d1fb      	bne.n	4e68 <_adc_init+0xc8>
    4e70:	2216      	movs	r2, #22
    4e72:	4b15      	ldr	r3, [pc, #84]	; (4ec8 <_adc_init+0x128>)
    4e74:	fb02 3301 	mla	r3, r2, r1, r3
    4e78:	89db      	ldrh	r3, [r3, #14]
    4e7a:	81c3      	strh	r3, [r0, #14]
    4e7c:	6b03      	ldr	r3, [r0, #48]	; 0x30
    4e7e:	f413 7f80 	tst.w	r3, #256	; 0x100
    4e82:	d1fb      	bne.n	4e7c <_adc_init+0xdc>
    4e84:	2216      	movs	r2, #22
    4e86:	4b10      	ldr	r3, [pc, #64]	; (4ec8 <_adc_init+0x128>)
    4e88:	fb02 3301 	mla	r3, r2, r1, r3
    4e8c:	8a1b      	ldrh	r3, [r3, #16]
    4e8e:	8203      	strh	r3, [r0, #16]
    4e90:	6b03      	ldr	r3, [r0, #48]	; 0x30
    4e92:	f413 7f00 	tst.w	r3, #512	; 0x200
    4e96:	d1fb      	bne.n	4e90 <_adc_init+0xf0>
    4e98:	2216      	movs	r2, #22
    4e9a:	4b0b      	ldr	r3, [pc, #44]	; (4ec8 <_adc_init+0x128>)
    4e9c:	fb02 3301 	mla	r3, r2, r1, r3
    4ea0:	8a5b      	ldrh	r3, [r3, #18]
    4ea2:	8243      	strh	r3, [r0, #18]
    4ea4:	6b03      	ldr	r3, [r0, #48]	; 0x30
    4ea6:	f413 6f80 	tst.w	r3, #1024	; 0x400
    4eaa:	d1fb      	bne.n	4ea4 <_adc_init+0x104>
    4eac:	2216      	movs	r2, #22
    4eae:	4b06      	ldr	r3, [pc, #24]	; (4ec8 <_adc_init+0x128>)
    4eb0:	fb02 3101 	mla	r1, r2, r1, r3
    4eb4:	7d0b      	ldrb	r3, [r1, #20]
    4eb6:	70c3      	strb	r3, [r0, #3]
    4eb8:	884b      	ldrh	r3, [r1, #2]
    4eba:	8003      	strh	r3, [r0, #0]
    4ebc:	6b03      	ldr	r3, [r0, #48]	; 0x30
    4ebe:	f013 0f03 	tst.w	r3, #3
    4ec2:	d1fb      	bne.n	4ebc <_adc_init+0x11c>
    4ec4:	2000      	movs	r0, #0
    4ec6:	4770      	bx	lr
    4ec8:	000110ec 	.word	0x000110ec

00004ecc <_adc_get_regs>:
    4ecc:	b508      	push	{r3, lr}
    4ece:	f100 403d 	add.w	r0, r0, #3170893824	; 0xbd000000
    4ed2:	f5a0 50e0 	sub.w	r0, r0, #7168	; 0x1c00
    4ed6:	f3c0 2087 	ubfx	r0, r0, #10, #8
    4eda:	b120      	cbz	r0, 4ee6 <_adc_get_regs+0x1a>
    4edc:	2000      	movs	r0, #0
    4ede:	4903      	ldr	r1, [pc, #12]	; (4eec <_adc_get_regs+0x20>)
    4ee0:	2288      	movs	r2, #136	; 0x88
    4ee2:	4b03      	ldr	r3, [pc, #12]	; (4ef0 <_adc_get_regs+0x24>)
    4ee4:	4798      	blx	r3
    4ee6:	2000      	movs	r0, #0
    4ee8:	bd08      	pop	{r3, pc}
    4eea:	bf00      	nop
    4eec:	00011104 	.word	0x00011104
    4ef0:	00004cf9 	.word	0x00004cf9

00004ef4 <_adc_sync_init>:
    4ef4:	b538      	push	{r3, r4, r5, lr}
    4ef6:	460c      	mov	r4, r1
    4ef8:	4605      	mov	r5, r0
    4efa:	3000      	adds	r0, #0
    4efc:	bf18      	it	ne
    4efe:	2001      	movne	r0, #1
    4f00:	4906      	ldr	r1, [pc, #24]	; (4f1c <_adc_sync_init+0x28>)
    4f02:	22ce      	movs	r2, #206	; 0xce
    4f04:	4b06      	ldr	r3, [pc, #24]	; (4f20 <_adc_sync_init+0x2c>)
    4f06:	4798      	blx	r3
    4f08:	602c      	str	r4, [r5, #0]
    4f0a:	4620      	mov	r0, r4
    4f0c:	4b05      	ldr	r3, [pc, #20]	; (4f24 <_adc_sync_init+0x30>)
    4f0e:	4798      	blx	r3
    4f10:	4601      	mov	r1, r0
    4f12:	4620      	mov	r0, r4
    4f14:	4b04      	ldr	r3, [pc, #16]	; (4f28 <_adc_sync_init+0x34>)
    4f16:	4798      	blx	r3
    4f18:	bd38      	pop	{r3, r4, r5, pc}
    4f1a:	bf00      	nop
    4f1c:	00011104 	.word	0x00011104
    4f20:	00004cf9 	.word	0x00004cf9
    4f24:	00004ecd 	.word	0x00004ecd
    4f28:	00004da1 	.word	0x00004da1

00004f2c <_get_cycles_for_ms>:
    4f2c:	ebc0 1000 	rsb	r0, r0, r0, lsl #4
    4f30:	0143      	lsls	r3, r0, #5
    4f32:	3302      	adds	r3, #2
    4f34:	4a03      	ldr	r2, [pc, #12]	; (4f44 <_get_cycles_for_ms+0x18>)
    4f36:	fba2 1303 	umull	r1, r3, r2, r3
    4f3a:	085b      	lsrs	r3, r3, #1
    4f3c:	2064      	movs	r0, #100	; 0x64
    4f3e:	fb00 f003 	mul.w	r0, r0, r3
    4f42:	4770      	bx	lr
    4f44:	aaaaaaab 	.word	0xaaaaaaab

00004f48 <_delay_cycles>:
    4f48:	3901      	subs	r1, #1
    4f4a:	f63f affd 	bhi.w	4f48 <_delay_cycles>
    4f4e:	4770      	bx	lr

00004f50 <_init_chip>:
    4f50:	b508      	push	{r3, lr}
    4f52:	4b08      	ldr	r3, [pc, #32]	; (4f74 <_init_chip+0x24>)
    4f54:	881a      	ldrh	r2, [r3, #0]
    4f56:	b292      	uxth	r2, r2
    4f58:	801a      	strh	r2, [r3, #0]
    4f5a:	4b07      	ldr	r3, [pc, #28]	; (4f78 <_init_chip+0x28>)
    4f5c:	4798      	blx	r3
    4f5e:	4b07      	ldr	r3, [pc, #28]	; (4f7c <_init_chip+0x2c>)
    4f60:	4798      	blx	r3
    4f62:	4b07      	ldr	r3, [pc, #28]	; (4f80 <_init_chip+0x30>)
    4f64:	4798      	blx	r3
    4f66:	4b07      	ldr	r3, [pc, #28]	; (4f84 <_init_chip+0x34>)
    4f68:	4798      	blx	r3
    4f6a:	f640 70ff 	movw	r0, #4095	; 0xfff
    4f6e:	4b06      	ldr	r3, [pc, #24]	; (4f88 <_init_chip+0x38>)
    4f70:	4798      	blx	r3
    4f72:	bd08      	pop	{r3, pc}
    4f74:	41004000 	.word	0x41004000
    4f78:	00005239 	.word	0x00005239
    4f7c:	00005259 	.word	0x00005259
    4f80:	0000522d 	.word	0x0000522d
    4f84:	0000525d 	.word	0x0000525d
    4f88:	000051ed 	.word	0x000051ed

00004f8c <_ext_irq_handler>:
    4f8c:	e92d 41f0 	stmdb	sp!, {r4, r5, r6, r7, r8, lr}
    4f90:	b082      	sub	sp, #8
    4f92:	4b35      	ldr	r3, [pc, #212]	; (5068 <_ext_irq_handler+0xdc>)
    4f94:	695a      	ldr	r2, [r3, #20]
    4f96:	9201      	str	r2, [sp, #4]
    4f98:	9a01      	ldr	r2, [sp, #4]
    4f9a:	615a      	str	r2, [r3, #20]
    4f9c:	4b33      	ldr	r3, [pc, #204]	; (506c <_ext_irq_handler+0xe0>)
    4f9e:	6818      	ldr	r0, [r3, #0]
    4fa0:	3000      	adds	r0, #0
    4fa2:	bf18      	it	ne
    4fa4:	2001      	movne	r0, #1
    4fa6:	4932      	ldr	r1, [pc, #200]	; (5070 <_ext_irq_handler+0xe4>)
    4fa8:	22fc      	movs	r2, #252	; 0xfc
    4faa:	4b32      	ldr	r3, [pc, #200]	; (5074 <_ext_irq_handler+0xe8>)
    4fac:	4798      	blx	r3
    4fae:	9b01      	ldr	r3, [sp, #4]
    4fb0:	2b00      	cmp	r3, #0
    4fb2:	d055      	beq.n	5060 <_ext_irq_handler+0xd4>
    4fb4:	f04f 36ff 	mov.w	r6, #4294967295	; 0xffffffff
    4fb8:	4d2f      	ldr	r5, [pc, #188]	; (5078 <_ext_irq_handler+0xec>)
    4fba:	4f2c      	ldr	r7, [pc, #176]	; (506c <_ext_irq_handler+0xe0>)
    4fbc:	f8df 80a8 	ldr.w	r8, [pc, #168]	; 5068 <_ext_irq_handler+0xdc>
    4fc0:	9b01      	ldr	r3, [sp, #4]
    4fc2:	fa93 f4a3 	rbit	r4, r3
    4fc6:	fab4 f484 	clz	r4, r4
    4fca:	2b00      	cmp	r3, #0
    4fcc:	bf08      	it	eq
    4fce:	24ff      	moveq	r4, #255	; 0xff
    4fd0:	b263      	sxtb	r3, r4
    4fd2:	f1b3 3fff 	cmp.w	r3, #4294967295	; 0xffffffff
    4fd6:	d03a      	beq.n	504e <_ext_irq_handler+0xc2>
    4fd8:	e031      	b.n	503e <_ext_irq_handler+0xb2>
    4fda:	1843      	adds	r3, r0, r1
    4fdc:	f3c3 0347 	ubfx	r3, r3, #1, #8
    4fe0:	469c      	mov	ip, r3
    4fe2:	f815 2033 	ldrb.w	r2, [r5, r3, lsl #3]
    4fe6:	42a2      	cmp	r2, r4
    4fe8:	d107      	bne.n	4ffa <_ext_irq_handler+0x6e>
    4fea:	e001      	b.n	4ff0 <_ext_irq_handler+0x64>
    4fec:	f04f 0c03 	mov.w	ip, #3
    4ff0:	eb05 0ccc 	add.w	ip, r5, ip, lsl #3
    4ff4:	f8dc 6004 	ldr.w	r6, [ip, #4]
    4ff8:	e008      	b.n	500c <_ext_irq_handler+0x80>
    4ffa:	4294      	cmp	r4, r2
    4ffc:	bfc7      	ittee	gt
    4ffe:	3301      	addgt	r3, #1
    5000:	b2d9      	uxtbgt	r1, r3
    5002:	f103 33ff 	addle.w	r3, r3, #4294967295	; 0xffffffff
    5006:	b2d8      	uxtble	r0, r3
    5008:	4281      	cmp	r1, r0
    500a:	d9e6      	bls.n	4fda <_ext_irq_handler+0x4e>
    500c:	f1b6 3fff 	cmp.w	r6, #4294967295	; 0xffffffff
    5010:	d002      	beq.n	5018 <_ext_irq_handler+0x8c>
    5012:	4630      	mov	r0, r6
    5014:	683b      	ldr	r3, [r7, #0]
    5016:	4798      	blx	r3
    5018:	9b01      	ldr	r3, [sp, #4]
    501a:	2201      	movs	r2, #1
    501c:	fa02 f404 	lsl.w	r4, r2, r4
    5020:	ea23 0404 	bic.w	r4, r3, r4
    5024:	9401      	str	r4, [sp, #4]
    5026:	9b01      	ldr	r3, [sp, #4]
    5028:	fa93 f4a3 	rbit	r4, r3
    502c:	fab4 f484 	clz	r4, r4
    5030:	2b00      	cmp	r3, #0
    5032:	bf08      	it	eq
    5034:	24ff      	moveq	r4, #255	; 0xff
    5036:	b263      	sxtb	r3, r4
    5038:	f1b3 3fff 	cmp.w	r3, #4294967295	; 0xffffffff
    503c:	d007      	beq.n	504e <_ext_irq_handler+0xc2>
    503e:	b264      	sxtb	r4, r4
    5040:	2c07      	cmp	r4, #7
    5042:	d0d3      	beq.n	4fec <_ext_irq_handler+0x60>
    5044:	2207      	movs	r2, #7
    5046:	2303      	movs	r3, #3
    5048:	2006      	movs	r0, #6
    504a:	2100      	movs	r1, #0
    504c:	e7d5      	b.n	4ffa <_ext_irq_handler+0x6e>
    504e:	f8d8 3014 	ldr.w	r3, [r8, #20]
    5052:	9301      	str	r3, [sp, #4]
    5054:	9b01      	ldr	r3, [sp, #4]
    5056:	f8c8 3014 	str.w	r3, [r8, #20]
    505a:	9b01      	ldr	r3, [sp, #4]
    505c:	2b00      	cmp	r3, #0
    505e:	d1af      	bne.n	4fc0 <_ext_irq_handler+0x34>
    5060:	b002      	add	sp, #8
    5062:	e8bd 81f0 	ldmia.w	sp!, {r4, r5, r6, r7, r8, pc}
    5066:	bf00      	nop
    5068:	40002800 	.word	0x40002800
    506c:	20000a74 	.word	0x20000a74
    5070:	00011154 	.word	0x00011154
    5074:	00004cf9 	.word	0x00004cf9
    5078:	00011124 	.word	0x00011124

0000507c <_ext_irq_init>:
    507c:	4b46      	ldr	r3, [pc, #280]	; (5198 <_ext_irq_init+0x11c>)
    507e:	685b      	ldr	r3, [r3, #4]
    5080:	f013 0f01 	tst.w	r3, #1
    5084:	d120      	bne.n	50c8 <_ext_irq_init+0x4c>
    5086:	4a44      	ldr	r2, [pc, #272]	; (5198 <_ext_irq_init+0x11c>)
    5088:	6853      	ldr	r3, [r2, #4]
    508a:	f013 0f03 	tst.w	r3, #3
    508e:	d1fb      	bne.n	5088 <_ext_irq_init+0xc>
    5090:	4b41      	ldr	r3, [pc, #260]	; (5198 <_ext_irq_init+0x11c>)
    5092:	781b      	ldrb	r3, [r3, #0]
    5094:	f013 0f02 	tst.w	r3, #2
    5098:	d00e      	beq.n	50b8 <_ext_irq_init+0x3c>
    509a:	4b3f      	ldr	r3, [pc, #252]	; (5198 <_ext_irq_init+0x11c>)
    509c:	781a      	ldrb	r2, [r3, #0]
    509e:	f002 02fd 	and.w	r2, r2, #253	; 0xfd
    50a2:	701a      	strb	r2, [r3, #0]
    50a4:	461a      	mov	r2, r3
    50a6:	6853      	ldr	r3, [r2, #4]
    50a8:	f013 0f03 	tst.w	r3, #3
    50ac:	d1fb      	bne.n	50a6 <_ext_irq_init+0x2a>
    50ae:	4a3a      	ldr	r2, [pc, #232]	; (5198 <_ext_irq_init+0x11c>)
    50b0:	6853      	ldr	r3, [r2, #4]
    50b2:	f013 0f02 	tst.w	r3, #2
    50b6:	d1fb      	bne.n	50b0 <_ext_irq_init+0x34>
    50b8:	2201      	movs	r2, #1
    50ba:	4b37      	ldr	r3, [pc, #220]	; (5198 <_ext_irq_init+0x11c>)
    50bc:	701a      	strb	r2, [r3, #0]
    50be:	461a      	mov	r2, r3
    50c0:	6853      	ldr	r3, [r2, #4]
    50c2:	f013 0f03 	tst.w	r3, #3
    50c6:	d1fb      	bne.n	50c0 <_ext_irq_init+0x44>
    50c8:	4a33      	ldr	r2, [pc, #204]	; (5198 <_ext_irq_init+0x11c>)
    50ca:	6853      	ldr	r3, [r2, #4]
    50cc:	f013 0f01 	tst.w	r3, #1
    50d0:	d1fb      	bne.n	50ca <_ext_irq_init+0x4e>
    50d2:	4b31      	ldr	r3, [pc, #196]	; (5198 <_ext_irq_init+0x11c>)
    50d4:	781a      	ldrb	r2, [r3, #0]
    50d6:	f002 02ef 	and.w	r2, r2, #239	; 0xef
    50da:	701a      	strb	r2, [r3, #0]
    50dc:	461a      	mov	r2, r3
    50de:	6853      	ldr	r3, [r2, #4]
    50e0:	f013 0f03 	tst.w	r3, #3
    50e4:	d1fb      	bne.n	50de <_ext_irq_init+0x62>
    50e6:	4b2c      	ldr	r3, [pc, #176]	; (5198 <_ext_irq_init+0x11c>)
    50e8:	2200      	movs	r2, #0
    50ea:	705a      	strb	r2, [r3, #1]
    50ec:	609a      	str	r2, [r3, #8]
    50ee:	619a      	str	r2, [r3, #24]
    50f0:	631a      	str	r2, [r3, #48]	; 0x30
    50f2:	635a      	str	r2, [r3, #52]	; 0x34
    50f4:	61da      	str	r2, [r3, #28]
    50f6:	621a      	str	r2, [r3, #32]
    50f8:	781a      	ldrb	r2, [r3, #0]
    50fa:	f042 0202 	orr.w	r2, r2, #2
    50fe:	701a      	strb	r2, [r3, #0]
    5100:	461a      	mov	r2, r3
    5102:	6853      	ldr	r3, [r2, #4]
    5104:	f013 0f03 	tst.w	r3, #3
    5108:	d1fb      	bne.n	5102 <_ext_irq_init+0x86>
    510a:	4b24      	ldr	r3, [pc, #144]	; (519c <_ext_irq_init+0x120>)
    510c:	f44f 5280 	mov.w	r2, #4096	; 0x1000
    5110:	f8c3 2080 	str.w	r2, [r3, #128]	; 0x80
    5114:	f3bf 8f4f 	dsb	sy
    5118:	f3bf 8f6f 	isb	sy
    511c:	f8c3 2180 	str.w	r2, [r3, #384]	; 0x180
    5120:	601a      	str	r2, [r3, #0]
    5122:	f44f 5200 	mov.w	r2, #8192	; 0x2000
    5126:	f8c3 2080 	str.w	r2, [r3, #128]	; 0x80
    512a:	f3bf 8f4f 	dsb	sy
    512e:	f3bf 8f6f 	isb	sy
    5132:	f8c3 2180 	str.w	r2, [r3, #384]	; 0x180
    5136:	601a      	str	r2, [r3, #0]
    5138:	f44f 2280 	mov.w	r2, #262144	; 0x40000
    513c:	f8c3 2080 	str.w	r2, [r3, #128]	; 0x80
    5140:	f3bf 8f4f 	dsb	sy
    5144:	f3bf 8f6f 	isb	sy
    5148:	f8c3 2180 	str.w	r2, [r3, #384]	; 0x180
    514c:	601a      	str	r2, [r3, #0]
    514e:	f44f 2200 	mov.w	r2, #524288	; 0x80000
    5152:	f8c3 2080 	str.w	r2, [r3, #128]	; 0x80
    5156:	f3bf 8f4f 	dsb	sy
    515a:	f3bf 8f6f 	isb	sy
    515e:	f8c3 2180 	str.w	r2, [r3, #384]	; 0x180
    5162:	601a      	str	r2, [r3, #0]
    5164:	f44f 0200 	mov.w	r2, #8388608	; 0x800000
    5168:	f8c3 2080 	str.w	r2, [r3, #128]	; 0x80
    516c:	f3bf 8f4f 	dsb	sy
    5170:	f3bf 8f6f 	isb	sy
    5174:	f8c3 2180 	str.w	r2, [r3, #384]	; 0x180
    5178:	601a      	str	r2, [r3, #0]
    517a:	f04f 6280 	mov.w	r2, #67108864	; 0x4000000
    517e:	f8c3 2080 	str.w	r2, [r3, #128]	; 0x80
    5182:	f3bf 8f4f 	dsb	sy
    5186:	f3bf 8f6f 	isb	sy
    518a:	f8c3 2180 	str.w	r2, [r3, #384]	; 0x180
    518e:	601a      	str	r2, [r3, #0]
    5190:	4b03      	ldr	r3, [pc, #12]	; (51a0 <_ext_irq_init+0x124>)
    5192:	6018      	str	r0, [r3, #0]
    5194:	2000      	movs	r0, #0
    5196:	4770      	bx	lr
    5198:	40002800 	.word	0x40002800
    519c:	e000e100 	.word	0xe000e100
    51a0:	20000a74 	.word	0x20000a74

000051a4 <EIC_0_Handler>:
    51a4:	b508      	push	{r3, lr}
    51a6:	4b01      	ldr	r3, [pc, #4]	; (51ac <EIC_0_Handler+0x8>)
    51a8:	4798      	blx	r3
    51aa:	bd08      	pop	{r3, pc}
    51ac:	00004f8d 	.word	0x00004f8d

000051b0 <EIC_1_Handler>:
    51b0:	b508      	push	{r3, lr}
    51b2:	4b01      	ldr	r3, [pc, #4]	; (51b8 <EIC_1_Handler+0x8>)
    51b4:	4798      	blx	r3
    51b6:	bd08      	pop	{r3, pc}
    51b8:	00004f8d 	.word	0x00004f8d

000051bc <EIC_6_Handler>:
    51bc:	b508      	push	{r3, lr}
    51be:	4b01      	ldr	r3, [pc, #4]	; (51c4 <EIC_6_Handler+0x8>)
    51c0:	4798      	blx	r3
    51c2:	bd08      	pop	{r3, pc}
    51c4:	00004f8d 	.word	0x00004f8d

000051c8 <EIC_7_Handler>:
    51c8:	b508      	push	{r3, lr}
    51ca:	4b01      	ldr	r3, [pc, #4]	; (51d0 <EIC_7_Handler+0x8>)
    51cc:	4798      	blx	r3
    51ce:	bd08      	pop	{r3, pc}
    51d0:	00004f8d 	.word	0x00004f8d

000051d4 <EIC_11_Handler>:
    51d4:	b508      	push	{r3, lr}
    51d6:	4b01      	ldr	r3, [pc, #4]	; (51dc <EIC_11_Handler+0x8>)
    51d8:	4798      	blx	r3
    51da:	bd08      	pop	{r3, pc}
    51dc:	00004f8d 	.word	0x00004f8d

000051e0 <EIC_14_Handler>:
    51e0:	b508      	push	{r3, lr}
    51e2:	4b01      	ldr	r3, [pc, #4]	; (51e8 <EIC_14_Handler+0x8>)
    51e4:	4798      	blx	r3
    51e6:	bd08      	pop	{r3, pc}
    51e8:	00004f8d 	.word	0x00004f8d

000051ec <_gclk_init_generators_by_fref>:
    51ec:	f010 0f01 	tst.w	r0, #1
    51f0:	d008      	beq.n	5204 <_gclk_init_generators_by_fref+0x18>
    51f2:	4a0b      	ldr	r2, [pc, #44]	; (5220 <_gclk_init_generators_by_fref+0x34>)
    51f4:	4b0b      	ldr	r3, [pc, #44]	; (5224 <_gclk_init_generators_by_fref+0x38>)
    51f6:	621a      	str	r2, [r3, #32]
    51f8:	4619      	mov	r1, r3
    51fa:	f643 72fd 	movw	r2, #16381	; 0x3ffd
    51fe:	684b      	ldr	r3, [r1, #4]
    5200:	4213      	tst	r3, r2
    5202:	d1fc      	bne.n	51fe <_gclk_init_generators_by_fref+0x12>
    5204:	f010 0f02 	tst.w	r0, #2
    5208:	d008      	beq.n	521c <_gclk_init_generators_by_fref+0x30>
    520a:	4a07      	ldr	r2, [pc, #28]	; (5228 <_gclk_init_generators_by_fref+0x3c>)
    520c:	4b05      	ldr	r3, [pc, #20]	; (5224 <_gclk_init_generators_by_fref+0x38>)
    520e:	625a      	str	r2, [r3, #36]	; 0x24
    5210:	4619      	mov	r1, r3
    5212:	f643 72fd 	movw	r2, #16381	; 0x3ffd
    5216:	684b      	ldr	r3, [r1, #4]
    5218:	4213      	tst	r3, r2
    521a:	d1fc      	bne.n	5216 <_gclk_init_generators_by_fref+0x2a>
    521c:	4770      	bx	lr
    521e:	bf00      	nop
    5220:	00010106 	.word	0x00010106
    5224:	40001c00 	.word	0x40001c00
    5228:	00010105 	.word	0x00010105

0000522c <_mclk_init>:
    522c:	2201      	movs	r2, #1
    522e:	4b01      	ldr	r3, [pc, #4]	; (5234 <_mclk_init+0x8>)
    5230:	715a      	strb	r2, [r3, #5]
    5232:	4770      	bx	lr
    5234:	40000800 	.word	0x40000800

00005238 <_osc32kctrl_init_sources>:
    5238:	4b06      	ldr	r3, [pc, #24]	; (5254 <_osc32kctrl_init_sources+0x1c>)
    523a:	f242 0286 	movw	r2, #8326	; 0x2086
    523e:	829a      	strh	r2, [r3, #20]
    5240:	2200      	movs	r2, #0
    5242:	759a      	strb	r2, [r3, #22]
    5244:	75da      	strb	r2, [r3, #23]
    5246:	69da      	ldr	r2, [r3, #28]
    5248:	f402 527c 	and.w	r2, r2, #16128	; 0x3f00
    524c:	61da      	str	r2, [r3, #28]
    524e:	2205      	movs	r2, #5
    5250:	741a      	strb	r2, [r3, #16]
    5252:	4770      	bx	lr
    5254:	40001400 	.word	0x40001400

00005258 <_oscctrl_init_sources>:
    5258:	4770      	bx	lr
    525a:	bf00      	nop

0000525c <_oscctrl_init_referenced_generators>:
    525c:	4b36      	ldr	r3, [pc, #216]	; (5338 <_oscctrl_init_referenced_generators+0xdc>)
    525e:	6a1a      	ldr	r2, [r3, #32]
    5260:	f022 020f 	bic.w	r2, r2, #15
    5264:	f042 0204 	orr.w	r2, r2, #4
    5268:	621a      	str	r2, [r3, #32]
    526a:	4619      	mov	r1, r3
    526c:	f643 72fd 	movw	r2, #16381	; 0x3ffd
    5270:	684b      	ldr	r3, [r1, #4]
    5272:	4213      	tst	r3, r2
    5274:	d1fc      	bne.n	5270 <_oscctrl_init_referenced_generators+0x14>
    5276:	4a30      	ldr	r2, [pc, #192]	; (5338 <_oscctrl_init_referenced_generators+0xdc>)
    5278:	6853      	ldr	r3, [r2, #4]
    527a:	f013 0f04 	tst.w	r3, #4
    527e:	d1fb      	bne.n	5278 <_oscctrl_init_referenced_generators+0x1c>
    5280:	4b2e      	ldr	r3, [pc, #184]	; (533c <_oscctrl_init_referenced_generators+0xe0>)
    5282:	2200      	movs	r2, #0
    5284:	771a      	strb	r2, [r3, #28]
    5286:	4a2e      	ldr	r2, [pc, #184]	; (5340 <_oscctrl_init_referenced_generators+0xe4>)
    5288:	629a      	str	r2, [r3, #40]	; 0x28
    528a:	461a      	mov	r2, r3
    528c:	f892 302c 	ldrb.w	r3, [r2, #44]	; 0x2c
    5290:	f013 0f10 	tst.w	r3, #16
    5294:	d1fa      	bne.n	528c <_oscctrl_init_referenced_generators+0x30>
    5296:	2200      	movs	r2, #0
    5298:	4b28      	ldr	r3, [pc, #160]	; (533c <_oscctrl_init_referenced_generators+0xe0>)
    529a:	f883 2020 	strb.w	r2, [r3, #32]
    529e:	461a      	mov	r2, r3
    52a0:	f892 302c 	ldrb.w	r3, [r2, #44]	; 0x2c
    52a4:	f013 0f04 	tst.w	r3, #4
    52a8:	d1fa      	bne.n	52a0 <_oscctrl_init_referenced_generators+0x44>
    52aa:	2202      	movs	r2, #2
    52ac:	4b23      	ldr	r3, [pc, #140]	; (533c <_oscctrl_init_referenced_generators+0xe0>)
    52ae:	771a      	strb	r2, [r3, #28]
    52b0:	461a      	mov	r2, r3
    52b2:	f892 302c 	ldrb.w	r3, [r2, #44]	; 0x2c
    52b6:	f013 0f02 	tst.w	r3, #2
    52ba:	d1fa      	bne.n	52b2 <_oscctrl_init_referenced_generators+0x56>
    52bc:	4b1f      	ldr	r3, [pc, #124]	; (533c <_oscctrl_init_referenced_generators+0xe0>)
    52be:	6a5a      	ldr	r2, [r3, #36]	; 0x24
    52c0:	625a      	str	r2, [r3, #36]	; 0x24
    52c2:	461a      	mov	r2, r3
    52c4:	f892 302c 	ldrb.w	r3, [r2, #44]	; 0x2c
    52c8:	f013 0f08 	tst.w	r3, #8
    52cc:	d1fa      	bne.n	52c4 <_oscctrl_init_referenced_generators+0x68>
    52ce:	2280      	movs	r2, #128	; 0x80
    52d0:	4b1a      	ldr	r3, [pc, #104]	; (533c <_oscctrl_init_referenced_generators+0xe0>)
    52d2:	f883 2020 	strb.w	r2, [r3, #32]
    52d6:	461a      	mov	r2, r3
    52d8:	f892 302c 	ldrb.w	r3, [r2, #44]	; 0x2c
    52dc:	f013 0f04 	tst.w	r3, #4
    52e0:	d1fa      	bne.n	52d8 <_oscctrl_init_referenced_generators+0x7c>
    52e2:	4b16      	ldr	r3, [pc, #88]	; (533c <_oscctrl_init_referenced_generators+0xe0>)
    52e4:	f893 3020 	ldrb.w	r3, [r3, #32]
    52e8:	f013 0f01 	tst.w	r3, #1
    52ec:	d008      	beq.n	5300 <_oscctrl_init_referenced_generators+0xa4>
    52ee:	4a13      	ldr	r2, [pc, #76]	; (533c <_oscctrl_init_referenced_generators+0xe0>)
    52f0:	6913      	ldr	r3, [r2, #16]
    52f2:	f403 6310 	and.w	r3, r3, #2304	; 0x900
    52f6:	f5b3 6f10 	cmp.w	r3, #2304	; 0x900
    52fa:	d1f9      	bne.n	52f0 <_oscctrl_init_referenced_generators+0x94>
    52fc:	4a0e      	ldr	r2, [pc, #56]	; (5338 <_oscctrl_init_referenced_generators+0xdc>)
    52fe:	e005      	b.n	530c <_oscctrl_init_referenced_generators+0xb0>
    5300:	4a0e      	ldr	r2, [pc, #56]	; (533c <_oscctrl_init_referenced_generators+0xe0>)
    5302:	6913      	ldr	r3, [r2, #16]
    5304:	f413 7f80 	tst.w	r3, #256	; 0x100
    5308:	d0fb      	beq.n	5302 <_oscctrl_init_referenced_generators+0xa6>
    530a:	e7f7      	b.n	52fc <_oscctrl_init_referenced_generators+0xa0>
    530c:	6853      	ldr	r3, [r2, #4]
    530e:	2b00      	cmp	r3, #0
    5310:	d1fc      	bne.n	530c <_oscctrl_init_referenced_generators+0xb0>
    5312:	4b09      	ldr	r3, [pc, #36]	; (5338 <_oscctrl_init_referenced_generators+0xdc>)
    5314:	6a1a      	ldr	r2, [r3, #32]
    5316:	f022 020f 	bic.w	r2, r2, #15
    531a:	f042 0206 	orr.w	r2, r2, #6
    531e:	621a      	str	r2, [r3, #32]
    5320:	4619      	mov	r1, r3
    5322:	f643 72fd 	movw	r2, #16381	; 0x3ffd
    5326:	684b      	ldr	r3, [r1, #4]
    5328:	4213      	tst	r3, r2
    532a:	d1fc      	bne.n	5326 <_oscctrl_init_referenced_generators+0xca>
    532c:	4a02      	ldr	r2, [pc, #8]	; (5338 <_oscctrl_init_referenced_generators+0xdc>)
    532e:	6853      	ldr	r3, [r2, #4]
    5330:	f013 0f04 	tst.w	r3, #4
    5334:	d1fb      	bne.n	532e <_oscctrl_init_referenced_generators+0xd2>
    5336:	4770      	bx	lr
    5338:	40001c00 	.word	0x40001c00
    533c:	40001000 	.word	0x40001000
    5340:	04010000 	.word	0x04010000

00005344 <RAMECC_Handler>:
    5344:	b500      	push	{lr}
    5346:	b083      	sub	sp, #12
    5348:	4b0d      	ldr	r3, [pc, #52]	; (5380 <RAMECC_Handler+0x3c>)
    534a:	789b      	ldrb	r3, [r3, #2]
    534c:	b2db      	uxtb	r3, r3
    534e:	9301      	str	r3, [sp, #4]
    5350:	9b01      	ldr	r3, [sp, #4]
    5352:	f013 0f02 	tst.w	r3, #2
    5356:	d006      	beq.n	5366 <RAMECC_Handler+0x22>
    5358:	4b0a      	ldr	r3, [pc, #40]	; (5384 <RAMECC_Handler+0x40>)
    535a:	681b      	ldr	r3, [r3, #0]
    535c:	b11b      	cbz	r3, 5366 <RAMECC_Handler+0x22>
    535e:	4a08      	ldr	r2, [pc, #32]	; (5380 <RAMECC_Handler+0x3c>)
    5360:	6850      	ldr	r0, [r2, #4]
    5362:	4798      	blx	r3
    5364:	e009      	b.n	537a <RAMECC_Handler+0x36>
    5366:	9b01      	ldr	r3, [sp, #4]
    5368:	f013 0f01 	tst.w	r3, #1
    536c:	d005      	beq.n	537a <RAMECC_Handler+0x36>
    536e:	4b05      	ldr	r3, [pc, #20]	; (5384 <RAMECC_Handler+0x40>)
    5370:	685b      	ldr	r3, [r3, #4]
    5372:	b113      	cbz	r3, 537a <RAMECC_Handler+0x36>
    5374:	4a02      	ldr	r2, [pc, #8]	; (5380 <RAMECC_Handler+0x3c>)
    5376:	6850      	ldr	r0, [r2, #4]
    5378:	4798      	blx	r3
    537a:	b003      	add	sp, #12
    537c:	f85d fb04 	ldr.w	pc, [sp], #4
    5380:	41020000 	.word	0x41020000
    5384:	20000e2c 	.word	0x20000e2c

00005388 <_mci_sync_init>:
    5388:	b538      	push	{r3, r4, r5, lr}
    538a:	460c      	mov	r4, r1
    538c:	4605      	mov	r5, r0
    538e:	b118      	cbz	r0, 5398 <_mci_sync_init+0x10>
    5390:	1c08      	adds	r0, r1, #0
    5392:	bf18      	it	ne
    5394:	2001      	movne	r0, #1
    5396:	e000      	b.n	539a <_mci_sync_init+0x12>
    5398:	2000      	movs	r0, #0
    539a:	4913      	ldr	r1, [pc, #76]	; (53e8 <_mci_sync_init+0x60>)
    539c:	22d8      	movs	r2, #216	; 0xd8
    539e:	4b13      	ldr	r3, [pc, #76]	; (53ec <_mci_sync_init+0x64>)
    53a0:	4798      	blx	r3
    53a2:	602c      	str	r4, [r5, #0]
    53a4:	f894 302f 	ldrb.w	r3, [r4, #47]	; 0x2f
    53a8:	f043 0301 	orr.w	r3, r3, #1
    53ac:	f884 302f 	strb.w	r3, [r4, #47]	; 0x2f
    53b0:	f894 302f 	ldrb.w	r3, [r4, #47]	; 0x2f
    53b4:	f013 0f01 	tst.w	r3, #1
    53b8:	d1fa      	bne.n	53b0 <_mci_sync_init+0x28>
    53ba:	230e      	movs	r3, #14
    53bc:	f884 302e 	strb.w	r3, [r4, #46]	; 0x2e
    53c0:	230f      	movs	r3, #15
    53c2:	f884 3029 	strb.w	r3, [r4, #41]	; 0x29
    53c6:	8ea3      	ldrh	r3, [r4, #52]	; 0x34
    53c8:	b29b      	uxth	r3, r3
    53ca:	ea6f 2353 	mvn.w	r3, r3, lsr #9
    53ce:	ea6f 2343 	mvn.w	r3, r3, lsl #9
    53d2:	86a3      	strh	r3, [r4, #52]	; 0x34
    53d4:	8ee3      	ldrh	r3, [r4, #54]	; 0x36
    53d6:	b29b      	uxth	r3, r3
    53d8:	ea6f 2393 	mvn.w	r3, r3, lsr #10
    53dc:	ea6f 2383 	mvn.w	r3, r3, lsl #10
    53e0:	86e3      	strh	r3, [r4, #54]	; 0x36
    53e2:	2000      	movs	r0, #0
    53e4:	bd38      	pop	{r3, r4, r5, pc}
    53e6:	bf00      	nop
    53e8:	00011174 	.word	0x00011174
    53ec:	00004cf9 	.word	0x00004cf9

000053f0 <_sercom_get_hardware_index>:
    53f0:	b470      	push	{r4, r5, r6}
    53f2:	b087      	sub	sp, #28
    53f4:	4606      	mov	r6, r0
    53f6:	466c      	mov	r4, sp
    53f8:	4d0d      	ldr	r5, [pc, #52]	; (5430 <_sercom_get_hardware_index+0x40>)
    53fa:	cd0f      	ldmia	r5!, {r0, r1, r2, r3}
    53fc:	c40f      	stmia	r4!, {r0, r1, r2, r3}
    53fe:	e895 0003 	ldmia.w	r5, {r0, r1}
    5402:	e884 0003 	stmia.w	r4, {r0, r1}
    5406:	4631      	mov	r1, r6
    5408:	9b00      	ldr	r3, [sp, #0]
    540a:	42b3      	cmp	r3, r6
    540c:	d006      	beq.n	541c <_sercom_get_hardware_index+0x2c>
    540e:	466b      	mov	r3, sp
    5410:	2001      	movs	r0, #1
    5412:	f853 2f04 	ldr.w	r2, [r3, #4]!
    5416:	428a      	cmp	r2, r1
    5418:	d103      	bne.n	5422 <_sercom_get_hardware_index+0x32>
    541a:	e000      	b.n	541e <_sercom_get_hardware_index+0x2e>
    541c:	2000      	movs	r0, #0
    541e:	b2c0      	uxtb	r0, r0
    5420:	e003      	b.n	542a <_sercom_get_hardware_index+0x3a>
    5422:	3001      	adds	r0, #1
    5424:	2806      	cmp	r0, #6
    5426:	d1f4      	bne.n	5412 <_sercom_get_hardware_index+0x22>
    5428:	2000      	movs	r0, #0
    542a:	b007      	add	sp, #28
    542c:	bc70      	pop	{r4, r5, r6}
    542e:	4770      	bx	lr
    5430:	00011198 	.word	0x00011198

00005434 <_spi_sync_enable>:
    5434:	69c3      	ldr	r3, [r0, #28]
    5436:	f013 0f01 	tst.w	r3, #1
    543a:	d108      	bne.n	544e <_spi_sync_enable+0x1a>
    543c:	6803      	ldr	r3, [r0, #0]
    543e:	f043 0302 	orr.w	r3, r3, #2
    5442:	6003      	str	r3, [r0, #0]
    5444:	69c3      	ldr	r3, [r0, #28]
    5446:	f013 0f03 	tst.w	r3, #3
    544a:	d1fb      	bne.n	5444 <_spi_sync_enable+0x10>
    544c:	e002      	b.n	5454 <_spi_sync_enable+0x20>
    544e:	f06f 0003 	mvn.w	r0, #3
    5452:	4770      	bx	lr
    5454:	2000      	movs	r0, #0
    5456:	4770      	bx	lr

00005458 <_spi_sync_disable>:
    5458:	69c3      	ldr	r3, [r0, #28]
    545a:	f013 0f01 	tst.w	r3, #1
    545e:	d108      	bne.n	5472 <_spi_sync_disable+0x1a>
    5460:	6803      	ldr	r3, [r0, #0]
    5462:	f023 0302 	bic.w	r3, r3, #2
    5466:	6003      	str	r3, [r0, #0]
    5468:	69c3      	ldr	r3, [r0, #28]
    546a:	f013 0f03 	tst.w	r3, #3
    546e:	d1fb      	bne.n	5468 <_spi_sync_disable+0x10>
    5470:	e002      	b.n	5478 <_spi_sync_disable+0x20>
    5472:	f06f 0003 	mvn.w	r0, #3
    5476:	4770      	bx	lr
    5478:	2000      	movs	r0, #0
    547a:	4770      	bx	lr

0000547c <_spi_set_mode>:
    547c:	69c3      	ldr	r3, [r0, #28]
    547e:	f013 0f03 	tst.w	r3, #3
    5482:	d110      	bne.n	54a6 <_spi_set_mode+0x2a>
    5484:	69c3      	ldr	r3, [r0, #28]
    5486:	f013 0f03 	tst.w	r3, #3
    548a:	d1fb      	bne.n	5484 <_spi_set_mode+0x8>
    548c:	6803      	ldr	r3, [r0, #0]
    548e:	f023 5340 	bic.w	r3, r3, #805306368	; 0x30000000
    5492:	f001 0103 	and.w	r1, r1, #3
    5496:	ea43 7101 	orr.w	r1, r3, r1, lsl #28
    549a:	6001      	str	r1, [r0, #0]
    549c:	69c3      	ldr	r3, [r0, #28]
    549e:	f013 0f03 	tst.w	r3, #3
    54a2:	d1fb      	bne.n	549c <_spi_set_mode+0x20>
    54a4:	e002      	b.n	54ac <_spi_set_mode+0x30>
    54a6:	f06f 0003 	mvn.w	r0, #3
    54aa:	4770      	bx	lr
    54ac:	2000      	movs	r0, #0
    54ae:	4770      	bx	lr

000054b0 <_usart_init>:
    54b0:	b510      	push	{r4, lr}
    54b2:	4604      	mov	r4, r0
    54b4:	4b21      	ldr	r3, [pc, #132]	; (553c <_usart_init+0x8c>)
    54b6:	4798      	blx	r3
    54b8:	2802      	cmp	r0, #2
    54ba:	d138      	bne.n	552e <_usart_init+0x7e>
    54bc:	69e3      	ldr	r3, [r4, #28]
    54be:	f013 0f01 	tst.w	r3, #1
    54c2:	d119      	bne.n	54f8 <_usart_init+0x48>
    54c4:	69e3      	ldr	r3, [r4, #28]
    54c6:	f013 0f03 	tst.w	r3, #3
    54ca:	d1fb      	bne.n	54c4 <_usart_init+0x14>
    54cc:	6823      	ldr	r3, [r4, #0]
    54ce:	f013 0f02 	tst.w	r3, #2
    54d2:	d00b      	beq.n	54ec <_usart_init+0x3c>
    54d4:	6823      	ldr	r3, [r4, #0]
    54d6:	f023 0302 	bic.w	r3, r3, #2
    54da:	6023      	str	r3, [r4, #0]
    54dc:	69e3      	ldr	r3, [r4, #28]
    54de:	f013 0f03 	tst.w	r3, #3
    54e2:	d1fb      	bne.n	54dc <_usart_init+0x2c>
    54e4:	69e3      	ldr	r3, [r4, #28]
    54e6:	f013 0f02 	tst.w	r3, #2
    54ea:	d1fb      	bne.n	54e4 <_usart_init+0x34>
    54ec:	2305      	movs	r3, #5
    54ee:	6023      	str	r3, [r4, #0]
    54f0:	69e3      	ldr	r3, [r4, #28]
    54f2:	f013 0f03 	tst.w	r3, #3
    54f6:	d1fb      	bne.n	54f0 <_usart_init+0x40>
    54f8:	69e3      	ldr	r3, [r4, #28]
    54fa:	f013 0f01 	tst.w	r3, #1
    54fe:	d1fb      	bne.n	54f8 <_usart_init+0x48>
    5500:	4b0f      	ldr	r3, [pc, #60]	; (5540 <_usart_init+0x90>)
    5502:	6023      	str	r3, [r4, #0]
    5504:	69e3      	ldr	r3, [r4, #28]
    5506:	f013 0f03 	tst.w	r3, #3
    550a:	d1fb      	bne.n	5504 <_usart_init+0x54>
    550c:	f44f 3340 	mov.w	r3, #196608	; 0x30000
    5510:	6063      	str	r3, [r4, #4]
    5512:	69e3      	ldr	r3, [r4, #28]
    5514:	f013 0f1f 	tst.w	r3, #31
    5518:	d1fb      	bne.n	5512 <_usart_init+0x62>
    551a:	4b0a      	ldr	r3, [pc, #40]	; (5544 <_usart_init+0x94>)
    551c:	60a3      	str	r3, [r4, #8]
    551e:	f64f 732e 	movw	r3, #65326	; 0xff2e
    5522:	81a3      	strh	r3, [r4, #12]
    5524:	2000      	movs	r0, #0
    5526:	73a0      	strb	r0, [r4, #14]
    5528:	f884 0030 	strb.w	r0, [r4, #48]	; 0x30
    552c:	bd10      	pop	{r4, pc}
    552e:	2000      	movs	r0, #0
    5530:	4905      	ldr	r1, [pc, #20]	; (5548 <_usart_init+0x98>)
    5532:	f240 2247 	movw	r2, #583	; 0x247
    5536:	4b05      	ldr	r3, [pc, #20]	; (554c <_usart_init+0x9c>)
    5538:	4798      	blx	r3
    553a:	e7bf      	b.n	54bc <_usart_init+0xc>
    553c:	000053f1 	.word	0x000053f1
    5540:	40100004 	.word	0x40100004
    5544:	00700002 	.word	0x00700002
    5548:	000111ec 	.word	0x000111ec
    554c:	00004cf9 	.word	0x00004cf9

00005550 <_get_i2cm_index>:
    5550:	b508      	push	{r3, lr}
    5552:	4b07      	ldr	r3, [pc, #28]	; (5570 <_get_i2cm_index+0x20>)
    5554:	4798      	blx	r3
    5556:	2805      	cmp	r0, #5
    5558:	d102      	bne.n	5560 <_get_i2cm_index+0x10>
    555a:	2000      	movs	r0, #0
    555c:	b240      	sxtb	r0, r0
    555e:	bd08      	pop	{r3, pc}
    5560:	2000      	movs	r0, #0
    5562:	4904      	ldr	r1, [pc, #16]	; (5574 <_get_i2cm_index+0x24>)
    5564:	f240 32a6 	movw	r2, #934	; 0x3a6
    5568:	4b03      	ldr	r3, [pc, #12]	; (5578 <_get_i2cm_index+0x28>)
    556a:	4798      	blx	r3
    556c:	20ff      	movs	r0, #255	; 0xff
    556e:	e7f5      	b.n	555c <_get_i2cm_index+0xc>
    5570:	000053f1 	.word	0x000053f1
    5574:	000111ec 	.word	0x000111ec
    5578:	00004cf9 	.word	0x00004cf9

0000557c <_i2c_m_sync_init_impl>:
    557c:	b538      	push	{r3, r4, r5, lr}
    557e:	4605      	mov	r5, r0
    5580:	460c      	mov	r4, r1
    5582:	4608      	mov	r0, r1
    5584:	4b32      	ldr	r3, [pc, #200]	; (5650 <_i2c_m_sync_init_impl+0xd4>)
    5586:	4798      	blx	r3
    5588:	b2c0      	uxtb	r0, r0
    558a:	69e3      	ldr	r3, [r4, #28]
    558c:	f013 0f01 	tst.w	r3, #1
    5590:	d122      	bne.n	55d8 <_i2c_m_sync_init_impl+0x5c>
    5592:	eb00 0340 	add.w	r3, r0, r0, lsl #1
    5596:	4a2f      	ldr	r2, [pc, #188]	; (5654 <_i2c_m_sync_init_impl+0xd8>)
    5598:	eb02 03c3 	add.w	r3, r2, r3, lsl #3
    559c:	685a      	ldr	r2, [r3, #4]
    559e:	f002 021c 	and.w	r2, r2, #28
    55a2:	69e3      	ldr	r3, [r4, #28]
    55a4:	f013 0f03 	tst.w	r3, #3
    55a8:	d1fb      	bne.n	55a2 <_i2c_m_sync_init_impl+0x26>
    55aa:	6823      	ldr	r3, [r4, #0]
    55ac:	f013 0f02 	tst.w	r3, #2
    55b0:	d00b      	beq.n	55ca <_i2c_m_sync_init_impl+0x4e>
    55b2:	6823      	ldr	r3, [r4, #0]
    55b4:	f023 0302 	bic.w	r3, r3, #2
    55b8:	6023      	str	r3, [r4, #0]
    55ba:	69e3      	ldr	r3, [r4, #28]
    55bc:	f013 0f03 	tst.w	r3, #3
    55c0:	d1fb      	bne.n	55ba <_i2c_m_sync_init_impl+0x3e>
    55c2:	69e3      	ldr	r3, [r4, #28]
    55c4:	f013 0f02 	tst.w	r3, #2
    55c8:	d1fb      	bne.n	55c2 <_i2c_m_sync_init_impl+0x46>
    55ca:	f042 0301 	orr.w	r3, r2, #1
    55ce:	6023      	str	r3, [r4, #0]
    55d0:	69e3      	ldr	r3, [r4, #28]
    55d2:	f013 0f03 	tst.w	r3, #3
    55d6:	d1fb      	bne.n	55d0 <_i2c_m_sync_init_impl+0x54>
    55d8:	69e3      	ldr	r3, [r4, #28]
    55da:	f013 0f01 	tst.w	r3, #1
    55de:	d1fb      	bne.n	55d8 <_i2c_m_sync_init_impl+0x5c>
    55e0:	eb00 0340 	add.w	r3, r0, r0, lsl #1
    55e4:	4a1b      	ldr	r2, [pc, #108]	; (5654 <_i2c_m_sync_init_impl+0xd8>)
    55e6:	eb02 03c3 	add.w	r3, r2, r3, lsl #3
    55ea:	685a      	ldr	r2, [r3, #4]
    55ec:	6022      	str	r2, [r4, #0]
    55ee:	69e3      	ldr	r3, [r4, #28]
    55f0:	f013 0f03 	tst.w	r3, #3
    55f4:	d1fb      	bne.n	55ee <_i2c_m_sync_init_impl+0x72>
    55f6:	eb00 0340 	add.w	r3, r0, r0, lsl #1
    55fa:	4916      	ldr	r1, [pc, #88]	; (5654 <_i2c_m_sync_init_impl+0xd8>)
    55fc:	eb01 03c3 	add.w	r3, r1, r3, lsl #3
    5600:	689b      	ldr	r3, [r3, #8]
    5602:	6063      	str	r3, [r4, #4]
    5604:	69e3      	ldr	r3, [r4, #28]
    5606:	f013 0f17 	tst.w	r3, #23
    560a:	d1fb      	bne.n	5604 <_i2c_m_sync_init_impl+0x88>
    560c:	eb00 0340 	add.w	r3, r0, r0, lsl #1
    5610:	4910      	ldr	r1, [pc, #64]	; (5654 <_i2c_m_sync_init_impl+0xd8>)
    5612:	eb01 03c3 	add.w	r3, r1, r3, lsl #3
    5616:	68db      	ldr	r3, [r3, #12]
    5618:	60e3      	str	r3, [r4, #12]
    561a:	f3c2 6301 	ubfx	r3, r2, #24, #2
    561e:	81ab      	strh	r3, [r5, #12]
    5620:	6a62      	ldr	r2, [r4, #36]	; 0x24
    5622:	f422 4280 	bic.w	r2, r2, #16384	; 0x4000
    5626:	2b01      	cmp	r3, #1
    5628:	bf94      	ite	ls
    562a:	2300      	movls	r3, #0
    562c:	2301      	movhi	r3, #1
    562e:	ea42 3383 	orr.w	r3, r2, r3, lsl #14
    5632:	6263      	str	r3, [r4, #36]	; 0x24
    5634:	69e3      	ldr	r3, [r4, #28]
    5636:	f013 0f04 	tst.w	r3, #4
    563a:	d1fb      	bne.n	5634 <_i2c_m_sync_init_impl+0xb8>
    563c:	eb00 0040 	add.w	r0, r0, r0, lsl #1
    5640:	4b04      	ldr	r3, [pc, #16]	; (5654 <_i2c_m_sync_init_impl+0xd8>)
    5642:	eb03 00c0 	add.w	r0, r3, r0, lsl #3
    5646:	8a43      	ldrh	r3, [r0, #18]
    5648:	81eb      	strh	r3, [r5, #14]
    564a:	2000      	movs	r0, #0
    564c:	bd38      	pop	{r3, r4, r5, pc}
    564e:	bf00      	nop
    5650:	00005551 	.word	0x00005551
    5654:	000111d4 	.word	0x000111d4

00005658 <_usart_sync_init>:
    5658:	b538      	push	{r3, r4, r5, lr}
    565a:	460c      	mov	r4, r1
    565c:	4605      	mov	r5, r0
    565e:	3000      	adds	r0, #0
    5660:	bf18      	it	ne
    5662:	2001      	movne	r0, #1
    5664:	4904      	ldr	r1, [pc, #16]	; (5678 <_usart_sync_init+0x20>)
    5666:	22bb      	movs	r2, #187	; 0xbb
    5668:	4b04      	ldr	r3, [pc, #16]	; (567c <_usart_sync_init+0x24>)
    566a:	4798      	blx	r3
    566c:	602c      	str	r4, [r5, #0]
    566e:	4620      	mov	r0, r4
    5670:	4b03      	ldr	r3, [pc, #12]	; (5680 <_usart_sync_init+0x28>)
    5672:	4798      	blx	r3
    5674:	bd38      	pop	{r3, r4, r5, pc}
    5676:	bf00      	nop
    5678:	000111ec 	.word	0x000111ec
    567c:	00004cf9 	.word	0x00004cf9
    5680:	000054b1 	.word	0x000054b1

00005684 <_usart_sync_write_byte>:
    5684:	6803      	ldr	r3, [r0, #0]
    5686:	6299      	str	r1, [r3, #40]	; 0x28
    5688:	4770      	bx	lr
    568a:	bf00      	nop

0000568c <_usart_sync_read_byte>:
    568c:	6803      	ldr	r3, [r0, #0]
    568e:	6a98      	ldr	r0, [r3, #40]	; 0x28
    5690:	b2c0      	uxtb	r0, r0
    5692:	4770      	bx	lr

00005694 <_usart_sync_is_ready_to_send>:
    5694:	6803      	ldr	r3, [r0, #0]
    5696:	7e18      	ldrb	r0, [r3, #24]
    5698:	f000 0001 	and.w	r0, r0, #1
    569c:	4770      	bx	lr
    569e:	bf00      	nop

000056a0 <_usart_sync_is_transmit_done>:
    56a0:	6803      	ldr	r3, [r0, #0]
    56a2:	7e18      	ldrb	r0, [r3, #24]
    56a4:	f3c0 0040 	ubfx	r0, r0, #1, #1
    56a8:	4770      	bx	lr
    56aa:	bf00      	nop

000056ac <_usart_sync_is_byte_received>:
    56ac:	6803      	ldr	r3, [r0, #0]
    56ae:	7e18      	ldrb	r0, [r3, #24]
    56b0:	f3c0 0080 	ubfx	r0, r0, #2, #1
    56b4:	4770      	bx	lr
    56b6:	bf00      	nop

000056b8 <_i2c_m_sync_init>:
    56b8:	b538      	push	{r3, r4, r5, lr}
    56ba:	460c      	mov	r4, r1
    56bc:	4605      	mov	r5, r0
    56be:	3000      	adds	r0, #0
    56c0:	bf18      	it	ne
    56c2:	2001      	movne	r0, #1
    56c4:	4905      	ldr	r1, [pc, #20]	; (56dc <_i2c_m_sync_init+0x24>)
    56c6:	f240 521a 	movw	r2, #1306	; 0x51a
    56ca:	4b05      	ldr	r3, [pc, #20]	; (56e0 <_i2c_m_sync_init+0x28>)
    56cc:	4798      	blx	r3
    56ce:	612c      	str	r4, [r5, #16]
    56d0:	4628      	mov	r0, r5
    56d2:	4621      	mov	r1, r4
    56d4:	4b03      	ldr	r3, [pc, #12]	; (56e4 <_i2c_m_sync_init+0x2c>)
    56d6:	4798      	blx	r3
    56d8:	bd38      	pop	{r3, r4, r5, pc}
    56da:	bf00      	nop
    56dc:	000111ec 	.word	0x000111ec
    56e0:	00004cf9 	.word	0x00004cf9
    56e4:	0000557d 	.word	0x0000557d

000056e8 <_i2c_m_sync_transfer>:
    56e8:	e92d 43f8 	stmdb	sp!, {r3, r4, r5, r6, r7, r8, r9, lr}
    56ec:	4605      	mov	r5, r0
    56ee:	460e      	mov	r6, r1
    56f0:	6904      	ldr	r4, [r0, #16]
    56f2:	f110 0900 	adds.w	r9, r0, #0
    56f6:	bf18      	it	ne
    56f8:	f04f 0901 	movne.w	r9, #1
    56fc:	f8df 8258 	ldr.w	r8, [pc, #600]	; 5958 <_i2c_m_sync_transfer+0x270>
    5700:	4648      	mov	r0, r9
    5702:	4641      	mov	r1, r8
    5704:	f240 52d4 	movw	r2, #1492	; 0x5d4
    5708:	4f92      	ldr	r7, [pc, #584]	; (5954 <_i2c_m_sync_transfer+0x26c>)
    570a:	47b8      	blx	r7
    570c:	6928      	ldr	r0, [r5, #16]
    570e:	3000      	adds	r0, #0
    5710:	bf18      	it	ne
    5712:	2001      	movne	r0, #1
    5714:	4641      	mov	r1, r8
    5716:	f240 52d5 	movw	r2, #1493	; 0x5d5
    571a:	47b8      	blx	r7
    571c:	1c30      	adds	r0, r6, #0
    571e:	bf18      	it	ne
    5720:	2001      	movne	r0, #1
    5722:	4641      	mov	r1, r8
    5724:	f240 52d6 	movw	r2, #1494	; 0x5d6
    5728:	47b8      	blx	r7
    572a:	886b      	ldrh	r3, [r5, #2]
    572c:	f403 7380 	and.w	r3, r3, #256	; 0x100
    5730:	b29b      	uxth	r3, r3
    5732:	2b00      	cmp	r3, #0
    5734:	f040 8263 	bne.w	5bfe <_i2c_m_sync_transfer+0x516>
    5738:	8873      	ldrh	r3, [r6, #2]
    573a:	b29b      	uxth	r3, r3
    573c:	f443 7380 	orr.w	r3, r3, #256	; 0x100
    5740:	8073      	strh	r3, [r6, #2]
    5742:	e896 0007 	ldmia.w	r6, {r0, r1, r2}
    5746:	e885 0007 	stmia.w	r5, {r0, r1, r2}
    574a:	6863      	ldr	r3, [r4, #4]
    574c:	f443 7380 	orr.w	r3, r3, #256	; 0x100
    5750:	6063      	str	r3, [r4, #4]
    5752:	69e3      	ldr	r3, [r4, #28]
    5754:	f013 0f17 	tst.w	r3, #23
    5758:	d1fb      	bne.n	5752 <_i2c_m_sync_transfer+0x6a>
    575a:	692f      	ldr	r7, [r5, #16]
    575c:	f8d7 8000 	ldr.w	r8, [r7]
    5760:	4648      	mov	r0, r9
    5762:	497d      	ldr	r1, [pc, #500]	; (5958 <_i2c_m_sync_transfer+0x270>)
    5764:	f240 52a9 	movw	r2, #1449	; 0x5a9
    5768:	4b7a      	ldr	r3, [pc, #488]	; (5954 <_i2c_m_sync_transfer+0x26c>)
    576a:	4798      	blx	r3
    576c:	686b      	ldr	r3, [r5, #4]
    576e:	2b01      	cmp	r3, #1
    5770:	d10b      	bne.n	578a <_i2c_m_sync_transfer+0xa2>
    5772:	f018 6f00 	tst.w	r8, #134217728	; 0x8000000
    5776:	d008      	beq.n	578a <_i2c_m_sync_transfer+0xa2>
    5778:	687b      	ldr	r3, [r7, #4]
    577a:	f443 2380 	orr.w	r3, r3, #262144	; 0x40000
    577e:	607b      	str	r3, [r7, #4]
    5780:	69fb      	ldr	r3, [r7, #28]
    5782:	f013 0f17 	tst.w	r3, #23
    5786:	d1fb      	bne.n	5780 <_i2c_m_sync_transfer+0x98>
    5788:	e007      	b.n	579a <_i2c_m_sync_transfer+0xb2>
    578a:	687b      	ldr	r3, [r7, #4]
    578c:	f423 2380 	bic.w	r3, r3, #262144	; 0x40000
    5790:	607b      	str	r3, [r7, #4]
    5792:	69fb      	ldr	r3, [r7, #28]
    5794:	f013 0f17 	tst.w	r3, #23
    5798:	d1fb      	bne.n	5792 <_i2c_m_sync_transfer+0xaa>
    579a:	882b      	ldrh	r3, [r5, #0]
    579c:	f403 6280 	and.w	r2, r3, #1024	; 0x400
    57a0:	b292      	uxth	r2, r2
    57a2:	b1da      	cbz	r2, 57dc <_i2c_m_sync_transfer+0xf4>
    57a4:	886a      	ldrh	r2, [r5, #2]
    57a6:	f012 0f01 	tst.w	r2, #1
    57aa:	d004      	beq.n	57b6 <_i2c_m_sync_transfer+0xce>
    57ac:	886a      	ldrh	r2, [r5, #2]
    57ae:	b292      	uxth	r2, r2
    57b0:	f442 6280 	orr.w	r2, r2, #1024	; 0x400
    57b4:	806a      	strh	r2, [r5, #2]
    57b6:	f3c3 0309 	ubfx	r3, r3, #0, #10
    57ba:	005a      	lsls	r2, r3, #1
    57bc:	69fb      	ldr	r3, [r7, #28]
    57be:	f013 0f04 	tst.w	r3, #4
    57c2:	d1fb      	bne.n	57bc <_i2c_m_sync_transfer+0xd4>
    57c4:	6a7b      	ldr	r3, [r7, #36]	; 0x24
    57c6:	f403 4380 	and.w	r3, r3, #16384	; 0x4000
    57ca:	f443 4300 	orr.w	r3, r3, #32768	; 0x8000
    57ce:	4313      	orrs	r3, r2
    57d0:	627b      	str	r3, [r7, #36]	; 0x24
    57d2:	69fb      	ldr	r3, [r7, #28]
    57d4:	f013 0f04 	tst.w	r3, #4
    57d8:	d1fb      	bne.n	57d2 <_i2c_m_sync_transfer+0xea>
    57da:	e012      	b.n	5802 <_i2c_m_sync_transfer+0x11a>
    57dc:	886a      	ldrh	r2, [r5, #2]
    57de:	f002 0201 	and.w	r2, r2, #1
    57e2:	005b      	lsls	r3, r3, #1
    57e4:	b2db      	uxtb	r3, r3
    57e6:	431a      	orrs	r2, r3
    57e8:	69fb      	ldr	r3, [r7, #28]
    57ea:	f013 0f04 	tst.w	r3, #4
    57ee:	d1fb      	bne.n	57e8 <_i2c_m_sync_transfer+0x100>
    57f0:	6a7b      	ldr	r3, [r7, #36]	; 0x24
    57f2:	f403 4380 	and.w	r3, r3, #16384	; 0x4000
    57f6:	4313      	orrs	r3, r2
    57f8:	627b      	str	r3, [r7, #36]	; 0x24
    57fa:	69fb      	ldr	r3, [r7, #28]
    57fc:	f013 0f04 	tst.w	r3, #4
    5800:	d1fb      	bne.n	57fa <_i2c_m_sync_transfer+0x112>
    5802:	6929      	ldr	r1, [r5, #16]
    5804:	7e0a      	ldrb	r2, [r1, #24]
    5806:	b2d2      	uxtb	r2, r2
    5808:	f64f 73ff 	movw	r3, #65535	; 0xffff
    580c:	e003      	b.n	5816 <_i2c_m_sync_transfer+0x12e>
    580e:	7e0a      	ldrb	r2, [r1, #24]
    5810:	b2d2      	uxtb	r2, r2
    5812:	3b01      	subs	r3, #1
    5814:	d002      	beq.n	581c <_i2c_m_sync_transfer+0x134>
    5816:	f012 0f03 	tst.w	r2, #3
    581a:	d0f8      	beq.n	580e <_i2c_m_sync_transfer+0x126>
    581c:	6839      	ldr	r1, [r7, #0]
    581e:	69fb      	ldr	r3, [r7, #28]
    5820:	f013 0f04 	tst.w	r3, #4
    5824:	d1fb      	bne.n	581e <_i2c_m_sync_transfer+0x136>
    5826:	8b7b      	ldrh	r3, [r7, #26]
    5828:	b29b      	uxth	r3, r3
    582a:	f012 0f01 	tst.w	r2, #1
    582e:	d07e      	beq.n	592e <_i2c_m_sync_transfer+0x246>
    5830:	f003 0202 	and.w	r2, r3, #2
    5834:	b292      	uxth	r2, r2
    5836:	b1aa      	cbz	r2, 5864 <_i2c_m_sync_transfer+0x17c>
    5838:	2201      	movs	r2, #1
    583a:	763a      	strb	r2, [r7, #24]
    583c:	886a      	ldrh	r2, [r5, #2]
    583e:	b292      	uxth	r2, r2
    5840:	f442 5280 	orr.w	r2, r2, #4096	; 0x1000
    5844:	806a      	strh	r2, [r5, #2]
    5846:	886a      	ldrh	r2, [r5, #2]
    5848:	f422 7280 	bic.w	r2, r2, #256	; 0x100
    584c:	0412      	lsls	r2, r2, #16
    584e:	0c12      	lsrs	r2, r2, #16
    5850:	806a      	strh	r2, [r5, #2]
    5852:	f003 0301 	and.w	r3, r3, #1
    5856:	2b00      	cmp	r3, #0
    5858:	bf14      	ite	ne
    585a:	f06f 0004 	mvnne.w	r0, #4
    585e:	f06f 0003 	mvneq.w	r0, #3
    5862:	e1da      	b.n	5c1a <_i2c_m_sync_transfer+0x532>
    5864:	f003 0304 	and.w	r3, r3, #4
    5868:	b29b      	uxth	r3, r3
    586a:	b1e3      	cbz	r3, 58a6 <_i2c_m_sync_transfer+0x1be>
    586c:	686b      	ldr	r3, [r5, #4]
    586e:	2b00      	cmp	r3, #0
    5870:	dd04      	ble.n	587c <_i2c_m_sync_transfer+0x194>
    5872:	886b      	ldrh	r3, [r5, #2]
    5874:	b29b      	uxth	r3, r3
    5876:	f443 5380 	orr.w	r3, r3, #4096	; 0x1000
    587a:	806b      	strh	r3, [r5, #2]
    587c:	886b      	ldrh	r3, [r5, #2]
    587e:	b21b      	sxth	r3, r3
    5880:	2b00      	cmp	r3, #0
    5882:	da07      	bge.n	5894 <_i2c_m_sync_transfer+0x1ac>
    5884:	687b      	ldr	r3, [r7, #4]
    5886:	f443 3340 	orr.w	r3, r3, #196608	; 0x30000
    588a:	607b      	str	r3, [r7, #4]
    588c:	69fb      	ldr	r3, [r7, #28]
    588e:	f013 0f04 	tst.w	r3, #4
    5892:	d1fb      	bne.n	588c <_i2c_m_sync_transfer+0x1a4>
    5894:	886b      	ldrh	r3, [r5, #2]
    5896:	f423 7380 	bic.w	r3, r3, #256	; 0x100
    589a:	041b      	lsls	r3, r3, #16
    589c:	0c1b      	lsrs	r3, r3, #16
    589e:	806b      	strh	r3, [r5, #2]
    58a0:	f06f 0001 	mvn.w	r0, #1
    58a4:	e1b9      	b.n	5c1a <_i2c_m_sync_transfer+0x532>
    58a6:	886b      	ldrh	r3, [r5, #2]
    58a8:	f403 6380 	and.w	r3, r3, #1024	; 0x400
    58ac:	b29b      	uxth	r3, r3
    58ae:	b1db      	cbz	r3, 58e8 <_i2c_m_sync_transfer+0x200>
    58b0:	882a      	ldrh	r2, [r5, #0]
    58b2:	f3c2 2201 	ubfx	r2, r2, #8, #2
    58b6:	f042 0278 	orr.w	r2, r2, #120	; 0x78
    58ba:	0052      	lsls	r2, r2, #1
    58bc:	69fb      	ldr	r3, [r7, #28]
    58be:	f013 0f04 	tst.w	r3, #4
    58c2:	d1fb      	bne.n	58bc <_i2c_m_sync_transfer+0x1d4>
    58c4:	6a7b      	ldr	r3, [r7, #36]	; 0x24
    58c6:	f403 4380 	and.w	r3, r3, #16384	; 0x4000
    58ca:	f043 0301 	orr.w	r3, r3, #1
    58ce:	4313      	orrs	r3, r2
    58d0:	627b      	str	r3, [r7, #36]	; 0x24
    58d2:	69fb      	ldr	r3, [r7, #28]
    58d4:	f013 0f04 	tst.w	r3, #4
    58d8:	d1fb      	bne.n	58d2 <_i2c_m_sync_transfer+0x1ea>
    58da:	886b      	ldrh	r3, [r5, #2]
    58dc:	f423 6380 	bic.w	r3, r3, #1024	; 0x400
    58e0:	041b      	lsls	r3, r3, #16
    58e2:	0c1b      	lsrs	r3, r3, #16
    58e4:	806b      	strh	r3, [r5, #2]
    58e6:	e18e      	b.n	5c06 <_i2c_m_sync_transfer+0x51e>
    58e8:	686b      	ldr	r3, [r5, #4]
    58ea:	b993      	cbnz	r3, 5912 <_i2c_m_sync_transfer+0x22a>
    58ec:	886b      	ldrh	r3, [r5, #2]
    58ee:	b21b      	sxth	r3, r3
    58f0:	2b00      	cmp	r3, #0
    58f2:	da07      	bge.n	5904 <_i2c_m_sync_transfer+0x21c>
    58f4:	687b      	ldr	r3, [r7, #4]
    58f6:	f443 3340 	orr.w	r3, r3, #196608	; 0x30000
    58fa:	607b      	str	r3, [r7, #4]
    58fc:	69fb      	ldr	r3, [r7, #28]
    58fe:	f013 0f04 	tst.w	r3, #4
    5902:	d1fb      	bne.n	58fc <_i2c_m_sync_transfer+0x214>
    5904:	886b      	ldrh	r3, [r5, #2]
    5906:	f423 7380 	bic.w	r3, r3, #256	; 0x100
    590a:	041b      	lsls	r3, r3, #16
    590c:	0c1b      	lsrs	r3, r3, #16
    590e:	806b      	strh	r3, [r5, #2]
    5910:	e179      	b.n	5c06 <_i2c_m_sync_transfer+0x51e>
    5912:	68ab      	ldr	r3, [r5, #8]
    5914:	781b      	ldrb	r3, [r3, #0]
    5916:	62bb      	str	r3, [r7, #40]	; 0x28
    5918:	69fb      	ldr	r3, [r7, #28]
    591a:	f013 0f04 	tst.w	r3, #4
    591e:	d1fb      	bne.n	5918 <_i2c_m_sync_transfer+0x230>
    5920:	68ab      	ldr	r3, [r5, #8]
    5922:	3301      	adds	r3, #1
    5924:	60ab      	str	r3, [r5, #8]
    5926:	686b      	ldr	r3, [r5, #4]
    5928:	3b01      	subs	r3, #1
    592a:	606b      	str	r3, [r5, #4]
    592c:	e16b      	b.n	5c06 <_i2c_m_sync_transfer+0x51e>
    592e:	f012 0f02 	tst.w	r2, #2
    5932:	f000 8168 	beq.w	5c06 <_i2c_m_sync_transfer+0x51e>
    5936:	686a      	ldr	r2, [r5, #4]
    5938:	2a00      	cmp	r2, #0
    593a:	d042      	beq.n	59c2 <_i2c_m_sync_transfer+0x2da>
    593c:	f003 0304 	and.w	r3, r3, #4
    5940:	b29b      	uxth	r3, r3
    5942:	2b00      	cmp	r3, #0
    5944:	d13d      	bne.n	59c2 <_i2c_m_sync_transfer+0x2da>
    5946:	f3c1 61c0 	ubfx	r1, r1, #27, #1
    594a:	1e53      	subs	r3, r2, #1
    594c:	606b      	str	r3, [r5, #4]
    594e:	b92b      	cbnz	r3, 595c <_i2c_m_sync_transfer+0x274>
    5950:	b139      	cbz	r1, 5962 <_i2c_m_sync_transfer+0x27a>
    5952:	e010      	b.n	5976 <_i2c_m_sync_transfer+0x28e>
    5954:	00004cf9 	.word	0x00004cf9
    5958:	000111ec 	.word	0x000111ec
    595c:	2b01      	cmp	r3, #1
    595e:	d124      	bne.n	59aa <_i2c_m_sync_transfer+0x2c2>
    5960:	b319      	cbz	r1, 59aa <_i2c_m_sync_transfer+0x2c2>
    5962:	687b      	ldr	r3, [r7, #4]
    5964:	f443 2380 	orr.w	r3, r3, #262144	; 0x40000
    5968:	607b      	str	r3, [r7, #4]
    596a:	69fb      	ldr	r3, [r7, #28]
    596c:	f013 0f17 	tst.w	r3, #23
    5970:	d1fb      	bne.n	596a <_i2c_m_sync_transfer+0x282>
    5972:	686b      	ldr	r3, [r5, #4]
    5974:	b9cb      	cbnz	r3, 59aa <_i2c_m_sync_transfer+0x2c2>
    5976:	886b      	ldrh	r3, [r5, #2]
    5978:	b21b      	sxth	r3, r3
    597a:	2b00      	cmp	r3, #0
    597c:	da0f      	bge.n	599e <_i2c_m_sync_transfer+0x2b6>
    597e:	687b      	ldr	r3, [r7, #4]
    5980:	f423 7380 	bic.w	r3, r3, #256	; 0x100
    5984:	607b      	str	r3, [r7, #4]
    5986:	69fb      	ldr	r3, [r7, #28]
    5988:	f013 0f17 	tst.w	r3, #23
    598c:	d1fb      	bne.n	5986 <_i2c_m_sync_transfer+0x29e>
    598e:	687b      	ldr	r3, [r7, #4]
    5990:	f443 3340 	orr.w	r3, r3, #196608	; 0x30000
    5994:	607b      	str	r3, [r7, #4]
    5996:	69fb      	ldr	r3, [r7, #28]
    5998:	f013 0f04 	tst.w	r3, #4
    599c:	d1fb      	bne.n	5996 <_i2c_m_sync_transfer+0x2ae>
    599e:	886b      	ldrh	r3, [r5, #2]
    59a0:	f423 7380 	bic.w	r3, r3, #256	; 0x100
    59a4:	041b      	lsls	r3, r3, #16
    59a6:	0c1b      	lsrs	r3, r3, #16
    59a8:	806b      	strh	r3, [r5, #2]
    59aa:	68aa      	ldr	r2, [r5, #8]
    59ac:	1c53      	adds	r3, r2, #1
    59ae:	60ab      	str	r3, [r5, #8]
    59b0:	69fb      	ldr	r3, [r7, #28]
    59b2:	f013 0f04 	tst.w	r3, #4
    59b6:	d1fb      	bne.n	59b0 <_i2c_m_sync_transfer+0x2c8>
    59b8:	6abb      	ldr	r3, [r7, #40]	; 0x28
    59ba:	7013      	strb	r3, [r2, #0]
    59bc:	2302      	movs	r3, #2
    59be:	763b      	strb	r3, [r7, #24]
    59c0:	e121      	b.n	5c06 <_i2c_m_sync_transfer+0x51e>
    59c2:	2302      	movs	r3, #2
    59c4:	763b      	strb	r3, [r7, #24]
    59c6:	f06f 0001 	mvn.w	r0, #1
    59ca:	e126      	b.n	5c1a <_i2c_m_sync_transfer+0x532>
    59cc:	f8d5 9010 	ldr.w	r9, [r5, #16]
    59d0:	f899 8018 	ldrb.w	r8, [r9, #24]
    59d4:	fa5f f888 	uxtb.w	r8, r8
    59d8:	4618      	mov	r0, r3
    59da:	e006      	b.n	59ea <_i2c_m_sync_transfer+0x302>
    59dc:	f899 8018 	ldrb.w	r8, [r9, #24]
    59e0:	fa5f f888 	uxtb.w	r8, r8
    59e4:	3801      	subs	r0, #1
    59e6:	f000 8120 	beq.w	5c2a <_i2c_m_sync_transfer+0x542>
    59ea:	f018 0f03 	tst.w	r8, #3
    59ee:	d0f5      	beq.n	59dc <_i2c_m_sync_transfer+0x2f4>
    59f0:	e121      	b.n	5c36 <_i2c_m_sync_transfer+0x54e>
    59f2:	6863      	ldr	r3, [r4, #4]
    59f4:	f443 3340 	orr.w	r3, r3, #196608	; 0x30000
    59f8:	6063      	str	r3, [r4, #4]
    59fa:	69e3      	ldr	r3, [r4, #28]
    59fc:	f013 0f04 	tst.w	r3, #4
    5a00:	d1fb      	bne.n	59fa <_i2c_m_sync_transfer+0x312>
    5a02:	886b      	ldrh	r3, [r5, #2]
    5a04:	f423 7380 	bic.w	r3, r3, #256	; 0x100
    5a08:	041b      	lsls	r3, r3, #16
    5a0a:	0c1b      	lsrs	r3, r3, #16
    5a0c:	806b      	strh	r3, [r5, #2]
    5a0e:	f06f 0004 	mvn.w	r0, #4
    5a12:	e8bd 83f8 	ldmia.w	sp!, {r3, r4, r5, r6, r7, r8, r9, pc}
    5a16:	69e0      	ldr	r0, [r4, #28]
    5a18:	f010 0f04 	tst.w	r0, #4
    5a1c:	d1fb      	bne.n	5a16 <_i2c_m_sync_transfer+0x32e>
    5a1e:	8b60      	ldrh	r0, [r4, #26]
    5a20:	b280      	uxth	r0, r0
    5a22:	f018 0f01 	tst.w	r8, #1
    5a26:	f000 808d 	beq.w	5b44 <_i2c_m_sync_transfer+0x45c>
    5a2a:	f000 0802 	and.w	r8, r0, #2
    5a2e:	fa1f f888 	uxth.w	r8, r8
    5a32:	f1b8 0f00 	cmp.w	r8, #0
    5a36:	d01b      	beq.n	5a70 <_i2c_m_sync_transfer+0x388>
    5a38:	7627      	strb	r7, [r4, #24]
    5a3a:	f8b5 8002 	ldrh.w	r8, [r5, #2]
    5a3e:	fa1f f888 	uxth.w	r8, r8
    5a42:	f448 5880 	orr.w	r8, r8, #4096	; 0x1000
    5a46:	f8a5 8002 	strh.w	r8, [r5, #2]
    5a4a:	f8b5 8002 	ldrh.w	r8, [r5, #2]
    5a4e:	f428 7880 	bic.w	r8, r8, #256	; 0x100
    5a52:	ea4f 4808 	mov.w	r8, r8, lsl #16
    5a56:	ea4f 4818 	mov.w	r8, r8, lsr #16
    5a5a:	f8a5 8002 	strh.w	r8, [r5, #2]
    5a5e:	f000 0001 	and.w	r0, r0, #1
    5a62:	2800      	cmp	r0, #0
    5a64:	bf0c      	ite	eq
    5a66:	f06f 0803 	mvneq.w	r8, #3
    5a6a:	f06f 0804 	mvnne.w	r8, #4
    5a6e:	e0bc      	b.n	5bea <_i2c_m_sync_transfer+0x502>
    5a70:	f000 0004 	and.w	r0, r0, #4
    5a74:	b280      	uxth	r0, r0
    5a76:	b1d8      	cbz	r0, 5ab0 <_i2c_m_sync_transfer+0x3c8>
    5a78:	6868      	ldr	r0, [r5, #4]
    5a7a:	2800      	cmp	r0, #0
    5a7c:	dd04      	ble.n	5a88 <_i2c_m_sync_transfer+0x3a0>
    5a7e:	8868      	ldrh	r0, [r5, #2]
    5a80:	b280      	uxth	r0, r0
    5a82:	f440 5080 	orr.w	r0, r0, #4096	; 0x1000
    5a86:	8068      	strh	r0, [r5, #2]
    5a88:	8868      	ldrh	r0, [r5, #2]
    5a8a:	b200      	sxth	r0, r0
    5a8c:	2800      	cmp	r0, #0
    5a8e:	da07      	bge.n	5aa0 <_i2c_m_sync_transfer+0x3b8>
    5a90:	6860      	ldr	r0, [r4, #4]
    5a92:	f440 3040 	orr.w	r0, r0, #196608	; 0x30000
    5a96:	6060      	str	r0, [r4, #4]
    5a98:	69e0      	ldr	r0, [r4, #28]
    5a9a:	f010 0f04 	tst.w	r0, #4
    5a9e:	d1fb      	bne.n	5a98 <_i2c_m_sync_transfer+0x3b0>
    5aa0:	8868      	ldrh	r0, [r5, #2]
    5aa2:	f420 7080 	bic.w	r0, r0, #256	; 0x100
    5aa6:	0400      	lsls	r0, r0, #16
    5aa8:	0c00      	lsrs	r0, r0, #16
    5aaa:	8068      	strh	r0, [r5, #2]
    5aac:	46e0      	mov	r8, ip
    5aae:	e09c      	b.n	5bea <_i2c_m_sync_transfer+0x502>
    5ab0:	8868      	ldrh	r0, [r5, #2]
    5ab2:	f400 6080 	and.w	r0, r0, #1024	; 0x400
    5ab6:	b280      	uxth	r0, r0
    5ab8:	b1f8      	cbz	r0, 5afa <_i2c_m_sync_transfer+0x412>
    5aba:	f8b5 8000 	ldrh.w	r8, [r5]
    5abe:	f3c8 2801 	ubfx	r8, r8, #8, #2
    5ac2:	f048 0878 	orr.w	r8, r8, #120	; 0x78
    5ac6:	ea4f 0848 	mov.w	r8, r8, lsl #1
    5aca:	69e0      	ldr	r0, [r4, #28]
    5acc:	f010 0f04 	tst.w	r0, #4
    5ad0:	d1fb      	bne.n	5aca <_i2c_m_sync_transfer+0x3e2>
    5ad2:	6a60      	ldr	r0, [r4, #36]	; 0x24
    5ad4:	f400 4080 	and.w	r0, r0, #16384	; 0x4000
    5ad8:	f040 0001 	orr.w	r0, r0, #1
    5adc:	ea40 0008 	orr.w	r0, r0, r8
    5ae0:	6260      	str	r0, [r4, #36]	; 0x24
    5ae2:	69e0      	ldr	r0, [r4, #28]
    5ae4:	f010 0f04 	tst.w	r0, #4
    5ae8:	d1fb      	bne.n	5ae2 <_i2c_m_sync_transfer+0x3fa>
    5aea:	8868      	ldrh	r0, [r5, #2]
    5aec:	f420 6080 	bic.w	r0, r0, #1024	; 0x400
    5af0:	0400      	lsls	r0, r0, #16
    5af2:	0c00      	lsrs	r0, r0, #16
    5af4:	8068      	strh	r0, [r5, #2]
    5af6:	4690      	mov	r8, r2
    5af8:	e077      	b.n	5bea <_i2c_m_sync_transfer+0x502>
    5afa:	6868      	ldr	r0, [r5, #4]
    5afc:	b998      	cbnz	r0, 5b26 <_i2c_m_sync_transfer+0x43e>
    5afe:	8868      	ldrh	r0, [r5, #2]
    5b00:	b200      	sxth	r0, r0
    5b02:	2800      	cmp	r0, #0
    5b04:	da07      	bge.n	5b16 <_i2c_m_sync_transfer+0x42e>
    5b06:	6860      	ldr	r0, [r4, #4]
    5b08:	f440 3040 	orr.w	r0, r0, #196608	; 0x30000
    5b0c:	6060      	str	r0, [r4, #4]
    5b0e:	69e0      	ldr	r0, [r4, #28]
    5b10:	f010 0f04 	tst.w	r0, #4
    5b14:	d1fb      	bne.n	5b0e <_i2c_m_sync_transfer+0x426>
    5b16:	8868      	ldrh	r0, [r5, #2]
    5b18:	f420 7080 	bic.w	r0, r0, #256	; 0x100
    5b1c:	0400      	lsls	r0, r0, #16
    5b1e:	0c00      	lsrs	r0, r0, #16
    5b20:	8068      	strh	r0, [r5, #2]
    5b22:	4690      	mov	r8, r2
    5b24:	e061      	b.n	5bea <_i2c_m_sync_transfer+0x502>
    5b26:	68a8      	ldr	r0, [r5, #8]
    5b28:	7800      	ldrb	r0, [r0, #0]
    5b2a:	62a0      	str	r0, [r4, #40]	; 0x28
    5b2c:	69e0      	ldr	r0, [r4, #28]
    5b2e:	f010 0f04 	tst.w	r0, #4
    5b32:	d1fb      	bne.n	5b2c <_i2c_m_sync_transfer+0x444>
    5b34:	68a8      	ldr	r0, [r5, #8]
    5b36:	3001      	adds	r0, #1
    5b38:	60a8      	str	r0, [r5, #8]
    5b3a:	6868      	ldr	r0, [r5, #4]
    5b3c:	3801      	subs	r0, #1
    5b3e:	6068      	str	r0, [r5, #4]
    5b40:	4690      	mov	r8, r2
    5b42:	e052      	b.n	5bea <_i2c_m_sync_transfer+0x502>
    5b44:	f018 0f02 	tst.w	r8, #2
    5b48:	d04e      	beq.n	5be8 <_i2c_m_sync_transfer+0x500>
    5b4a:	f8d5 8004 	ldr.w	r8, [r5, #4]
    5b4e:	f1b8 0f00 	cmp.w	r8, #0
    5b52:	d046      	beq.n	5be2 <_i2c_m_sync_transfer+0x4fa>
    5b54:	f000 0004 	and.w	r0, r0, #4
    5b58:	b280      	uxth	r0, r0
    5b5a:	2800      	cmp	r0, #0
    5b5c:	d141      	bne.n	5be2 <_i2c_m_sync_transfer+0x4fa>
    5b5e:	f3c9 69c0 	ubfx	r9, r9, #27, #1
    5b62:	f108 30ff 	add.w	r0, r8, #4294967295	; 0xffffffff
    5b66:	6068      	str	r0, [r5, #4]
    5b68:	b918      	cbnz	r0, 5b72 <_i2c_m_sync_transfer+0x48a>
    5b6a:	f1b9 0f00 	cmp.w	r9, #0
    5b6e:	d005      	beq.n	5b7c <_i2c_m_sync_transfer+0x494>
    5b70:	e00e      	b.n	5b90 <_i2c_m_sync_transfer+0x4a8>
    5b72:	2801      	cmp	r0, #1
    5b74:	d126      	bne.n	5bc4 <_i2c_m_sync_transfer+0x4dc>
    5b76:	f1b9 0f00 	cmp.w	r9, #0
    5b7a:	d023      	beq.n	5bc4 <_i2c_m_sync_transfer+0x4dc>
    5b7c:	6860      	ldr	r0, [r4, #4]
    5b7e:	f440 2080 	orr.w	r0, r0, #262144	; 0x40000
    5b82:	6060      	str	r0, [r4, #4]
    5b84:	69e0      	ldr	r0, [r4, #28]
    5b86:	f010 0f17 	tst.w	r0, #23
    5b8a:	d1fb      	bne.n	5b84 <_i2c_m_sync_transfer+0x49c>
    5b8c:	6868      	ldr	r0, [r5, #4]
    5b8e:	b9c8      	cbnz	r0, 5bc4 <_i2c_m_sync_transfer+0x4dc>
    5b90:	8868      	ldrh	r0, [r5, #2]
    5b92:	b200      	sxth	r0, r0
    5b94:	2800      	cmp	r0, #0
    5b96:	da0f      	bge.n	5bb8 <_i2c_m_sync_transfer+0x4d0>
    5b98:	6860      	ldr	r0, [r4, #4]
    5b9a:	f420 7080 	bic.w	r0, r0, #256	; 0x100
    5b9e:	6060      	str	r0, [r4, #4]
    5ba0:	69e0      	ldr	r0, [r4, #28]
    5ba2:	f010 0f17 	tst.w	r0, #23
    5ba6:	d1fb      	bne.n	5ba0 <_i2c_m_sync_transfer+0x4b8>
    5ba8:	6860      	ldr	r0, [r4, #4]
    5baa:	f440 3040 	orr.w	r0, r0, #196608	; 0x30000
    5bae:	6060      	str	r0, [r4, #4]
    5bb0:	69e0      	ldr	r0, [r4, #28]
    5bb2:	f010 0f04 	tst.w	r0, #4
    5bb6:	d1fb      	bne.n	5bb0 <_i2c_m_sync_transfer+0x4c8>
    5bb8:	8868      	ldrh	r0, [r5, #2]
    5bba:	f420 7080 	bic.w	r0, r0, #256	; 0x100
    5bbe:	0400      	lsls	r0, r0, #16
    5bc0:	0c00      	lsrs	r0, r0, #16
    5bc2:	8068      	strh	r0, [r5, #2]
    5bc4:	f8d5 8008 	ldr.w	r8, [r5, #8]
    5bc8:	f108 0001 	add.w	r0, r8, #1
    5bcc:	60a8      	str	r0, [r5, #8]
    5bce:	69e0      	ldr	r0, [r4, #28]
    5bd0:	f010 0f04 	tst.w	r0, #4
    5bd4:	d1fb      	bne.n	5bce <_i2c_m_sync_transfer+0x4e6>
    5bd6:	6aa0      	ldr	r0, [r4, #40]	; 0x28
    5bd8:	f888 0000 	strb.w	r0, [r8]
    5bdc:	7621      	strb	r1, [r4, #24]
    5bde:	4690      	mov	r8, r2
    5be0:	e003      	b.n	5bea <_i2c_m_sync_transfer+0x502>
    5be2:	7621      	strb	r1, [r4, #24]
    5be4:	46e0      	mov	r8, ip
    5be6:	e000      	b.n	5bea <_i2c_m_sync_transfer+0x502>
    5be8:	4690      	mov	r8, r2
    5bea:	8868      	ldrh	r0, [r5, #2]
    5bec:	f400 7080 	and.w	r0, r0, #256	; 0x100
    5bf0:	b280      	uxth	r0, r0
    5bf2:	2800      	cmp	r0, #0
    5bf4:	f47f aeea 	bne.w	59cc <_i2c_m_sync_transfer+0x2e4>
    5bf8:	4640      	mov	r0, r8
    5bfa:	e8bd 83f8 	ldmia.w	sp!, {r3, r4, r5, r6, r7, r8, r9, pc}
    5bfe:	f06f 0005 	mvn.w	r0, #5
    5c02:	e8bd 83f8 	ldmia.w	sp!, {r3, r4, r5, r6, r7, r8, r9, pc}
    5c06:	f04f 0800 	mov.w	r8, #0
    5c0a:	f64f 73ff 	movw	r3, #65535	; 0xffff
    5c0e:	4642      	mov	r2, r8
    5c10:	2102      	movs	r1, #2
    5c12:	f06f 0c01 	mvn.w	ip, #1
    5c16:	2701      	movs	r7, #1
    5c18:	e7e7      	b.n	5bea <_i2c_m_sync_transfer+0x502>
    5c1a:	886b      	ldrh	r3, [r5, #2]
    5c1c:	f423 7380 	bic.w	r3, r3, #256	; 0x100
    5c20:	041b      	lsls	r3, r3, #16
    5c22:	0c1b      	lsrs	r3, r3, #16
    5c24:	806b      	strh	r3, [r5, #2]
    5c26:	e8bd 83f8 	ldmia.w	sp!, {r3, r4, r5, r6, r7, r8, r9, pc}
    5c2a:	8873      	ldrh	r3, [r6, #2]
    5c2c:	b21b      	sxth	r3, r3
    5c2e:	2b00      	cmp	r3, #0
    5c30:	f6bf aee7 	bge.w	5a02 <_i2c_m_sync_transfer+0x31a>
    5c34:	e6dd      	b.n	59f2 <_i2c_m_sync_transfer+0x30a>
    5c36:	f8d4 9000 	ldr.w	r9, [r4]
    5c3a:	e6ec      	b.n	5a16 <_i2c_m_sync_transfer+0x32e>

00005c3c <_spi_m_sync_init>:
    5c3c:	b570      	push	{r4, r5, r6, lr}
    5c3e:	4606      	mov	r6, r0
    5c40:	460c      	mov	r4, r1
    5c42:	4608      	mov	r0, r1
    5c44:	4b52      	ldr	r3, [pc, #328]	; (5d90 <_spi_m_sync_init+0x154>)
    5c46:	4798      	blx	r3
    5c48:	4603      	mov	r3, r0
    5c4a:	b120      	cbz	r0, 5c56 <_spi_m_sync_init+0x1a>
    5c4c:	2803      	cmp	r0, #3
    5c4e:	bf08      	it	eq
    5c50:	2301      	moveq	r3, #1
    5c52:	d001      	beq.n	5c58 <_spi_m_sync_init+0x1c>
    5c54:	e005      	b.n	5c62 <_spi_m_sync_init+0x26>
    5c56:	2300      	movs	r3, #0
    5c58:	4d4e      	ldr	r5, [pc, #312]	; (5d94 <_spi_m_sync_init+0x158>)
    5c5a:	eb05 1503 	add.w	r5, r5, r3, lsl #4
    5c5e:	441d      	add	r5, r3
    5c60:	e000      	b.n	5c64 <_spi_m_sync_init+0x28>
    5c62:	2500      	movs	r5, #0
    5c64:	b11e      	cbz	r6, 5c6e <_spi_m_sync_init+0x32>
    5c66:	1c20      	adds	r0, r4, #0
    5c68:	bf18      	it	ne
    5c6a:	2001      	movne	r0, #1
    5c6c:	e000      	b.n	5c70 <_spi_m_sync_init+0x34>
    5c6e:	2000      	movs	r0, #0
    5c70:	4949      	ldr	r1, [pc, #292]	; (5d98 <_spi_m_sync_init+0x15c>)
    5c72:	f640 1234 	movw	r2, #2356	; 0x934
    5c76:	4b49      	ldr	r3, [pc, #292]	; (5d9c <_spi_m_sync_init+0x160>)
    5c78:	4798      	blx	r3
    5c7a:	2d00      	cmp	r5, #0
    5c7c:	f000 8084 	beq.w	5d88 <_spi_m_sync_init+0x14c>
    5c80:	69e3      	ldr	r3, [r4, #28]
    5c82:	f013 0f01 	tst.w	r3, #1
    5c86:	d11d      	bne.n	5cc4 <_spi_m_sync_init+0x88>
    5c88:	682a      	ldr	r2, [r5, #0]
    5c8a:	f002 021c 	and.w	r2, r2, #28
    5c8e:	69e3      	ldr	r3, [r4, #28]
    5c90:	f013 0f03 	tst.w	r3, #3
    5c94:	d1fb      	bne.n	5c8e <_spi_m_sync_init+0x52>
    5c96:	6823      	ldr	r3, [r4, #0]
    5c98:	f013 0f02 	tst.w	r3, #2
    5c9c:	d00b      	beq.n	5cb6 <_spi_m_sync_init+0x7a>
    5c9e:	6823      	ldr	r3, [r4, #0]
    5ca0:	f023 0302 	bic.w	r3, r3, #2
    5ca4:	6023      	str	r3, [r4, #0]
    5ca6:	69e3      	ldr	r3, [r4, #28]
    5ca8:	f013 0f03 	tst.w	r3, #3
    5cac:	d1fb      	bne.n	5ca6 <_spi_m_sync_init+0x6a>
    5cae:	69e3      	ldr	r3, [r4, #28]
    5cb0:	f013 0f02 	tst.w	r3, #2
    5cb4:	d1fb      	bne.n	5cae <_spi_m_sync_init+0x72>
    5cb6:	f042 0301 	orr.w	r3, r2, #1
    5cba:	6023      	str	r3, [r4, #0]
    5cbc:	69e3      	ldr	r3, [r4, #28]
    5cbe:	f013 0f03 	tst.w	r3, #3
    5cc2:	d1fb      	bne.n	5cbc <_spi_m_sync_init+0x80>
    5cc4:	69e3      	ldr	r3, [r4, #28]
    5cc6:	f013 0f01 	tst.w	r3, #1
    5cca:	d1fb      	bne.n	5cc4 <_spi_m_sync_init+0x88>
    5ccc:	6034      	str	r4, [r6, #0]
    5cce:	682b      	ldr	r3, [r5, #0]
    5cd0:	f003 031c 	and.w	r3, r3, #28
    5cd4:	2b08      	cmp	r3, #8
    5cd6:	d128      	bne.n	5d2a <_spi_m_sync_init+0xee>
    5cd8:	1c20      	adds	r0, r4, #0
    5cda:	bf18      	it	ne
    5cdc:	2001      	movne	r0, #1
    5cde:	492e      	ldr	r1, [pc, #184]	; (5d98 <_spi_m_sync_init+0x15c>)
    5ce0:	f640 1212 	movw	r2, #2322	; 0x912
    5ce4:	4b2d      	ldr	r3, [pc, #180]	; (5d9c <_spi_m_sync_init+0x160>)
    5ce6:	4798      	blx	r3
    5ce8:	682b      	ldr	r3, [r5, #0]
    5cea:	f423 7381 	bic.w	r3, r3, #258	; 0x102
    5cee:	f023 0301 	bic.w	r3, r3, #1
    5cf2:	6023      	str	r3, [r4, #0]
    5cf4:	69e3      	ldr	r3, [r4, #28]
    5cf6:	f013 0f03 	tst.w	r3, #3
    5cfa:	d1fb      	bne.n	5cf4 <_spi_m_sync_init+0xb8>
    5cfc:	686b      	ldr	r3, [r5, #4]
    5cfe:	f423 3308 	bic.w	r3, r3, #139264	; 0x22000
    5d02:	f423 7310 	bic.w	r3, r3, #576	; 0x240
    5d06:	f443 3300 	orr.w	r3, r3, #131072	; 0x20000
    5d0a:	f443 7310 	orr.w	r3, r3, #576	; 0x240
    5d0e:	6063      	str	r3, [r4, #4]
    5d10:	69e3      	ldr	r3, [r4, #28]
    5d12:	f013 0f17 	tst.w	r3, #23
    5d16:	d1fb      	bne.n	5d10 <_spi_m_sync_init+0xd4>
    5d18:	68ab      	ldr	r3, [r5, #8]
    5d1a:	6263      	str	r3, [r4, #36]	; 0x24
    5d1c:	7b6b      	ldrb	r3, [r5, #13]
    5d1e:	f884 3030 	strb.w	r3, [r4, #48]	; 0x30
    5d22:	69e3      	ldr	r3, [r4, #28]
    5d24:	2b00      	cmp	r3, #0
    5d26:	d1fc      	bne.n	5d22 <_spi_m_sync_init+0xe6>
    5d28:	e022      	b.n	5d70 <_spi_m_sync_init+0x134>
    5d2a:	1c20      	adds	r0, r4, #0
    5d2c:	bf18      	it	ne
    5d2e:	2001      	movne	r0, #1
    5d30:	4919      	ldr	r1, [pc, #100]	; (5d98 <_spi_m_sync_init+0x15c>)
    5d32:	f640 02fe 	movw	r2, #2302	; 0x8fe
    5d36:	4b19      	ldr	r3, [pc, #100]	; (5d9c <_spi_m_sync_init+0x160>)
    5d38:	4798      	blx	r3
    5d3a:	682b      	ldr	r3, [r5, #0]
    5d3c:	f423 7381 	bic.w	r3, r3, #258	; 0x102
    5d40:	f023 0301 	bic.w	r3, r3, #1
    5d44:	6023      	str	r3, [r4, #0]
    5d46:	69e3      	ldr	r3, [r4, #28]
    5d48:	f013 0f03 	tst.w	r3, #3
    5d4c:	d1fb      	bne.n	5d46 <_spi_m_sync_init+0x10a>
    5d4e:	686b      	ldr	r3, [r5, #4]
    5d50:	f423 3338 	bic.w	r3, r3, #188416	; 0x2e000
    5d54:	f423 7310 	bic.w	r3, r3, #576	; 0x240
    5d58:	f443 3300 	orr.w	r3, r3, #131072	; 0x20000
    5d5c:	6063      	str	r3, [r4, #4]
    5d5e:	69e3      	ldr	r3, [r4, #28]
    5d60:	f013 0f17 	tst.w	r3, #23
    5d64:	d1fb      	bne.n	5d5e <_spi_m_sync_init+0x122>
    5d66:	7b2b      	ldrb	r3, [r5, #12]
    5d68:	7323      	strb	r3, [r4, #12]
    5d6a:	7b6b      	ldrb	r3, [r5, #13]
    5d6c:	f884 3030 	strb.w	r3, [r4, #48]	; 0x30
    5d70:	686b      	ldr	r3, [r5, #4]
    5d72:	f003 0307 	and.w	r3, r3, #7
    5d76:	2b00      	cmp	r3, #0
    5d78:	bf14      	ite	ne
    5d7a:	2302      	movne	r3, #2
    5d7c:	2301      	moveq	r3, #1
    5d7e:	7133      	strb	r3, [r6, #4]
    5d80:	89eb      	ldrh	r3, [r5, #14]
    5d82:	80f3      	strh	r3, [r6, #6]
    5d84:	2000      	movs	r0, #0
    5d86:	bd70      	pop	{r4, r5, r6, pc}
    5d88:	f06f 000c 	mvn.w	r0, #12
    5d8c:	bd70      	pop	{r4, r5, r6, pc}
    5d8e:	bf00      	nop
    5d90:	000053f1 	.word	0x000053f1
    5d94:	000111b0 	.word	0x000111b0
    5d98:	000111ec 	.word	0x000111ec
    5d9c:	00004cf9 	.word	0x00004cf9

00005da0 <_spi_m_sync_enable>:
    5da0:	b510      	push	{r4, lr}
    5da2:	4604      	mov	r4, r0
    5da4:	b120      	cbz	r0, 5db0 <_spi_m_sync_enable+0x10>
    5da6:	6800      	ldr	r0, [r0, #0]
    5da8:	3000      	adds	r0, #0
    5daa:	bf18      	it	ne
    5dac:	2001      	movne	r0, #1
    5dae:	e000      	b.n	5db2 <_spi_m_sync_enable+0x12>
    5db0:	2000      	movs	r0, #0
    5db2:	4904      	ldr	r1, [pc, #16]	; (5dc4 <_spi_m_sync_enable+0x24>)
    5db4:	f640 1293 	movw	r2, #2451	; 0x993
    5db8:	4b03      	ldr	r3, [pc, #12]	; (5dc8 <_spi_m_sync_enable+0x28>)
    5dba:	4798      	blx	r3
    5dbc:	6820      	ldr	r0, [r4, #0]
    5dbe:	4b03      	ldr	r3, [pc, #12]	; (5dcc <_spi_m_sync_enable+0x2c>)
    5dc0:	4798      	blx	r3
    5dc2:	bd10      	pop	{r4, pc}
    5dc4:	000111ec 	.word	0x000111ec
    5dc8:	00004cf9 	.word	0x00004cf9
    5dcc:	00005435 	.word	0x00005435

00005dd0 <_spi_m_sync_disable>:
    5dd0:	b510      	push	{r4, lr}
    5dd2:	4604      	mov	r4, r0
    5dd4:	b120      	cbz	r0, 5de0 <_spi_m_sync_disable+0x10>
    5dd6:	6800      	ldr	r0, [r0, #0]
    5dd8:	3000      	adds	r0, #0
    5dda:	bf18      	it	ne
    5ddc:	2001      	movne	r0, #1
    5dde:	e000      	b.n	5de2 <_spi_m_sync_disable+0x12>
    5de0:	2000      	movs	r0, #0
    5de2:	4904      	ldr	r1, [pc, #16]	; (5df4 <_spi_m_sync_disable+0x24>)
    5de4:	f640 12af 	movw	r2, #2479	; 0x9af
    5de8:	4b03      	ldr	r3, [pc, #12]	; (5df8 <_spi_m_sync_disable+0x28>)
    5dea:	4798      	blx	r3
    5dec:	6820      	ldr	r0, [r4, #0]
    5dee:	4b03      	ldr	r3, [pc, #12]	; (5dfc <_spi_m_sync_disable+0x2c>)
    5df0:	4798      	blx	r3
    5df2:	bd10      	pop	{r4, pc}
    5df4:	000111ec 	.word	0x000111ec
    5df8:	00004cf9 	.word	0x00004cf9
    5dfc:	00005459 	.word	0x00005459

00005e00 <_spi_m_sync_set_mode>:
    5e00:	b538      	push	{r3, r4, r5, lr}
    5e02:	460d      	mov	r5, r1
    5e04:	4604      	mov	r4, r0
    5e06:	b120      	cbz	r0, 5e12 <_spi_m_sync_set_mode+0x12>
    5e08:	6800      	ldr	r0, [r0, #0]
    5e0a:	3000      	adds	r0, #0
    5e0c:	bf18      	it	ne
    5e0e:	2001      	movne	r0, #1
    5e10:	e000      	b.n	5e14 <_spi_m_sync_set_mode+0x14>
    5e12:	2000      	movs	r0, #0
    5e14:	4904      	ldr	r1, [pc, #16]	; (5e28 <_spi_m_sync_set_mode+0x28>)
    5e16:	f640 12cb 	movw	r2, #2507	; 0x9cb
    5e1a:	4b04      	ldr	r3, [pc, #16]	; (5e2c <_spi_m_sync_set_mode+0x2c>)
    5e1c:	4798      	blx	r3
    5e1e:	6820      	ldr	r0, [r4, #0]
    5e20:	4629      	mov	r1, r5
    5e22:	4b03      	ldr	r3, [pc, #12]	; (5e30 <_spi_m_sync_set_mode+0x30>)
    5e24:	4798      	blx	r3
    5e26:	bd38      	pop	{r3, r4, r5, pc}
    5e28:	000111ec 	.word	0x000111ec
    5e2c:	00004cf9 	.word	0x00004cf9
    5e30:	0000547d 	.word	0x0000547d

00005e34 <_spi_m_sync_trans>:
    5e34:	e92d 43f8 	stmdb	sp!, {r3, r4, r5, r6, r7, r8, r9, lr}
    5e38:	4681      	mov	r9, r0
    5e3a:	460e      	mov	r6, r1
    5e3c:	6804      	ldr	r4, [r0, #0]
    5e3e:	f8d1 8000 	ldr.w	r8, [r1]
    5e42:	684d      	ldr	r5, [r1, #4]
    5e44:	7907      	ldrb	r7, [r0, #4]
    5e46:	b118      	cbz	r0, 5e50 <_spi_m_sync_trans+0x1c>
    5e48:	1c20      	adds	r0, r4, #0
    5e4a:	bf18      	it	ne
    5e4c:	2001      	movne	r0, #1
    5e4e:	e000      	b.n	5e52 <_spi_m_sync_trans+0x1e>
    5e50:	2000      	movs	r0, #0
    5e52:	492e      	ldr	r1, [pc, #184]	; (5f0c <_spi_m_sync_trans+0xd8>)
    5e54:	f640 2298 	movw	r2, #2712	; 0xa98
    5e58:	4b2d      	ldr	r3, [pc, #180]	; (5f10 <_spi_m_sync_trans+0xdc>)
    5e5a:	4798      	blx	r3
    5e5c:	69e3      	ldr	r3, [r4, #28]
    5e5e:	f013 0f07 	tst.w	r3, #7
    5e62:	d144      	bne.n	5eee <_spi_m_sync_trans+0xba>
    5e64:	69e3      	ldr	r3, [r4, #28]
    5e66:	f013 0f03 	tst.w	r3, #3
    5e6a:	d1fb      	bne.n	5e64 <_spi_m_sync_trans+0x30>
    5e6c:	6823      	ldr	r3, [r4, #0]
    5e6e:	f013 0f02 	tst.w	r3, #2
    5e72:	d040      	beq.n	5ef6 <_spi_m_sync_trans+0xc2>
    5e74:	2200      	movs	r2, #0
    5e76:	4610      	mov	r0, r2
    5e78:	7e23      	ldrb	r3, [r4, #24]
    5e7a:	b2db      	uxtb	r3, r3
    5e7c:	f013 0f04 	tst.w	r3, #4
    5e80:	d03d      	beq.n	5efe <_spi_m_sync_trans+0xca>
    5e82:	6aa1      	ldr	r1, [r4, #40]	; 0x28
    5e84:	b135      	cbz	r5, 5e94 <_spi_m_sync_trans+0x60>
    5e86:	7029      	strb	r1, [r5, #0]
    5e88:	2f01      	cmp	r7, #1
    5e8a:	bf91      	iteee	ls
    5e8c:	3501      	addls	r5, #1
    5e8e:	0a09      	lsrhi	r1, r1, #8
    5e90:	7069      	strbhi	r1, [r5, #1]
    5e92:	3502      	addhi	r5, #2
    5e94:	3201      	adds	r2, #1
    5e96:	e015      	b.n	5ec4 <_spi_m_sync_trans+0x90>
    5e98:	f8b9 1006 	ldrh.w	r1, [r9, #6]
    5e9c:	f013 0f01 	tst.w	r3, #1
    5ea0:	d010      	beq.n	5ec4 <_spi_m_sync_trans+0x90>
    5ea2:	f1b8 0f00 	cmp.w	r8, #0
    5ea6:	d00b      	beq.n	5ec0 <_spi_m_sync_trans+0x8c>
    5ea8:	f898 1000 	ldrb.w	r1, [r8]
    5eac:	2f01      	cmp	r7, #1
    5eae:	bf91      	iteee	ls
    5eb0:	f108 0801 	addls.w	r8, r8, #1
    5eb4:	f898 c001 	ldrbhi.w	ip, [r8, #1]
    5eb8:	ea41 210c 	orrhi.w	r1, r1, ip, lsl #8
    5ebc:	f108 0802 	addhi.w	r8, r8, #2
    5ec0:	3001      	adds	r0, #1
    5ec2:	62a1      	str	r1, [r4, #40]	; 0x28
    5ec4:	f013 0f80 	tst.w	r3, #128	; 0x80
    5ec8:	d01c      	beq.n	5f04 <_spi_m_sync_trans+0xd0>
    5eca:	f64f 73ff 	movw	r3, #65535	; 0xffff
    5ece:	8363      	strh	r3, [r4, #26]
    5ed0:	2380      	movs	r3, #128	; 0x80
    5ed2:	7623      	strb	r3, [r4, #24]
    5ed4:	f06f 0012 	mvn.w	r0, #18
    5ed8:	e001      	b.n	5ede <_spi_m_sync_trans+0xaa>
    5eda:	4293      	cmp	r3, r2
    5edc:	d8cc      	bhi.n	5e78 <_spi_m_sync_trans+0x44>
    5ede:	7e23      	ldrb	r3, [r4, #24]
    5ee0:	f013 0f03 	tst.w	r3, #3
    5ee4:	d0fb      	beq.n	5ede <_spi_m_sync_trans+0xaa>
    5ee6:	2303      	movs	r3, #3
    5ee8:	7623      	strb	r3, [r4, #24]
    5eea:	e8bd 83f8 	ldmia.w	sp!, {r3, r4, r5, r6, r7, r8, r9, pc}
    5eee:	f06f 0003 	mvn.w	r0, #3
    5ef2:	e8bd 83f8 	ldmia.w	sp!, {r3, r4, r5, r6, r7, r8, r9, pc}
    5ef6:	f06f 0013 	mvn.w	r0, #19
    5efa:	e8bd 83f8 	ldmia.w	sp!, {r3, r4, r5, r6, r7, r8, r9, pc}
    5efe:	4282      	cmp	r2, r0
    5f00:	d3e0      	bcc.n	5ec4 <_spi_m_sync_trans+0x90>
    5f02:	e7c9      	b.n	5e98 <_spi_m_sync_trans+0x64>
    5f04:	68b3      	ldr	r3, [r6, #8]
    5f06:	4298      	cmp	r0, r3
    5f08:	d2e7      	bcs.n	5eda <_spi_m_sync_trans+0xa6>
    5f0a:	e7b5      	b.n	5e78 <_spi_m_sync_trans+0x44>
    5f0c:	000111ec 	.word	0x000111ec
    5f10:	00004cf9 	.word	0x00004cf9

00005f14 <_dummy_func_no_return>:
    5f14:	2000      	movs	r0, #0
    5f16:	4770      	bx	lr

00005f18 <_usb_d_dev_handle_setup>:
    5f18:	b538      	push	{r3, r4, r5, lr}
    5f1a:	7c83      	ldrb	r3, [r0, #18]
    5f1c:	f003 030f 	and.w	r3, r3, #15
    5f20:	7cc2      	ldrb	r2, [r0, #19]
    5f22:	f002 0207 	and.w	r2, r2, #7
    5f26:	2a01      	cmp	r2, #1
    5f28:	d00b      	beq.n	5f42 <_usb_d_dev_handle_setup+0x2a>
    5f2a:	015a      	lsls	r2, r3, #5
    5f2c:	f102 4282 	add.w	r2, r2, #1090519040	; 0x41000000
    5f30:	2110      	movs	r1, #16
    5f32:	f882 1107 	strb.w	r1, [r2, #263]	; 0x107
    5f36:	015b      	lsls	r3, r3, #5
    5f38:	f103 4382 	add.w	r3, r3, #1090519040	; 0x41000000
    5f3c:	f883 1108 	strb.w	r1, [r3, #264]	; 0x108
    5f40:	bd38      	pop	{r3, r4, r5, pc}
    5f42:	7cc2      	ldrb	r2, [r0, #19]
    5f44:	f012 0f40 	tst.w	r2, #64	; 0x40
    5f48:	d00c      	beq.n	5f64 <_usb_d_dev_handle_setup+0x4c>
    5f4a:	7cc2      	ldrb	r2, [r0, #19]
    5f4c:	f36f 1286 	bfc	r2, #6, #1
    5f50:	74c2      	strb	r2, [r0, #19]
    5f52:	015a      	lsls	r2, r3, #5
    5f54:	f102 4282 	add.w	r2, r2, #1090519040	; 0x41000000
    5f58:	2180      	movs	r1, #128	; 0x80
    5f5a:	f882 1104 	strb.w	r1, [r2, #260]	; 0x104
    5f5e:	2140      	movs	r1, #64	; 0x40
    5f60:	f882 1105 	strb.w	r1, [r2, #261]	; 0x105
    5f64:	7cc2      	ldrb	r2, [r0, #19]
    5f66:	f36f 02c3 	bfc	r2, #3, #1
    5f6a:	74c2      	strb	r2, [r0, #19]
    5f6c:	4c0b      	ldr	r4, [pc, #44]	; (5f9c <_usb_d_dev_handle_setup+0x84>)
    5f6e:	015a      	lsls	r2, r3, #5
    5f70:	18a5      	adds	r5, r4, r2
    5f72:	2100      	movs	r1, #0
    5f74:	72a9      	strb	r1, [r5, #10]
    5f76:	f102 0510 	add.w	r5, r2, #16
    5f7a:	442c      	add	r4, r5
    5f7c:	72a1      	strb	r1, [r4, #10]
    5f7e:	f102 4382 	add.w	r3, r2, #1090519040	; 0x41000000
    5f82:	216f      	movs	r1, #111	; 0x6f
    5f84:	f883 1107 	strb.w	r1, [r3, #263]	; 0x107
    5f88:	f102 4282 	add.w	r2, r2, #1090519040	; 0x41000000
    5f8c:	f882 1108 	strb.w	r1, [r2, #264]	; 0x108
    5f90:	4b03      	ldr	r3, [pc, #12]	; (5fa0 <_usb_d_dev_handle_setup+0x88>)
    5f92:	689b      	ldr	r3, [r3, #8]
    5f94:	7c80      	ldrb	r0, [r0, #18]
    5f96:	4798      	blx	r3
    5f98:	bd38      	pop	{r3, r4, r5, pc}
    5f9a:	bf00      	nop
    5f9c:	20000ab8 	.word	0x20000ab8
    5fa0:	20000b18 	.word	0x20000b18

00005fa4 <_usb_d_dev_handle_stall>:
    5fa4:	b510      	push	{r4, lr}
    5fa6:	4603      	mov	r3, r0
    5fa8:	2220      	movs	r2, #32
    5faa:	fa02 f101 	lsl.w	r1, r2, r1
    5fae:	b2ca      	uxtb	r2, r1
    5fb0:	7c80      	ldrb	r0, [r0, #18]
    5fb2:	f000 000f 	and.w	r0, r0, #15
    5fb6:	0140      	lsls	r0, r0, #5
    5fb8:	f100 4082 	add.w	r0, r0, #1090519040	; 0x41000000
    5fbc:	f880 2108 	strb.w	r2, [r0, #264]	; 0x108
    5fc0:	4a03      	ldr	r2, [pc, #12]	; (5fd0 <_usb_d_dev_handle_stall+0x2c>)
    5fc2:	6914      	ldr	r4, [r2, #16]
    5fc4:	7c98      	ldrb	r0, [r3, #18]
    5fc6:	2101      	movs	r1, #1
    5fc8:	689a      	ldr	r2, [r3, #8]
    5fca:	47a0      	blx	r4
    5fcc:	bd10      	pop	{r4, pc}
    5fce:	bf00      	nop
    5fd0:	20000b18 	.word	0x20000b18

00005fd4 <_usb_d_dev_trans_done>:
    5fd4:	b510      	push	{r4, lr}
    5fd6:	4603      	mov	r3, r0
    5fd8:	7c80      	ldrb	r0, [r0, #18]
    5fda:	28ff      	cmp	r0, #255	; 0xff
    5fdc:	d00b      	beq.n	5ff6 <_usb_d_dev_trans_done+0x22>
    5fde:	7cda      	ldrb	r2, [r3, #19]
    5fe0:	f012 0f40 	tst.w	r2, #64	; 0x40
    5fe4:	d007      	beq.n	5ff6 <_usb_d_dev_trans_done+0x22>
    5fe6:	7cda      	ldrb	r2, [r3, #19]
    5fe8:	f36f 1286 	bfc	r2, #6, #1
    5fec:	74da      	strb	r2, [r3, #19]
    5fee:	4a02      	ldr	r2, [pc, #8]	; (5ff8 <_usb_d_dev_trans_done+0x24>)
    5ff0:	6914      	ldr	r4, [r2, #16]
    5ff2:	689a      	ldr	r2, [r3, #8]
    5ff4:	47a0      	blx	r4
    5ff6:	bd10      	pop	{r4, pc}
    5ff8:	20000b18 	.word	0x20000b18

00005ffc <_usb_d_dev_trans_stop>:
    5ffc:	b530      	push	{r4, r5, lr}
    5ffe:	b083      	sub	sp, #12
    6000:	7c83      	ldrb	r3, [r0, #18]
    6002:	4c16      	ldr	r4, [pc, #88]	; (605c <_usb_d_dev_trans_stop+0x60>)
    6004:	8824      	ldrh	r4, [r4, #0]
    6006:	f8ad 4004 	strh.w	r4, [sp, #4]
    600a:	2bff      	cmp	r3, #255	; 0xff
    600c:	d024      	beq.n	6058 <_usb_d_dev_trans_stop+0x5c>
    600e:	7cc4      	ldrb	r4, [r0, #19]
    6010:	f014 0f40 	tst.w	r4, #64	; 0x40
    6014:	d020      	beq.n	6058 <_usb_d_dev_trans_stop+0x5c>
    6016:	f003 030f 	and.w	r3, r3, #15
    601a:	b131      	cbz	r1, 602a <_usb_d_dev_trans_stop+0x2e>
    601c:	015c      	lsls	r4, r3, #5
    601e:	f104 4482 	add.w	r4, r4, #1090519040	; 0x41000000
    6022:	2580      	movs	r5, #128	; 0x80
    6024:	f884 5104 	strb.w	r5, [r4, #260]	; 0x104
    6028:	e005      	b.n	6036 <_usb_d_dev_trans_stop+0x3a>
    602a:	015c      	lsls	r4, r3, #5
    602c:	f104 4482 	add.w	r4, r4, #1090519040	; 0x41000000
    6030:	2540      	movs	r5, #64	; 0x40
    6032:	f884 5105 	strb.w	r5, [r4, #261]	; 0x105
    6036:	ac02      	add	r4, sp, #8
    6038:	4421      	add	r1, r4
    603a:	f811 1c04 	ldrb.w	r1, [r1, #-4]
    603e:	015c      	lsls	r4, r3, #5
    6040:	f104 4482 	add.w	r4, r4, #1090519040	; 0x41000000
    6044:	f884 1107 	strb.w	r1, [r4, #263]	; 0x107
    6048:	015b      	lsls	r3, r3, #5
    604a:	f103 4382 	add.w	r3, r3, #1090519040	; 0x41000000
    604e:	f883 1108 	strb.w	r1, [r3, #264]	; 0x108
    6052:	4611      	mov	r1, r2
    6054:	4b02      	ldr	r3, [pc, #8]	; (6060 <_usb_d_dev_trans_stop+0x64>)
    6056:	4798      	blx	r3
    6058:	b003      	add	sp, #12
    605a:	bd30      	pop	{r4, r5, pc}
    605c:	00011214 	.word	0x00011214
    6060:	00005fd5 	.word	0x00005fd5

00006064 <_usb_d_dev_handle_trfail>:
    6064:	b570      	push	{r4, r5, r6, lr}
    6066:	b082      	sub	sp, #8
    6068:	7c83      	ldrb	r3, [r0, #18]
    606a:	f003 030f 	and.w	r3, r3, #15
    606e:	4a3d      	ldr	r2, [pc, #244]	; (6164 <_usb_d_dev_handle_trfail+0x100>)
    6070:	8812      	ldrh	r2, [r2, #0]
    6072:	f8ad 2004 	strh.w	r2, [sp, #4]
    6076:	4c3c      	ldr	r4, [pc, #240]	; (6168 <_usb_d_dev_handle_trfail+0x104>)
    6078:	eb04 1443 	add.w	r4, r4, r3, lsl #5
    607c:	460a      	mov	r2, r1
    607e:	b139      	cbz	r1, 6090 <_usb_d_dev_handle_trfail+0x2c>
    6080:	0159      	lsls	r1, r3, #5
    6082:	f101 4182 	add.w	r1, r1, #1090519040	; 0x41000000
    6086:	f891 5100 	ldrb.w	r5, [r1, #256]	; 0x100
    608a:	f3c5 1502 	ubfx	r5, r5, #4, #3
    608e:	e006      	b.n	609e <_usb_d_dev_handle_trfail+0x3a>
    6090:	0159      	lsls	r1, r3, #5
    6092:	f101 4182 	add.w	r1, r1, #1090519040	; 0x41000000
    6096:	f891 5100 	ldrb.w	r5, [r1, #256]	; 0x100
    609a:	f005 0507 	and.w	r5, r5, #7
    609e:	7cc1      	ldrb	r1, [r0, #19]
    60a0:	f001 0607 	and.w	r6, r1, #7
    60a4:	eb04 1102 	add.w	r1, r4, r2, lsl #4
    60a8:	7a8c      	ldrb	r4, [r1, #10]
    60aa:	b2e4      	uxtb	r4, r4
    60ac:	2d02      	cmp	r5, #2
    60ae:	d11b      	bne.n	60e8 <_usb_d_dev_handle_trfail+0x84>
    60b0:	f014 0f01 	tst.w	r4, #1
    60b4:	d018      	beq.n	60e8 <_usb_d_dev_handle_trfail+0x84>
    60b6:	7a8c      	ldrb	r4, [r1, #10]
    60b8:	f36f 0400 	bfc	r4, #0, #1
    60bc:	728c      	strb	r4, [r1, #10]
    60be:	a902      	add	r1, sp, #8
    60c0:	4411      	add	r1, r2
    60c2:	f811 4c04 	ldrb.w	r4, [r1, #-4]
    60c6:	0159      	lsls	r1, r3, #5
    60c8:	f101 4182 	add.w	r1, r1, #1090519040	; 0x41000000
    60cc:	f881 4107 	strb.w	r4, [r1, #263]	; 0x107
    60d0:	015b      	lsls	r3, r3, #5
    60d2:	f103 4382 	add.w	r3, r3, #1090519040	; 0x41000000
    60d6:	f883 4108 	strb.w	r4, [r3, #264]	; 0x108
    60da:	1c11      	adds	r1, r2, #0
    60dc:	bf18      	it	ne
    60de:	2101      	movne	r1, #1
    60e0:	2204      	movs	r2, #4
    60e2:	4b22      	ldr	r3, [pc, #136]	; (616c <_usb_d_dev_handle_trfail+0x108>)
    60e4:	4798      	blx	r3
    60e6:	e03a      	b.n	615e <_usb_d_dev_handle_trfail+0xfa>
    60e8:	f014 0f02 	tst.w	r4, #2
    60ec:	d020      	beq.n	6130 <_usb_d_dev_handle_trfail+0xcc>
    60ee:	7a8c      	ldrb	r4, [r1, #10]
    60f0:	f36f 0441 	bfc	r4, #1, #1
    60f4:	728c      	strb	r4, [r1, #10]
    60f6:	a902      	add	r1, sp, #8
    60f8:	4411      	add	r1, r2
    60fa:	f811 5c04 	ldrb.w	r5, [r1, #-4]
    60fe:	015c      	lsls	r4, r3, #5
    6100:	f104 4482 	add.w	r4, r4, #1090519040	; 0x41000000
    6104:	f884 5107 	strb.w	r5, [r4, #263]	; 0x107
    6108:	f811 1c04 	ldrb.w	r1, [r1, #-4]
    610c:	015b      	lsls	r3, r3, #5
    610e:	f103 4382 	add.w	r3, r3, #1090519040	; 0x41000000
    6112:	f883 1108 	strb.w	r1, [r3, #264]	; 0x108
    6116:	2e01      	cmp	r6, #1
    6118:	d121      	bne.n	615e <_usb_d_dev_handle_trfail+0xfa>
    611a:	7cc3      	ldrb	r3, [r0, #19]
    611c:	f013 0f40 	tst.w	r3, #64	; 0x40
    6120:	d01d      	beq.n	615e <_usb_d_dev_handle_trfail+0xfa>
    6122:	09d9      	lsrs	r1, r3, #7
    6124:	4291      	cmp	r1, r2
    6126:	d01a      	beq.n	615e <_usb_d_dev_handle_trfail+0xfa>
    6128:	2200      	movs	r2, #0
    612a:	4b10      	ldr	r3, [pc, #64]	; (616c <_usb_d_dev_handle_trfail+0x108>)
    612c:	4798      	blx	r3
    612e:	e016      	b.n	615e <_usb_d_dev_handle_trfail+0xfa>
    6130:	eb02 0043 	add.w	r0, r2, r3, lsl #1
    6134:	490c      	ldr	r1, [pc, #48]	; (6168 <_usb_d_dev_handle_trfail+0x104>)
    6136:	eb01 1100 	add.w	r1, r1, r0, lsl #4
    613a:	2000      	movs	r0, #0
    613c:	7288      	strb	r0, [r1, #10]
    613e:	a902      	add	r1, sp, #8
    6140:	440a      	add	r2, r1
    6142:	f812 0c04 	ldrb.w	r0, [r2, #-4]
    6146:	0159      	lsls	r1, r3, #5
    6148:	f101 4182 	add.w	r1, r1, #1090519040	; 0x41000000
    614c:	f881 0107 	strb.w	r0, [r1, #263]	; 0x107
    6150:	f812 2c04 	ldrb.w	r2, [r2, #-4]
    6154:	015b      	lsls	r3, r3, #5
    6156:	f103 4382 	add.w	r3, r3, #1090519040	; 0x41000000
    615a:	f883 2108 	strb.w	r2, [r3, #264]	; 0x108
    615e:	b002      	add	sp, #8
    6160:	bd70      	pop	{r4, r5, r6, pc}
    6162:	bf00      	nop
    6164:	00011218 	.word	0x00011218
    6168:	20000ab8 	.word	0x20000ab8
    616c:	00005ffd 	.word	0x00005ffd

00006170 <_usb_d_dev_reset_epts>:
    6170:	e92d 41f0 	stmdb	sp!, {r4, r5, r6, r7, r8, lr}
    6174:	4b0b      	ldr	r3, [pc, #44]	; (61a4 <_usb_d_dev_reset_epts+0x34>)
    6176:	f103 0414 	add.w	r4, r3, #20
    617a:	f103 08c8 	add.w	r8, r3, #200	; 0xc8
    617e:	2703      	movs	r7, #3
    6180:	4e09      	ldr	r6, [pc, #36]	; (61a8 <_usb_d_dev_reset_epts+0x38>)
    6182:	25ff      	movs	r5, #255	; 0xff
    6184:	4620      	mov	r0, r4
    6186:	4639      	mov	r1, r7
    6188:	47b0      	blx	r6
    618a:	74a5      	strb	r5, [r4, #18]
    618c:	2300      	movs	r3, #0
    618e:	74e3      	strb	r3, [r4, #19]
    6190:	3414      	adds	r4, #20
    6192:	4544      	cmp	r4, r8
    6194:	d1f6      	bne.n	6184 <_usb_d_dev_reset_epts+0x14>
    6196:	4805      	ldr	r0, [pc, #20]	; (61ac <_usb_d_dev_reset_epts+0x3c>)
    6198:	4619      	mov	r1, r3
    619a:	2260      	movs	r2, #96	; 0x60
    619c:	4b04      	ldr	r3, [pc, #16]	; (61b0 <_usb_d_dev_reset_epts+0x40>)
    619e:	4798      	blx	r3
    61a0:	e8bd 81f0 	ldmia.w	sp!, {r4, r5, r6, r7, r8, pc}
    61a4:	20000b18 	.word	0x20000b18
    61a8:	00005fd5 	.word	0x00005fd5
    61ac:	20000ab8 	.word	0x20000ab8
    61b0:	0000b611 	.word	0x0000b611

000061b4 <_usb_d_dev_in_next>:
    61b4:	e92d 41f0 	stmdb	sp!, {r4, r5, r6, r7, r8, lr}
    61b8:	4604      	mov	r4, r0
    61ba:	7c85      	ldrb	r5, [r0, #18]
    61bc:	f005 050f 	and.w	r5, r5, #15
    61c0:	460e      	mov	r6, r1
    61c2:	b131      	cbz	r1, 61d2 <_usb_d_dev_in_next+0x1e>
    61c4:	4b50      	ldr	r3, [pc, #320]	; (6308 <_usb_d_dev_in_next+0x154>)
    61c6:	eb03 1345 	add.w	r3, r3, r5, lsl #5
    61ca:	6959      	ldr	r1, [r3, #20]
    61cc:	f3c1 010d 	ubfx	r1, r1, #0, #14
    61d0:	e000      	b.n	61d4 <_usb_d_dev_in_next+0x20>
    61d2:	2100      	movs	r1, #0
    61d4:	8a23      	ldrh	r3, [r4, #16]
    61d6:	f240 32ff 	movw	r2, #1023	; 0x3ff
    61da:	4293      	cmp	r3, r2
    61dc:	bf1a      	itte	ne
    61de:	f103 33ff 	addne.w	r3, r3, #4294967295	; 0xffffffff
    61e2:	b298      	uxthne	r0, r3
    61e4:	f240 30ff 	movweq	r0, #1023	; 0x3ff
    61e8:	7ce7      	ldrb	r7, [r4, #19]
    61ea:	f007 0707 	and.w	r7, r7, #7
    61ee:	2f01      	cmp	r7, #1
    61f0:	bf14      	ite	ne
    61f2:	2700      	movne	r7, #0
    61f4:	2701      	moveq	r7, #1
    61f6:	b12e      	cbz	r6, 6204 <_usb_d_dev_in_next+0x50>
    61f8:	016a      	lsls	r2, r5, #5
    61fa:	f102 4282 	add.w	r2, r2, #1090519040	; 0x41000000
    61fe:	2302      	movs	r3, #2
    6200:	f882 3107 	strb.w	r3, [r2, #263]	; 0x107
    6204:	68a3      	ldr	r3, [r4, #8]
    6206:	440b      	add	r3, r1
    6208:	60a3      	str	r3, [r4, #8]
    620a:	6862      	ldr	r2, [r4, #4]
    620c:	4293      	cmp	r3, r2
    620e:	d22e      	bcs.n	626e <_usb_d_dev_in_next+0xba>
    6210:	ebc3 0802 	rsb	r8, r3, r2
    6214:	fa1f f888 	uxth.w	r8, r8
    6218:	7ce2      	ldrb	r2, [r4, #19]
    621a:	f012 0f20 	tst.w	r2, #32
    621e:	d00f      	beq.n	6240 <_usb_d_dev_in_next+0x8c>
    6220:	8a22      	ldrh	r2, [r4, #16]
    6222:	4590      	cmp	r8, r2
    6224:	bf28      	it	cs
    6226:	4690      	movcs	r8, r2
    6228:	6821      	ldr	r1, [r4, #0]
    622a:	68e0      	ldr	r0, [r4, #12]
    622c:	4419      	add	r1, r3
    622e:	4642      	mov	r2, r8
    6230:	4b36      	ldr	r3, [pc, #216]	; (630c <_usb_d_dev_in_next+0x158>)
    6232:	4798      	blx	r3
    6234:	68e1      	ldr	r1, [r4, #12]
    6236:	016b      	lsls	r3, r5, #5
    6238:	3310      	adds	r3, #16
    623a:	4a33      	ldr	r2, [pc, #204]	; (6308 <_usb_d_dev_in_next+0x154>)
    623c:	50d1      	str	r1, [r2, r3]
    623e:	e00a      	b.n	6256 <_usb_d_dev_in_next+0xa2>
    6240:	f5b8 5f00 	cmp.w	r8, #8192	; 0x2000
    6244:	bf28      	it	cs
    6246:	f44f 5800 	movcs.w	r8, #8192	; 0x2000
    624a:	6822      	ldr	r2, [r4, #0]
    624c:	4413      	add	r3, r2
    624e:	016a      	lsls	r2, r5, #5
    6250:	3210      	adds	r2, #16
    6252:	492d      	ldr	r1, [pc, #180]	; (6308 <_usb_d_dev_in_next+0x154>)
    6254:	508b      	str	r3, [r1, r2]
    6256:	4b2c      	ldr	r3, [pc, #176]	; (6308 <_usb_d_dev_in_next+0x154>)
    6258:	eb03 1345 	add.w	r3, r3, r5, lsl #5
    625c:	6959      	ldr	r1, [r3, #20]
    625e:	f368 010d 	bfi	r1, r8, #0, #14
    6262:	6159      	str	r1, [r3, #20]
    6264:	695a      	ldr	r2, [r3, #20]
    6266:	f36f 329b 	bfc	r2, #14, #14
    626a:	615a      	str	r2, [r3, #20]
    626c:	e039      	b.n	62e2 <_usb_d_dev_in_next+0x12e>
    626e:	7ce3      	ldrb	r3, [r4, #19]
    6270:	f013 0f10 	tst.w	r3, #16
    6274:	d00f      	beq.n	6296 <_usb_d_dev_in_next+0xe2>
    6276:	7ce3      	ldrb	r3, [r4, #19]
    6278:	f36f 1304 	bfc	r3, #4, #1
    627c:	74e3      	strb	r3, [r4, #19]
    627e:	4b22      	ldr	r3, [pc, #136]	; (6308 <_usb_d_dev_in_next+0x154>)
    6280:	eb03 1345 	add.w	r3, r3, r5, lsl #5
    6284:	695a      	ldr	r2, [r3, #20]
    6286:	f36f 020d 	bfc	r2, #0, #14
    628a:	615a      	str	r2, [r3, #20]
    628c:	695a      	ldr	r2, [r3, #20]
    628e:	f36f 329b 	bfc	r2, #14, #14
    6292:	615a      	str	r2, [r3, #20]
    6294:	e025      	b.n	62e2 <_usb_d_dev_in_next+0x12e>
    6296:	b137      	cbz	r7, 62a6 <_usb_d_dev_in_next+0xf2>
    6298:	016d      	lsls	r5, r5, #5
    629a:	f105 4582 	add.w	r5, r5, #1090519040	; 0x41000000
    629e:	234b      	movs	r3, #75	; 0x4b
    62a0:	f885 3108 	strb.w	r3, [r5, #264]	; 0x108
    62a4:	e005      	b.n	62b2 <_usb_d_dev_in_next+0xfe>
    62a6:	016d      	lsls	r5, r5, #5
    62a8:	f105 4582 	add.w	r5, r5, #1090519040	; 0x41000000
    62ac:	234a      	movs	r3, #74	; 0x4a
    62ae:	f885 3108 	strb.w	r3, [r5, #264]	; 0x108
    62b2:	8a23      	ldrh	r3, [r4, #16]
    62b4:	4001      	ands	r1, r0
    62b6:	428b      	cmp	r3, r1
    62b8:	d10d      	bne.n	62d6 <_usb_d_dev_in_next+0x122>
    62ba:	7ce3      	ldrb	r3, [r4, #19]
    62bc:	f36f 1386 	bfc	r3, #6, #1
    62c0:	74e3      	strb	r3, [r4, #19]
    62c2:	4b13      	ldr	r3, [pc, #76]	; (6310 <_usb_d_dev_in_next+0x15c>)
    62c4:	68db      	ldr	r3, [r3, #12]
    62c6:	7ca0      	ldrb	r0, [r4, #18]
    62c8:	68a1      	ldr	r1, [r4, #8]
    62ca:	4798      	blx	r3
    62cc:	b9c8      	cbnz	r0, 6302 <_usb_d_dev_in_next+0x14e>
    62ce:	7ce3      	ldrb	r3, [r4, #19]
    62d0:	f043 0340 	orr.w	r3, r3, #64	; 0x40
    62d4:	74e3      	strb	r3, [r4, #19]
    62d6:	4620      	mov	r0, r4
    62d8:	2100      	movs	r1, #0
    62da:	4b0e      	ldr	r3, [pc, #56]	; (6314 <_usb_d_dev_in_next+0x160>)
    62dc:	4798      	blx	r3
    62de:	e8bd 81f0 	ldmia.w	sp!, {r4, r5, r6, r7, r8, pc}
    62e2:	b946      	cbnz	r6, 62f6 <_usb_d_dev_in_next+0x142>
    62e4:	2f00      	cmp	r7, #0
    62e6:	bf0c      	ite	eq
    62e8:	224a      	moveq	r2, #74	; 0x4a
    62ea:	224e      	movne	r2, #78	; 0x4e
    62ec:	016b      	lsls	r3, r5, #5
    62ee:	f103 4382 	add.w	r3, r3, #1090519040	; 0x41000000
    62f2:	f883 2109 	strb.w	r2, [r3, #265]	; 0x109
    62f6:	016d      	lsls	r5, r5, #5
    62f8:	f105 4582 	add.w	r5, r5, #1090519040	; 0x41000000
    62fc:	2380      	movs	r3, #128	; 0x80
    62fe:	f885 3105 	strb.w	r3, [r5, #261]	; 0x105
    6302:	e8bd 81f0 	ldmia.w	sp!, {r4, r5, r6, r7, r8, pc}
    6306:	bf00      	nop
    6308:	20000ab8 	.word	0x20000ab8
    630c:	0000b4dd 	.word	0x0000b4dd
    6310:	20000b18 	.word	0x20000b18
    6314:	00005fd5 	.word	0x00005fd5

00006318 <_usb_d_dev_out_next>:
    6318:	e92d 4ff0 	stmdb	sp!, {r4, r5, r6, r7, r8, r9, sl, fp, lr}
    631c:	b085      	sub	sp, #20
    631e:	4604      	mov	r4, r0
    6320:	7c85      	ldrb	r5, [r0, #18]
    6322:	f005 050f 	and.w	r5, r5, #15
    6326:	f8df 91a0 	ldr.w	r9, [pc, #416]	; 64c8 <_usb_d_dev_out_next+0x1b0>
    632a:	ea4f 1845 	mov.w	r8, r5, lsl #5
    632e:	eb09 0608 	add.w	r6, r9, r8
    6332:	460f      	mov	r7, r1
    6334:	b131      	cbz	r1, 6344 <_usb_d_dev_out_next+0x2c>
    6336:	6873      	ldr	r3, [r6, #4]
    6338:	f3c3 3b8d 	ubfx	fp, r3, #14, #14
    633c:	6873      	ldr	r3, [r6, #4]
    633e:	f3c3 0a0d 	ubfx	sl, r3, #0, #14
    6342:	e002      	b.n	634a <_usb_d_dev_out_next+0x32>
    6344:	f04f 0b00 	mov.w	fp, #0
    6348:	46da      	mov	sl, fp
    634a:	8a23      	ldrh	r3, [r4, #16]
    634c:	f240 32ff 	movw	r2, #1023	; 0x3ff
    6350:	4293      	cmp	r3, r2
    6352:	d003      	beq.n	635c <_usb_d_dev_out_next+0x44>
    6354:	3b01      	subs	r3, #1
    6356:	b29b      	uxth	r3, r3
    6358:	9301      	str	r3, [sp, #4]
    635a:	e002      	b.n	6362 <_usb_d_dev_out_next+0x4a>
    635c:	f240 31ff 	movw	r1, #1023	; 0x3ff
    6360:	9101      	str	r1, [sp, #4]
    6362:	9b01      	ldr	r3, [sp, #4]
    6364:	ea03 030a 	and.w	r3, r3, sl
    6368:	9303      	str	r3, [sp, #12]
    636a:	7ce3      	ldrb	r3, [r4, #19]
    636c:	f003 0307 	and.w	r3, r3, #7
    6370:	2b01      	cmp	r3, #1
    6372:	bf14      	ite	ne
    6374:	2300      	movne	r3, #0
    6376:	2301      	moveq	r3, #1
    6378:	9302      	str	r3, [sp, #8]
    637a:	b12f      	cbz	r7, 6388 <_usb_d_dev_out_next+0x70>
    637c:	016b      	lsls	r3, r5, #5
    637e:	f103 4382 	add.w	r3, r3, #1090519040	; 0x41000000
    6382:	2201      	movs	r2, #1
    6384:	f883 2107 	strb.w	r2, [r3, #263]	; 0x107
    6388:	7ce3      	ldrb	r3, [r4, #19]
    638a:	f013 0f20 	tst.w	r3, #32
    638e:	d00d      	beq.n	63ac <_usb_d_dev_out_next+0x94>
    6390:	6863      	ldr	r3, [r4, #4]
    6392:	b16b      	cbz	r3, 63b0 <_usb_d_dev_out_next+0x98>
    6394:	68a1      	ldr	r1, [r4, #8]
    6396:	6820      	ldr	r0, [r4, #0]
    6398:	1a5b      	subs	r3, r3, r1
    639a:	b29a      	uxth	r2, r3
    639c:	4408      	add	r0, r1
    639e:	68e1      	ldr	r1, [r4, #12]
    63a0:	9b03      	ldr	r3, [sp, #12]
    63a2:	4293      	cmp	r3, r2
    63a4:	bf38      	it	cc
    63a6:	461a      	movcc	r2, r3
    63a8:	4b45      	ldr	r3, [pc, #276]	; (64c0 <_usb_d_dev_out_next+0x1a8>)
    63aa:	4798      	blx	r3
    63ac:	6863      	ldr	r3, [r4, #4]
    63ae:	b9b3      	cbnz	r3, 63de <_usb_d_dev_out_next+0xc6>
    63b0:	7ce2      	ldrb	r2, [r4, #19]
    63b2:	f012 0f10 	tst.w	r2, #16
    63b6:	d012      	beq.n	63de <_usb_d_dev_out_next+0xc6>
    63b8:	7ce3      	ldrb	r3, [r4, #19]
    63ba:	f003 03ef 	and.w	r3, r3, #239	; 0xef
    63be:	f043 0320 	orr.w	r3, r3, #32
    63c2:	74e3      	strb	r3, [r4, #19]
    63c4:	68e3      	ldr	r3, [r4, #12]
    63c6:	f849 3008 	str.w	r3, [r9, r8]
    63ca:	8a22      	ldrh	r2, [r4, #16]
    63cc:	6873      	ldr	r3, [r6, #4]
    63ce:	f362 339b 	bfi	r3, r2, #14, #14
    63d2:	6073      	str	r3, [r6, #4]
    63d4:	6873      	ldr	r3, [r6, #4]
    63d6:	f36f 030d 	bfc	r3, #0, #14
    63da:	6073      	str	r3, [r6, #4]
    63dc:	e057      	b.n	648e <_usb_d_dev_out_next+0x176>
    63de:	b15f      	cbz	r7, 63f8 <_usb_d_dev_out_next+0xe0>
    63e0:	8a22      	ldrh	r2, [r4, #16]
    63e2:	9903      	ldr	r1, [sp, #12]
    63e4:	428a      	cmp	r2, r1
    63e6:	d907      	bls.n	63f8 <_usb_d_dev_out_next+0xe0>
    63e8:	7ce3      	ldrb	r3, [r4, #19]
    63ea:	f36f 1304 	bfc	r3, #4, #1
    63ee:	74e3      	strb	r3, [r4, #19]
    63f0:	68a3      	ldr	r3, [r4, #8]
    63f2:	4453      	add	r3, sl
    63f4:	60a3      	str	r3, [r4, #8]
    63f6:	e032      	b.n	645e <_usb_d_dev_out_next+0x146>
    63f8:	68a2      	ldr	r2, [r4, #8]
    63fa:	445a      	add	r2, fp
    63fc:	60a2      	str	r2, [r4, #8]
    63fe:	429a      	cmp	r2, r3
    6400:	d22d      	bcs.n	645e <_usb_d_dev_out_next+0x146>
    6402:	1a9b      	subs	r3, r3, r2
    6404:	b29b      	uxth	r3, r3
    6406:	7ce1      	ldrb	r1, [r4, #19]
    6408:	f011 0f20 	tst.w	r1, #32
    640c:	d007      	beq.n	641e <_usb_d_dev_out_next+0x106>
    640e:	8a22      	ldrh	r2, [r4, #16]
    6410:	4293      	cmp	r3, r2
    6412:	bf28      	it	cs
    6414:	4613      	movcs	r3, r2
    6416:	68e2      	ldr	r2, [r4, #12]
    6418:	f849 2008 	str.w	r2, [r9, r8]
    641c:	e016      	b.n	644c <_usb_d_dev_out_next+0x134>
    641e:	8a21      	ldrh	r1, [r4, #16]
    6420:	428b      	cmp	r3, r1
    6422:	d906      	bls.n	6432 <_usb_d_dev_out_next+0x11a>
    6424:	f5b3 5f00 	cmp.w	r3, #8192	; 0x2000
    6428:	d80a      	bhi.n	6440 <_usb_d_dev_out_next+0x128>
    642a:	9901      	ldr	r1, [sp, #4]
    642c:	ea23 0301 	bic.w	r3, r3, r1
    6430:	e008      	b.n	6444 <_usb_d_dev_out_next+0x12c>
    6432:	428b      	cmp	r3, r1
    6434:	d206      	bcs.n	6444 <_usb_d_dev_out_next+0x12c>
    6436:	7ce1      	ldrb	r1, [r4, #19]
    6438:	f041 0120 	orr.w	r1, r1, #32
    643c:	74e1      	strb	r1, [r4, #19]
    643e:	e001      	b.n	6444 <_usb_d_dev_out_next+0x12c>
    6440:	f44f 5300 	mov.w	r3, #8192	; 0x2000
    6444:	6821      	ldr	r1, [r4, #0]
    6446:	440a      	add	r2, r1
    6448:	f849 2008 	str.w	r2, [r9, r8]
    644c:	6872      	ldr	r2, [r6, #4]
    644e:	f363 329b 	bfi	r2, r3, #14, #14
    6452:	6072      	str	r2, [r6, #4]
    6454:	6873      	ldr	r3, [r6, #4]
    6456:	f36f 030d 	bfc	r3, #0, #14
    645a:	6073      	str	r3, [r6, #4]
    645c:	e017      	b.n	648e <_usb_d_dev_out_next+0x176>
    645e:	9b02      	ldr	r3, [sp, #8]
    6460:	b133      	cbz	r3, 6470 <_usb_d_dev_out_next+0x158>
    6462:	016b      	lsls	r3, r5, #5
    6464:	f103 4382 	add.w	r3, r3, #1090519040	; 0x41000000
    6468:	222d      	movs	r2, #45	; 0x2d
    646a:	f883 2108 	strb.w	r2, [r3, #264]	; 0x108
    646e:	e005      	b.n	647c <_usb_d_dev_out_next+0x164>
    6470:	016b      	lsls	r3, r5, #5
    6472:	f103 4382 	add.w	r3, r3, #1090519040	; 0x41000000
    6476:	2225      	movs	r2, #37	; 0x25
    6478:	f883 2108 	strb.w	r2, [r3, #264]	; 0x108
    647c:	b915      	cbnz	r5, 6484 <_usb_d_dev_out_next+0x16c>
    647e:	68e3      	ldr	r3, [r4, #12]
    6480:	f849 3008 	str.w	r3, [r9, r8]
    6484:	4620      	mov	r0, r4
    6486:	2100      	movs	r1, #0
    6488:	4b0e      	ldr	r3, [pc, #56]	; (64c4 <_usb_d_dev_out_next+0x1ac>)
    648a:	4798      	blx	r3
    648c:	e015      	b.n	64ba <_usb_d_dev_out_next+0x1a2>
    648e:	b977      	cbnz	r7, 64ae <_usb_d_dev_out_next+0x196>
    6490:	9902      	ldr	r1, [sp, #8]
    6492:	b131      	cbz	r1, 64a2 <_usb_d_dev_out_next+0x18a>
    6494:	4b0c      	ldr	r3, [pc, #48]	; (64c8 <_usb_d_dev_out_next+0x1b0>)
    6496:	eb03 1345 	add.w	r3, r3, r5, lsl #5
    649a:	2200      	movs	r2, #0
    649c:	769a      	strb	r2, [r3, #26]
    649e:	222d      	movs	r2, #45	; 0x2d
    64a0:	e000      	b.n	64a4 <_usb_d_dev_out_next+0x18c>
    64a2:	2225      	movs	r2, #37	; 0x25
    64a4:	016b      	lsls	r3, r5, #5
    64a6:	f103 4382 	add.w	r3, r3, #1090519040	; 0x41000000
    64aa:	f883 2109 	strb.w	r2, [r3, #265]	; 0x109
    64ae:	016d      	lsls	r5, r5, #5
    64b0:	f105 4582 	add.w	r5, r5, #1090519040	; 0x41000000
    64b4:	2340      	movs	r3, #64	; 0x40
    64b6:	f885 3104 	strb.w	r3, [r5, #260]	; 0x104
    64ba:	b005      	add	sp, #20
    64bc:	e8bd 8ff0 	ldmia.w	sp!, {r4, r5, r6, r7, r8, r9, sl, fp, pc}
    64c0:	0000b4dd 	.word	0x0000b4dd
    64c4:	00005fd5 	.word	0x00005fd5
    64c8:	20000ab8 	.word	0x20000ab8

000064cc <_usb_d_dev_handler>:
    64cc:	e92d 43f8 	stmdb	sp!, {r3, r4, r5, r6, r7, r8, r9, lr}
    64d0:	f04f 4382 	mov.w	r3, #1090519040	; 0x41000000
    64d4:	8c1e      	ldrh	r6, [r3, #32]
    64d6:	b2b6      	uxth	r6, r6
    64d8:	2e00      	cmp	r6, #0
    64da:	f040 808a 	bne.w	65f2 <_usb_d_dev_handler+0x126>
    64de:	8b99      	ldrh	r1, [r3, #28]
    64e0:	8b1b      	ldrh	r3, [r3, #24]
    64e2:	b29b      	uxth	r3, r3
    64e4:	400b      	ands	r3, r1
    64e6:	f003 0204 	and.w	r2, r3, #4
    64ea:	b292      	uxth	r2, r2
    64ec:	b142      	cbz	r2, 6500 <_usb_d_dev_handler+0x34>
    64ee:	2204      	movs	r2, #4
    64f0:	f04f 4382 	mov.w	r3, #1090519040	; 0x41000000
    64f4:	839a      	strh	r2, [r3, #28]
    64f6:	4b8a      	ldr	r3, [pc, #552]	; (6720 <_usb_d_dev_handler+0x254>)
    64f8:	681b      	ldr	r3, [r3, #0]
    64fa:	4798      	blx	r3
    64fc:	e8bd 83f8 	ldmia.w	sp!, {r3, r4, r5, r6, r7, r8, r9, pc}
    6500:	f403 7200 	and.w	r2, r3, #512	; 0x200
    6504:	b292      	uxth	r2, r2
    6506:	b322      	cbz	r2, 6552 <_usb_d_dev_handler+0x86>
    6508:	f04f 4382 	mov.w	r3, #1090519040	; 0x41000000
    650c:	f240 2201 	movw	r2, #513	; 0x201
    6510:	839a      	strh	r2, [r3, #28]
    6512:	829a      	strh	r2, [r3, #20]
    6514:	2270      	movs	r2, #112	; 0x70
    6516:	831a      	strh	r2, [r3, #24]
    6518:	4b82      	ldr	r3, [pc, #520]	; (6724 <_usb_d_dev_handler+0x258>)
    651a:	891b      	ldrh	r3, [r3, #8]
    651c:	f003 030f 	and.w	r3, r3, #15
    6520:	2b03      	cmp	r3, #3
    6522:	d009      	beq.n	6538 <_usb_d_dev_handler+0x6c>
    6524:	4b7f      	ldr	r3, [pc, #508]	; (6724 <_usb_d_dev_handler+0x258>)
    6526:	8d1b      	ldrh	r3, [r3, #40]	; 0x28
    6528:	f003 030f 	and.w	r3, r3, #15
    652c:	2b03      	cmp	r3, #3
    652e:	bf18      	it	ne
    6530:	2100      	movne	r1, #0
    6532:	d108      	bne.n	6546 <_usb_d_dev_handler+0x7a>
    6534:	4b7c      	ldr	r3, [pc, #496]	; (6728 <_usb_d_dev_handler+0x25c>)
    6536:	e000      	b.n	653a <_usb_d_dev_handler+0x6e>
    6538:	4b7a      	ldr	r3, [pc, #488]	; (6724 <_usb_d_dev_handler+0x258>)
    653a:	8919      	ldrh	r1, [r3, #8]
    653c:	f3c1 110a 	ubfx	r1, r1, #4, #11
    6540:	2200      	movs	r2, #0
    6542:	811a      	strh	r2, [r3, #8]
    6544:	e7ff      	b.n	6546 <_usb_d_dev_handler+0x7a>
    6546:	4b76      	ldr	r3, [pc, #472]	; (6720 <_usb_d_dev_handler+0x254>)
    6548:	685b      	ldr	r3, [r3, #4]
    654a:	2003      	movs	r0, #3
    654c:	4798      	blx	r3
    654e:	e8bd 83f8 	ldmia.w	sp!, {r3, r4, r5, r6, r7, r8, r9, pc}
    6552:	f003 0280 	and.w	r2, r3, #128	; 0x80
    6556:	b292      	uxth	r2, r2
    6558:	b152      	cbz	r2, 6570 <_usb_d_dev_handler+0xa4>
    655a:	2280      	movs	r2, #128	; 0x80
    655c:	f04f 4382 	mov.w	r3, #1090519040	; 0x41000000
    6560:	839a      	strh	r2, [r3, #28]
    6562:	4b6f      	ldr	r3, [pc, #444]	; (6720 <_usb_d_dev_handler+0x254>)
    6564:	685b      	ldr	r3, [r3, #4]
    6566:	2005      	movs	r0, #5
    6568:	2100      	movs	r1, #0
    656a:	4798      	blx	r3
    656c:	e8bd 83f8 	ldmia.w	sp!, {r3, r4, r5, r6, r7, r8, r9, pc}
    6570:	f013 0f70 	tst.w	r3, #112	; 0x70
    6574:	d021      	beq.n	65ba <_usb_d_dev_handler+0xee>
    6576:	f04f 4382 	mov.w	r3, #1090519040	; 0x41000000
    657a:	2270      	movs	r2, #112	; 0x70
    657c:	839a      	strh	r2, [r3, #28]
    657e:	829a      	strh	r2, [r3, #20]
    6580:	f240 2201 	movw	r2, #513	; 0x201
    6584:	831a      	strh	r2, [r3, #24]
    6586:	4b69      	ldr	r3, [pc, #420]	; (672c <_usb_d_dev_handler+0x260>)
    6588:	f893 3020 	ldrb.w	r3, [r3, #32]
    658c:	f013 0f01 	tst.w	r3, #1
    6590:	d007      	beq.n	65a2 <_usb_d_dev_handler+0xd6>
    6592:	4a66      	ldr	r2, [pc, #408]	; (672c <_usb_d_dev_handler+0x260>)
    6594:	6913      	ldr	r3, [r2, #16]
    6596:	f403 6310 	and.w	r3, r3, #2304	; 0x900
    659a:	f5b3 6f10 	cmp.w	r3, #2304	; 0x900
    659e:	d1f9      	bne.n	6594 <_usb_d_dev_handler+0xc8>
    65a0:	e004      	b.n	65ac <_usb_d_dev_handler+0xe0>
    65a2:	4a62      	ldr	r2, [pc, #392]	; (672c <_usb_d_dev_handler+0x260>)
    65a4:	6913      	ldr	r3, [r2, #16]
    65a6:	f413 7f80 	tst.w	r3, #256	; 0x100
    65aa:	d0fb      	beq.n	65a4 <_usb_d_dev_handler+0xd8>
    65ac:	4b5c      	ldr	r3, [pc, #368]	; (6720 <_usb_d_dev_handler+0x254>)
    65ae:	685b      	ldr	r3, [r3, #4]
    65b0:	2002      	movs	r0, #2
    65b2:	2100      	movs	r1, #0
    65b4:	4798      	blx	r3
    65b6:	e8bd 83f8 	ldmia.w	sp!, {r3, r4, r5, r6, r7, r8, r9, pc}
    65ba:	f003 0208 	and.w	r2, r3, #8
    65be:	b292      	uxth	r2, r2
    65c0:	b1a2      	cbz	r2, 65ec <_usb_d_dev_handler+0x120>
    65c2:	f04f 4382 	mov.w	r3, #1090519040	; 0x41000000
    65c6:	2400      	movs	r4, #0
    65c8:	f883 4100 	strb.w	r4, [r3, #256]	; 0x100
    65cc:	2208      	movs	r2, #8
    65ce:	839a      	strh	r2, [r3, #28]
    65d0:	2270      	movs	r2, #112	; 0x70
    65d2:	829a      	strh	r2, [r3, #20]
    65d4:	f240 2201 	movw	r2, #513	; 0x201
    65d8:	831a      	strh	r2, [r3, #24]
    65da:	4b55      	ldr	r3, [pc, #340]	; (6730 <_usb_d_dev_handler+0x264>)
    65dc:	4798      	blx	r3
    65de:	4b50      	ldr	r3, [pc, #320]	; (6720 <_usb_d_dev_handler+0x254>)
    65e0:	685b      	ldr	r3, [r3, #4]
    65e2:	2001      	movs	r0, #1
    65e4:	4621      	mov	r1, r4
    65e6:	4798      	blx	r3
    65e8:	e8bd 83f8 	ldmia.w	sp!, {r3, r4, r5, r6, r7, r8, r9, pc}
    65ec:	f013 0f01 	tst.w	r3, #1
    65f0:	d109      	bne.n	6606 <_usb_d_dev_handler+0x13a>
    65f2:	4d4b      	ldr	r5, [pc, #300]	; (6720 <_usb_d_dev_handler+0x254>)
    65f4:	f105 0414 	add.w	r4, r5, #20
    65f8:	35c8      	adds	r5, #200	; 0xc8
    65fa:	f8df 9144 	ldr.w	r9, [pc, #324]	; 6740 <_usb_d_dev_handler+0x274>
    65fe:	4f4d      	ldr	r7, [pc, #308]	; (6734 <_usb_d_dev_handler+0x268>)
    6600:	f8df 8140 	ldr.w	r8, [pc, #320]	; 6744 <_usb_d_dev_handler+0x278>
    6604:	e00e      	b.n	6624 <_usb_d_dev_handler+0x158>
    6606:	f04f 4382 	mov.w	r3, #1090519040	; 0x41000000
    660a:	f240 2201 	movw	r2, #513	; 0x201
    660e:	839a      	strh	r2, [r3, #28]
    6610:	829a      	strh	r2, [r3, #20]
    6612:	2270      	movs	r2, #112	; 0x70
    6614:	831a      	strh	r2, [r3, #24]
    6616:	4b42      	ldr	r3, [pc, #264]	; (6720 <_usb_d_dev_handler+0x254>)
    6618:	685b      	ldr	r3, [r3, #4]
    661a:	2004      	movs	r0, #4
    661c:	2100      	movs	r1, #0
    661e:	4798      	blx	r3
    6620:	e8bd 83f8 	ldmia.w	sp!, {r3, r4, r5, r6, r7, r8, r9, pc}
    6624:	4620      	mov	r0, r4
    6626:	7ca3      	ldrb	r3, [r4, #18]
    6628:	2bff      	cmp	r3, #255	; 0xff
    662a:	d074      	beq.n	6716 <_usb_d_dev_handler+0x24a>
    662c:	f003 030f 	and.w	r3, r3, #15
    6630:	2201      	movs	r2, #1
    6632:	409a      	lsls	r2, r3
    6634:	4232      	tst	r2, r6
    6636:	d06e      	beq.n	6716 <_usb_d_dev_handler+0x24a>
    6638:	015a      	lsls	r2, r3, #5
    663a:	f102 4282 	add.w	r2, r2, #1090519040	; 0x41000000
    663e:	f502 7280 	add.w	r2, r2, #256	; 0x100
    6642:	79d2      	ldrb	r2, [r2, #7]
    6644:	015b      	lsls	r3, r3, #5
    6646:	f103 4382 	add.w	r3, r3, #1090519040	; 0x41000000
    664a:	f503 7384 	add.w	r3, r3, #264	; 0x108
    664e:	785b      	ldrb	r3, [r3, #1]
    6650:	401a      	ands	r2, r3
    6652:	d060      	beq.n	6716 <_usb_d_dev_handler+0x24a>
    6654:	7ce3      	ldrb	r3, [r4, #19]
    6656:	f003 0347 	and.w	r3, r3, #71	; 0x47
    665a:	2b01      	cmp	r3, #1
    665c:	d112      	bne.n	6684 <_usb_d_dev_handler+0x1b8>
    665e:	f012 0f10 	tst.w	r2, #16
    6662:	d001      	beq.n	6668 <_usb_d_dev_handler+0x19c>
    6664:	47c8      	blx	r9
    6666:	e056      	b.n	6716 <_usb_d_dev_handler+0x24a>
    6668:	f012 0f40 	tst.w	r2, #64	; 0x40
    666c:	d003      	beq.n	6676 <_usb_d_dev_handler+0x1aa>
    666e:	2101      	movs	r1, #1
    6670:	4b31      	ldr	r3, [pc, #196]	; (6738 <_usb_d_dev_handler+0x26c>)
    6672:	4798      	blx	r3
    6674:	e04f      	b.n	6716 <_usb_d_dev_handler+0x24a>
    6676:	f012 0f20 	tst.w	r2, #32
    667a:	d04c      	beq.n	6716 <_usb_d_dev_handler+0x24a>
    667c:	2100      	movs	r1, #0
    667e:	4b2e      	ldr	r3, [pc, #184]	; (6738 <_usb_d_dev_handler+0x26c>)
    6680:	4798      	blx	r3
    6682:	e048      	b.n	6716 <_usb_d_dev_handler+0x24a>
    6684:	7ce3      	ldrb	r3, [r4, #19]
    6686:	09db      	lsrs	r3, r3, #7
    6688:	d023      	beq.n	66d2 <_usb_d_dev_handler+0x206>
    668a:	f012 0f40 	tst.w	r2, #64	; 0x40
    668e:	d003      	beq.n	6698 <_usb_d_dev_handler+0x1cc>
    6690:	2101      	movs	r1, #1
    6692:	4b29      	ldr	r3, [pc, #164]	; (6738 <_usb_d_dev_handler+0x26c>)
    6694:	4798      	blx	r3
    6696:	e03e      	b.n	6716 <_usb_d_dev_handler+0x24a>
    6698:	f012 0f08 	tst.w	r2, #8
    669c:	d002      	beq.n	66a4 <_usb_d_dev_handler+0x1d8>
    669e:	2101      	movs	r1, #1
    66a0:	47b8      	blx	r7
    66a2:	e038      	b.n	6716 <_usb_d_dev_handler+0x24a>
    66a4:	f012 0f02 	tst.w	r2, #2
    66a8:	d003      	beq.n	66b2 <_usb_d_dev_handler+0x1e6>
    66aa:	2101      	movs	r1, #1
    66ac:	4b23      	ldr	r3, [pc, #140]	; (673c <_usb_d_dev_handler+0x270>)
    66ae:	4798      	blx	r3
    66b0:	e031      	b.n	6716 <_usb_d_dev_handler+0x24a>
    66b2:	7ce3      	ldrb	r3, [r4, #19]
    66b4:	f003 0307 	and.w	r3, r3, #7
    66b8:	2b01      	cmp	r3, #1
    66ba:	d12c      	bne.n	6716 <_usb_d_dev_handler+0x24a>
    66bc:	f012 0f04 	tst.w	r2, #4
    66c0:	d002      	beq.n	66c8 <_usb_d_dev_handler+0x1fc>
    66c2:	2100      	movs	r1, #0
    66c4:	47b8      	blx	r7
    66c6:	e026      	b.n	6716 <_usb_d_dev_handler+0x24a>
    66c8:	f012 0f10 	tst.w	r2, #16
    66cc:	d023      	beq.n	6716 <_usb_d_dev_handler+0x24a>
    66ce:	47c8      	blx	r9
    66d0:	e021      	b.n	6716 <_usb_d_dev_handler+0x24a>
    66d2:	f012 0f20 	tst.w	r2, #32
    66d6:	d003      	beq.n	66e0 <_usb_d_dev_handler+0x214>
    66d8:	2100      	movs	r1, #0
    66da:	4b17      	ldr	r3, [pc, #92]	; (6738 <_usb_d_dev_handler+0x26c>)
    66dc:	4798      	blx	r3
    66de:	e01a      	b.n	6716 <_usb_d_dev_handler+0x24a>
    66e0:	f012 0f04 	tst.w	r2, #4
    66e4:	d002      	beq.n	66ec <_usb_d_dev_handler+0x220>
    66e6:	2100      	movs	r1, #0
    66e8:	47b8      	blx	r7
    66ea:	e014      	b.n	6716 <_usb_d_dev_handler+0x24a>
    66ec:	f012 0f01 	tst.w	r2, #1
    66f0:	d002      	beq.n	66f8 <_usb_d_dev_handler+0x22c>
    66f2:	2101      	movs	r1, #1
    66f4:	47c0      	blx	r8
    66f6:	e00e      	b.n	6716 <_usb_d_dev_handler+0x24a>
    66f8:	7ce3      	ldrb	r3, [r4, #19]
    66fa:	f003 0307 	and.w	r3, r3, #7
    66fe:	2b01      	cmp	r3, #1
    6700:	d109      	bne.n	6716 <_usb_d_dev_handler+0x24a>
    6702:	f012 0f08 	tst.w	r2, #8
    6706:	d002      	beq.n	670e <_usb_d_dev_handler+0x242>
    6708:	2101      	movs	r1, #1
    670a:	47b8      	blx	r7
    670c:	e003      	b.n	6716 <_usb_d_dev_handler+0x24a>
    670e:	f012 0f10 	tst.w	r2, #16
    6712:	d000      	beq.n	6716 <_usb_d_dev_handler+0x24a>
    6714:	47c8      	blx	r9
    6716:	3414      	adds	r4, #20
    6718:	42ac      	cmp	r4, r5
    671a:	d183      	bne.n	6624 <_usb_d_dev_handler+0x158>
    671c:	e8bd 83f8 	ldmia.w	sp!, {r3, r4, r5, r6, r7, r8, r9, pc}
    6720:	20000b18 	.word	0x20000b18
    6724:	20000ab8 	.word	0x20000ab8
    6728:	20000ad8 	.word	0x20000ad8
    672c:	40001000 	.word	0x40001000
    6730:	00006171 	.word	0x00006171
    6734:	00006065 	.word	0x00006065
    6738:	00005fa5 	.word	0x00005fa5
    673c:	000061b5 	.word	0x000061b5
    6740:	00005f19 	.word	0x00005f19
    6744:	00006319 	.word	0x00006319

00006748 <_usb_d_dev_init>:
    6748:	b508      	push	{r3, lr}
    674a:	f04f 4382 	mov.w	r3, #1090519040	; 0x41000000
    674e:	789b      	ldrb	r3, [r3, #2]
    6750:	f013 0f01 	tst.w	r3, #1
    6754:	d125      	bne.n	67a2 <_usb_d_dev_init+0x5a>
    6756:	f04f 4282 	mov.w	r2, #1090519040	; 0x41000000
    675a:	7893      	ldrb	r3, [r2, #2]
    675c:	f013 0f03 	tst.w	r3, #3
    6760:	d1fb      	bne.n	675a <_usb_d_dev_init+0x12>
    6762:	f04f 4382 	mov.w	r3, #1090519040	; 0x41000000
    6766:	781b      	ldrb	r3, [r3, #0]
    6768:	f013 0f02 	tst.w	r3, #2
    676c:	d010      	beq.n	6790 <_usb_d_dev_init+0x48>
    676e:	f04f 4382 	mov.w	r3, #1090519040	; 0x41000000
    6772:	781a      	ldrb	r2, [r3, #0]
    6774:	f002 02fd 	and.w	r2, r2, #253	; 0xfd
    6778:	701a      	strb	r2, [r3, #0]
    677a:	461a      	mov	r2, r3
    677c:	7893      	ldrb	r3, [r2, #2]
    677e:	f013 0f03 	tst.w	r3, #3
    6782:	d1fb      	bne.n	677c <_usb_d_dev_init+0x34>
    6784:	f04f 4282 	mov.w	r2, #1090519040	; 0x41000000
    6788:	7893      	ldrb	r3, [r2, #2]
    678a:	f013 0f02 	tst.w	r3, #2
    678e:	d1fb      	bne.n	6788 <_usb_d_dev_init+0x40>
    6790:	2201      	movs	r2, #1
    6792:	f04f 4382 	mov.w	r3, #1090519040	; 0x41000000
    6796:	701a      	strb	r2, [r3, #0]
    6798:	461a      	mov	r2, r3
    679a:	7893      	ldrb	r3, [r2, #2]
    679c:	f013 0f03 	tst.w	r3, #3
    67a0:	d1fb      	bne.n	679a <_usb_d_dev_init+0x52>
    67a2:	f04f 4282 	mov.w	r2, #1090519040	; 0x41000000
    67a6:	7893      	ldrb	r3, [r2, #2]
    67a8:	f013 0f01 	tst.w	r3, #1
    67ac:	d1fb      	bne.n	67a6 <_usb_d_dev_init+0x5e>
    67ae:	4b22      	ldr	r3, [pc, #136]	; (6838 <_usb_d_dev_init+0xf0>)
    67b0:	4a22      	ldr	r2, [pc, #136]	; (683c <_usb_d_dev_init+0xf4>)
    67b2:	601a      	str	r2, [r3, #0]
    67b4:	605a      	str	r2, [r3, #4]
    67b6:	609a      	str	r2, [r3, #8]
    67b8:	60da      	str	r2, [r3, #12]
    67ba:	611a      	str	r2, [r3, #16]
    67bc:	4b20      	ldr	r3, [pc, #128]	; (6840 <_usb_d_dev_init+0xf8>)
    67be:	4798      	blx	r3
    67c0:	4b20      	ldr	r3, [pc, #128]	; (6844 <_usb_d_dev_init+0xfc>)
    67c2:	6819      	ldr	r1, [r3, #0]
    67c4:	f3c1 1244 	ubfx	r2, r1, #5, #5
    67c8:	f3c1 2382 	ubfx	r3, r1, #10, #3
    67cc:	f011 011f 	ands.w	r1, r1, #31
    67d0:	d003      	beq.n	67da <_usb_d_dev_init+0x92>
    67d2:	291f      	cmp	r1, #31
    67d4:	bf08      	it	eq
    67d6:	2109      	moveq	r1, #9
    67d8:	e000      	b.n	67dc <_usb_d_dev_init+0x94>
    67da:	2109      	movs	r1, #9
    67dc:	b11a      	cbz	r2, 67e6 <_usb_d_dev_init+0x9e>
    67de:	2a1f      	cmp	r2, #31
    67e0:	bf08      	it	eq
    67e2:	2219      	moveq	r2, #25
    67e4:	e000      	b.n	67e8 <_usb_d_dev_init+0xa0>
    67e6:	2219      	movs	r2, #25
    67e8:	b11b      	cbz	r3, 67f2 <_usb_d_dev_init+0xaa>
    67ea:	2b07      	cmp	r3, #7
    67ec:	bf08      	it	eq
    67ee:	2306      	moveq	r3, #6
    67f0:	e000      	b.n	67f4 <_usb_d_dev_init+0xac>
    67f2:	2306      	movs	r3, #6
    67f4:	f002 021f 	and.w	r2, r2, #31
    67f8:	ea42 1181 	orr.w	r1, r2, r1, lsl #6
    67fc:	031b      	lsls	r3, r3, #12
    67fe:	f403 43e0 	and.w	r3, r3, #28672	; 0x7000
    6802:	4319      	orrs	r1, r3
    6804:	f04f 4382 	mov.w	r3, #1090519040	; 0x41000000
    6808:	8519      	strh	r1, [r3, #40]	; 0x28
    680a:	78da      	ldrb	r2, [r3, #3]
    680c:	f042 0203 	orr.w	r2, r2, #3
    6810:	70da      	strb	r2, [r3, #3]
    6812:	78da      	ldrb	r2, [r3, #3]
    6814:	f042 020c 	orr.w	r2, r2, #12
    6818:	70da      	strb	r2, [r3, #3]
    681a:	2204      	movs	r2, #4
    681c:	701a      	strb	r2, [r3, #0]
    681e:	461a      	mov	r2, r3
    6820:	7893      	ldrb	r3, [r2, #2]
    6822:	f013 0f03 	tst.w	r3, #3
    6826:	d1fb      	bne.n	6820 <_usb_d_dev_init+0xd8>
    6828:	f04f 4382 	mov.w	r3, #1090519040	; 0x41000000
    682c:	4a06      	ldr	r2, [pc, #24]	; (6848 <_usb_d_dev_init+0x100>)
    682e:	625a      	str	r2, [r3, #36]	; 0x24
    6830:	2201      	movs	r2, #1
    6832:	811a      	strh	r2, [r3, #8]
    6834:	2000      	movs	r0, #0
    6836:	bd08      	pop	{r3, pc}
    6838:	20000b18 	.word	0x20000b18
    683c:	00005f15 	.word	0x00005f15
    6840:	00006171 	.word	0x00006171
    6844:	00800084 	.word	0x00800084
    6848:	20000ab8 	.word	0x20000ab8

0000684c <_usb_d_dev_enable>:
    684c:	f04f 4382 	mov.w	r3, #1090519040	; 0x41000000
    6850:	789b      	ldrb	r3, [r3, #2]
    6852:	f013 0f03 	tst.w	r3, #3
    6856:	d129      	bne.n	68ac <_usb_d_dev_enable+0x60>
    6858:	f04f 4282 	mov.w	r2, #1090519040	; 0x41000000
    685c:	7893      	ldrb	r3, [r2, #2]
    685e:	f013 0f03 	tst.w	r3, #3
    6862:	d1fb      	bne.n	685c <_usb_d_dev_enable+0x10>
    6864:	f04f 4382 	mov.w	r3, #1090519040	; 0x41000000
    6868:	781b      	ldrb	r3, [r3, #0]
    686a:	b2db      	uxtb	r3, r3
    686c:	f013 0f02 	tst.w	r3, #2
    6870:	d108      	bne.n	6884 <_usb_d_dev_enable+0x38>
    6872:	f043 0302 	orr.w	r3, r3, #2
    6876:	f04f 4282 	mov.w	r2, #1090519040	; 0x41000000
    687a:	7013      	strb	r3, [r2, #0]
    687c:	7893      	ldrb	r3, [r2, #2]
    687e:	f013 0f03 	tst.w	r3, #3
    6882:	d1fb      	bne.n	687c <_usb_d_dev_enable+0x30>
    6884:	4b0b      	ldr	r3, [pc, #44]	; (68b4 <_usb_d_dev_enable+0x68>)
    6886:	f44f 3280 	mov.w	r2, #65536	; 0x10000
    688a:	609a      	str	r2, [r3, #8]
    688c:	f44f 3200 	mov.w	r2, #131072	; 0x20000
    6890:	609a      	str	r2, [r3, #8]
    6892:	f44f 2280 	mov.w	r2, #262144	; 0x40000
    6896:	609a      	str	r2, [r3, #8]
    6898:	f44f 2200 	mov.w	r2, #524288	; 0x80000
    689c:	609a      	str	r2, [r3, #8]
    689e:	f240 228d 	movw	r2, #653	; 0x28d
    68a2:	f04f 4382 	mov.w	r3, #1090519040	; 0x41000000
    68a6:	831a      	strh	r2, [r3, #24]
    68a8:	2000      	movs	r0, #0
    68aa:	4770      	bx	lr
    68ac:	f06f 0010 	mvn.w	r0, #16
    68b0:	4770      	bx	lr
    68b2:	bf00      	nop
    68b4:	e000e100 	.word	0xe000e100

000068b8 <_usb_d_dev_attach>:
    68b8:	f04f 4282 	mov.w	r2, #1090519040	; 0x41000000
    68bc:	8913      	ldrh	r3, [r2, #8]
    68be:	f023 0301 	bic.w	r3, r3, #1
    68c2:	041b      	lsls	r3, r3, #16
    68c4:	0c1b      	lsrs	r3, r3, #16
    68c6:	8113      	strh	r3, [r2, #8]
    68c8:	4770      	bx	lr
    68ca:	bf00      	nop

000068cc <_usb_d_dev_set_address>:
    68cc:	f040 0080 	orr.w	r0, r0, #128	; 0x80
    68d0:	f04f 4382 	mov.w	r3, #1090519040	; 0x41000000
    68d4:	7298      	strb	r0, [r3, #10]
    68d6:	4770      	bx	lr

000068d8 <_usb_d_dev_ep_init>:
    68d8:	b4f0      	push	{r4, r5, r6, r7}
    68da:	09c6      	lsrs	r6, r0, #7
    68dc:	f010 040f 	ands.w	r4, r0, #15
    68e0:	d04b      	beq.n	697a <_usb_d_dev_ep_init+0xa2>
    68e2:	b10e      	cbz	r6, 68e8 <_usb_d_dev_ep_init+0x10>
    68e4:	1ca3      	adds	r3, r4, #2
    68e6:	e000      	b.n	68ea <_usb_d_dev_ep_init+0x12>
    68e8:	4623      	mov	r3, r4
    68ea:	eb03 0383 	add.w	r3, r3, r3, lsl #2
    68ee:	4d26      	ldr	r5, [pc, #152]	; (6988 <_usb_d_dev_ep_init+0xb0>)
    68f0:	eb05 0383 	add.w	r3, r5, r3, lsl #2
    68f4:	3314      	adds	r3, #20
    68f6:	f001 0103 	and.w	r1, r1, #3
    68fa:	eb04 0544 	add.w	r5, r4, r4, lsl #1
    68fe:	4f23      	ldr	r7, [pc, #140]	; (698c <_usb_d_dev_ep_init+0xb4>)
    6900:	eb07 0585 	add.w	r5, r7, r5, lsl #2
    6904:	2c02      	cmp	r4, #2
    6906:	d829      	bhi.n	695c <_usb_d_dev_ep_init+0x84>
    6908:	7c9f      	ldrb	r7, [r3, #18]
    690a:	2fff      	cmp	r7, #255	; 0xff
    690c:	d129      	bne.n	6962 <_usb_d_dev_ep_init+0x8a>
    690e:	b971      	cbnz	r1, 692e <_usb_d_dev_ep_init+0x56>
    6910:	b114      	cbz	r4, 6918 <_usb_d_dev_ep_init+0x40>
    6912:	b90e      	cbnz	r6, 6918 <_usb_d_dev_ep_init+0x40>
    6914:	3402      	adds	r4, #2
    6916:	b2e4      	uxtb	r4, r4
    6918:	eb04 0484 	add.w	r4, r4, r4, lsl #2
    691c:	4f1a      	ldr	r7, [pc, #104]	; (6988 <_usb_d_dev_ep_init+0xb0>)
    691e:	eb07 0484 	add.w	r4, r7, r4, lsl #2
    6922:	f894 4026 	ldrb.w	r4, [r4, #38]	; 0x26
    6926:	2cff      	cmp	r4, #255	; 0xff
    6928:	d11e      	bne.n	6968 <_usb_d_dev_ep_init+0x90>
    692a:	682c      	ldr	r4, [r5, #0]
    692c:	b1fc      	cbz	r4, 696e <_usb_d_dev_ep_init+0x96>
    692e:	b116      	cbz	r6, 6936 <_usb_d_dev_ep_init+0x5e>
    6930:	686c      	ldr	r4, [r5, #4]
    6932:	b91c      	cbnz	r4, 693c <_usb_d_dev_ep_init+0x64>
    6934:	e008      	b.n	6948 <_usb_d_dev_ep_init+0x70>
    6936:	682c      	ldr	r4, [r5, #0]
    6938:	b914      	cbnz	r4, 6940 <_usb_d_dev_ep_init+0x68>
    693a:	e007      	b.n	694c <_usb_d_dev_ep_init+0x74>
    693c:	896c      	ldrh	r4, [r5, #10]
    693e:	e000      	b.n	6942 <_usb_d_dev_ep_init+0x6a>
    6940:	892c      	ldrh	r4, [r5, #8]
    6942:	4294      	cmp	r4, r2
    6944:	db16      	blt.n	6974 <_usb_d_dev_ep_init+0x9c>
    6946:	b10e      	cbz	r6, 694c <_usb_d_dev_ep_init+0x74>
    6948:	686c      	ldr	r4, [r5, #4]
    694a:	e000      	b.n	694e <_usb_d_dev_ep_init+0x76>
    694c:	682c      	ldr	r4, [r5, #0]
    694e:	60dc      	str	r4, [r3, #12]
    6950:	821a      	strh	r2, [r3, #16]
    6952:	3101      	adds	r1, #1
    6954:	74d9      	strb	r1, [r3, #19]
    6956:	7498      	strb	r0, [r3, #18]
    6958:	2000      	movs	r0, #0
    695a:	e013      	b.n	6984 <_usb_d_dev_ep_init+0xac>
    695c:	f06f 0011 	mvn.w	r0, #17
    6960:	e010      	b.n	6984 <_usb_d_dev_ep_init+0xac>
    6962:	f06f 0013 	mvn.w	r0, #19
    6966:	e00d      	b.n	6984 <_usb_d_dev_ep_init+0xac>
    6968:	f06f 0013 	mvn.w	r0, #19
    696c:	e00a      	b.n	6984 <_usb_d_dev_ep_init+0xac>
    696e:	f06f 0012 	mvn.w	r0, #18
    6972:	e007      	b.n	6984 <_usb_d_dev_ep_init+0xac>
    6974:	f06f 0012 	mvn.w	r0, #18
    6978:	e004      	b.n	6984 <_usb_d_dev_ep_init+0xac>
    697a:	f001 0103 	and.w	r1, r1, #3
    697e:	4d03      	ldr	r5, [pc, #12]	; (698c <_usb_d_dev_ep_init+0xb4>)
    6980:	4b03      	ldr	r3, [pc, #12]	; (6990 <_usb_d_dev_ep_init+0xb8>)
    6982:	e7c1      	b.n	6908 <_usb_d_dev_ep_init+0x30>
    6984:	bcf0      	pop	{r4, r5, r6, r7}
    6986:	4770      	bx	lr
    6988:	20000b18 	.word	0x20000b18
    698c:	0001121c 	.word	0x0001121c
    6990:	20000b2c 	.word	0x20000b2c

00006994 <_usb_d_dev_ep_deinit>:
    6994:	b570      	push	{r4, r5, r6, lr}
    6996:	4604      	mov	r4, r0
    6998:	09c1      	lsrs	r1, r0, #7
    699a:	f010 060f 	ands.w	r6, r0, #15
    699e:	d00c      	beq.n	69ba <_usb_d_dev_ep_deinit+0x26>
    69a0:	b109      	cbz	r1, 69a6 <_usb_d_dev_ep_deinit+0x12>
    69a2:	1cb5      	adds	r5, r6, #2
    69a4:	e000      	b.n	69a8 <_usb_d_dev_ep_deinit+0x14>
    69a6:	4635      	mov	r5, r6
    69a8:	2e02      	cmp	r6, #2
    69aa:	d834      	bhi.n	6a16 <_usb_d_dev_ep_deinit+0x82>
    69ac:	eb05 0585 	add.w	r5, r5, r5, lsl #2
    69b0:	4b19      	ldr	r3, [pc, #100]	; (6a18 <_usb_d_dev_ep_deinit+0x84>)
    69b2:	eb03 0585 	add.w	r5, r3, r5, lsl #2
    69b6:	3514      	adds	r5, #20
    69b8:	e000      	b.n	69bc <_usb_d_dev_ep_deinit+0x28>
    69ba:	4d18      	ldr	r5, [pc, #96]	; (6a1c <_usb_d_dev_ep_deinit+0x88>)
    69bc:	7cab      	ldrb	r3, [r5, #18]
    69be:	2bff      	cmp	r3, #255	; 0xff
    69c0:	d029      	beq.n	6a16 <_usb_d_dev_ep_deinit+0x82>
    69c2:	4628      	mov	r0, r5
    69c4:	2203      	movs	r2, #3
    69c6:	4b16      	ldr	r3, [pc, #88]	; (6a20 <_usb_d_dev_ep_deinit+0x8c>)
    69c8:	4798      	blx	r3
    69ca:	7ceb      	ldrb	r3, [r5, #19]
    69cc:	f003 0307 	and.w	r3, r3, #7
    69d0:	2b01      	cmp	r3, #1
    69d2:	d106      	bne.n	69e2 <_usb_d_dev_ep_deinit+0x4e>
    69d4:	0164      	lsls	r4, r4, #5
    69d6:	f104 4482 	add.w	r4, r4, #1090519040	; 0x41000000
    69da:	2300      	movs	r3, #0
    69dc:	f884 3100 	strb.w	r3, [r4, #256]	; 0x100
    69e0:	e015      	b.n	6a0e <_usb_d_dev_ep_deinit+0x7a>
    69e2:	f014 0f80 	tst.w	r4, #128	; 0x80
    69e6:	d009      	beq.n	69fc <_usb_d_dev_ep_deinit+0x68>
    69e8:	0176      	lsls	r6, r6, #5
    69ea:	f106 4682 	add.w	r6, r6, #1090519040	; 0x41000000
    69ee:	f896 3100 	ldrb.w	r3, [r6, #256]	; 0x100
    69f2:	f003 038f 	and.w	r3, r3, #143	; 0x8f
    69f6:	f886 3100 	strb.w	r3, [r6, #256]	; 0x100
    69fa:	e008      	b.n	6a0e <_usb_d_dev_ep_deinit+0x7a>
    69fc:	0164      	lsls	r4, r4, #5
    69fe:	f104 4482 	add.w	r4, r4, #1090519040	; 0x41000000
    6a02:	f894 3100 	ldrb.w	r3, [r4, #256]	; 0x100
    6a06:	f003 03f8 	and.w	r3, r3, #248	; 0xf8
    6a0a:	f884 3100 	strb.w	r3, [r4, #256]	; 0x100
    6a0e:	2300      	movs	r3, #0
    6a10:	74eb      	strb	r3, [r5, #19]
    6a12:	23ff      	movs	r3, #255	; 0xff
    6a14:	74ab      	strb	r3, [r5, #18]
    6a16:	bd70      	pop	{r4, r5, r6, pc}
    6a18:	20000b18 	.word	0x20000b18
    6a1c:	20000b2c 	.word	0x20000b2c
    6a20:	00005ffd 	.word	0x00005ffd

00006a24 <_usb_d_dev_ep_enable>:
    6a24:	b470      	push	{r4, r5, r6}
    6a26:	09c5      	lsrs	r5, r0, #7
    6a28:	f010 000f 	ands.w	r0, r0, #15
    6a2c:	f000 80f2 	beq.w	6c14 <_usb_d_dev_ep_enable+0x1f0>
    6a30:	b10d      	cbz	r5, 6a36 <_usb_d_dev_ep_enable+0x12>
    6a32:	1c83      	adds	r3, r0, #2
    6a34:	e000      	b.n	6a38 <_usb_d_dev_ep_enable+0x14>
    6a36:	4603      	mov	r3, r0
    6a38:	eb03 0383 	add.w	r3, r3, r3, lsl #2
    6a3c:	4a8f      	ldr	r2, [pc, #572]	; (6c7c <_usb_d_dev_ep_enable+0x258>)
    6a3e:	eb02 0383 	add.w	r3, r2, r3, lsl #2
    6a42:	3314      	adds	r3, #20
    6a44:	4602      	mov	r2, r0
    6a46:	0141      	lsls	r1, r0, #5
    6a48:	f101 4182 	add.w	r1, r1, #1090519040	; 0x41000000
    6a4c:	f891 4100 	ldrb.w	r4, [r1, #256]	; 0x100
    6a50:	b2e4      	uxtb	r4, r4
    6a52:	2802      	cmp	r0, #2
    6a54:	f200 80cf 	bhi.w	6bf6 <_usb_d_dev_ep_enable+0x1d2>
    6a58:	7c99      	ldrb	r1, [r3, #18]
    6a5a:	29ff      	cmp	r1, #255	; 0xff
    6a5c:	f000 80ce 	beq.w	6bfc <_usb_d_dev_ep_enable+0x1d8>
    6a60:	4987      	ldr	r1, [pc, #540]	; (6c80 <_usb_d_dev_ep_enable+0x25c>)
    6a62:	eb01 1142 	add.w	r1, r1, r2, lsl #5
    6a66:	7cd8      	ldrb	r0, [r3, #19]
    6a68:	f000 0007 	and.w	r0, r0, #7
    6a6c:	2801      	cmp	r0, #1
    6a6e:	d156      	bne.n	6b1e <_usb_d_dev_ep_enable+0xfa>
    6a70:	f014 0f77 	tst.w	r4, #119	; 0x77
    6a74:	f040 80c5 	bne.w	6c02 <_usb_d_dev_ep_enable+0x1de>
    6a78:	0154      	lsls	r4, r2, #5
    6a7a:	f104 4482 	add.w	r4, r4, #1090519040	; 0x41000000
    6a7e:	2011      	movs	r0, #17
    6a80:	f884 0100 	strb.w	r0, [r4, #256]	; 0x100
    6a84:	8a18      	ldrh	r0, [r3, #16]
    6a86:	4d7f      	ldr	r5, [pc, #508]	; (6c84 <_usb_d_dev_ep_enable+0x260>)
    6a88:	ea05 3580 	and.w	r5, r5, r0, lsl #14
    6a8c:	f5b0 7f00 	cmp.w	r0, #512	; 0x200
    6a90:	f200 80eb 	bhi.w	6c6a <_usb_d_dev_ep_enable+0x246>
    6a94:	f5b0 7f80 	cmp.w	r0, #256	; 0x100
    6a98:	f200 80d2 	bhi.w	6c40 <_usb_d_dev_ep_enable+0x21c>
    6a9c:	2880      	cmp	r0, #128	; 0x80
    6a9e:	f200 80c1 	bhi.w	6c24 <_usb_d_dev_ep_enable+0x200>
    6aa2:	2840      	cmp	r0, #64	; 0x40
    6aa4:	f200 80da 	bhi.w	6c5c <_usb_d_dev_ep_enable+0x238>
    6aa8:	2820      	cmp	r0, #32
    6aaa:	f200 80c2 	bhi.w	6c32 <_usb_d_dev_ep_enable+0x20e>
    6aae:	2810      	cmp	r0, #16
    6ab0:	f200 80cd 	bhi.w	6c4e <_usb_d_dev_ep_enable+0x22a>
    6ab4:	2808      	cmp	r0, #8
    6ab6:	bf94      	ite	ls
    6ab8:	2600      	movls	r6, #0
    6aba:	2601      	movhi	r6, #1
    6abc:	ea45 7506 	orr.w	r5, r5, r6, lsl #28
    6ac0:	604d      	str	r5, [r1, #4]
    6ac2:	f3c0 000d 	ubfx	r0, r0, #0, #14
    6ac6:	4635      	mov	r5, r6
    6ac8:	ea40 7005 	orr.w	r0, r0, r5, lsl #28
    6acc:	6148      	str	r0, [r1, #20]
    6ace:	2540      	movs	r5, #64	; 0x40
    6ad0:	f884 5105 	strb.w	r5, [r4, #261]	; 0x105
    6ad4:	2080      	movs	r0, #128	; 0x80
    6ad6:	f884 0104 	strb.w	r0, [r4, #260]	; 0x104
    6ada:	2000      	movs	r0, #0
    6adc:	7288      	strb	r0, [r1, #10]
    6ade:	4c68      	ldr	r4, [pc, #416]	; (6c80 <_usb_d_dev_ep_enable+0x25c>)
    6ae0:	eb04 1242 	add.w	r2, r4, r2, lsl #5
    6ae4:	7690      	strb	r0, [r2, #26]
    6ae6:	7c9a      	ldrb	r2, [r3, #18]
    6ae8:	f002 020f 	and.w	r2, r2, #15
    6aec:	68de      	ldr	r6, [r3, #12]
    6aee:	0152      	lsls	r2, r2, #5
    6af0:	18a1      	adds	r1, r4, r2
    6af2:	50a6      	str	r6, [r4, r2]
    6af4:	8a1c      	ldrh	r4, [r3, #16]
    6af6:	684b      	ldr	r3, [r1, #4]
    6af8:	f364 339b 	bfi	r3, r4, #14, #14
    6afc:	604b      	str	r3, [r1, #4]
    6afe:	684b      	ldr	r3, [r1, #4]
    6b00:	f360 030d 	bfi	r3, r0, #0, #14
    6b04:	604b      	str	r3, [r1, #4]
    6b06:	f102 4382 	add.w	r3, r2, #1090519040	; 0x41000000
    6b0a:	21b0      	movs	r1, #176	; 0xb0
    6b0c:	f883 1104 	strb.w	r1, [r3, #260]	; 0x104
    6b10:	f883 5105 	strb.w	r5, [r3, #261]	; 0x105
    6b14:	461a      	mov	r2, r3
    6b16:	2310      	movs	r3, #16
    6b18:	f882 3109 	strb.w	r3, [r2, #265]	; 0x109
    6b1c:	e0ac      	b.n	6c78 <_usb_d_dev_ep_enable+0x254>
    6b1e:	b3b5      	cbz	r5, 6b8e <_usb_d_dev_ep_enable+0x16a>
    6b20:	f014 0f70 	tst.w	r4, #112	; 0x70
    6b24:	d170      	bne.n	6c08 <_usb_d_dev_ep_enable+0x1e4>
    6b26:	ea44 1400 	orr.w	r4, r4, r0, lsl #4
    6b2a:	0155      	lsls	r5, r2, #5
    6b2c:	f105 4582 	add.w	r5, r5, #1090519040	; 0x41000000
    6b30:	f885 4100 	strb.w	r4, [r5, #256]	; 0x100
    6b34:	8a1b      	ldrh	r3, [r3, #16]
    6b36:	f3c3 000d 	ubfx	r0, r3, #0, #14
    6b3a:	f5b3 7f00 	cmp.w	r3, #512	; 0x200
    6b3e:	d80f      	bhi.n	6b60 <_usb_d_dev_ep_enable+0x13c>
    6b40:	f5b3 7f80 	cmp.w	r3, #256	; 0x100
    6b44:	d80e      	bhi.n	6b64 <_usb_d_dev_ep_enable+0x140>
    6b46:	2b80      	cmp	r3, #128	; 0x80
    6b48:	d80e      	bhi.n	6b68 <_usb_d_dev_ep_enable+0x144>
    6b4a:	2b40      	cmp	r3, #64	; 0x40
    6b4c:	d80e      	bhi.n	6b6c <_usb_d_dev_ep_enable+0x148>
    6b4e:	2b20      	cmp	r3, #32
    6b50:	d80e      	bhi.n	6b70 <_usb_d_dev_ep_enable+0x14c>
    6b52:	2b10      	cmp	r3, #16
    6b54:	d80e      	bhi.n	6b74 <_usb_d_dev_ep_enable+0x150>
    6b56:	2b08      	cmp	r3, #8
    6b58:	bf94      	ite	ls
    6b5a:	2300      	movls	r3, #0
    6b5c:	2301      	movhi	r3, #1
    6b5e:	e00a      	b.n	6b76 <_usb_d_dev_ep_enable+0x152>
    6b60:	2307      	movs	r3, #7
    6b62:	e008      	b.n	6b76 <_usb_d_dev_ep_enable+0x152>
    6b64:	2306      	movs	r3, #6
    6b66:	e006      	b.n	6b76 <_usb_d_dev_ep_enable+0x152>
    6b68:	2305      	movs	r3, #5
    6b6a:	e004      	b.n	6b76 <_usb_d_dev_ep_enable+0x152>
    6b6c:	2304      	movs	r3, #4
    6b6e:	e002      	b.n	6b76 <_usb_d_dev_ep_enable+0x152>
    6b70:	2303      	movs	r3, #3
    6b72:	e000      	b.n	6b76 <_usb_d_dev_ep_enable+0x152>
    6b74:	2302      	movs	r3, #2
    6b76:	ea40 7303 	orr.w	r3, r0, r3, lsl #28
    6b7a:	614b      	str	r3, [r1, #20]
    6b7c:	2380      	movs	r3, #128	; 0x80
    6b7e:	f885 3104 	strb.w	r3, [r5, #260]	; 0x104
    6b82:	4b3f      	ldr	r3, [pc, #252]	; (6c80 <_usb_d_dev_ep_enable+0x25c>)
    6b84:	eb03 1242 	add.w	r2, r3, r2, lsl #5
    6b88:	2000      	movs	r0, #0
    6b8a:	7690      	strb	r0, [r2, #26]
    6b8c:	e074      	b.n	6c78 <_usb_d_dev_ep_enable+0x254>
    6b8e:	f014 0f07 	tst.w	r4, #7
    6b92:	d13c      	bne.n	6c0e <_usb_d_dev_ep_enable+0x1ea>
    6b94:	4304      	orrs	r4, r0
    6b96:	0152      	lsls	r2, r2, #5
    6b98:	f102 4282 	add.w	r2, r2, #1090519040	; 0x41000000
    6b9c:	f882 4100 	strb.w	r4, [r2, #256]	; 0x100
    6ba0:	8a1b      	ldrh	r3, [r3, #16]
    6ba2:	4838      	ldr	r0, [pc, #224]	; (6c84 <_usb_d_dev_ep_enable+0x260>)
    6ba4:	ea00 3083 	and.w	r0, r0, r3, lsl #14
    6ba8:	f5b3 7f00 	cmp.w	r3, #512	; 0x200
    6bac:	d80f      	bhi.n	6bce <_usb_d_dev_ep_enable+0x1aa>
    6bae:	f5b3 7f80 	cmp.w	r3, #256	; 0x100
    6bb2:	d80e      	bhi.n	6bd2 <_usb_d_dev_ep_enable+0x1ae>
    6bb4:	2b80      	cmp	r3, #128	; 0x80
    6bb6:	d80e      	bhi.n	6bd6 <_usb_d_dev_ep_enable+0x1b2>
    6bb8:	2b40      	cmp	r3, #64	; 0x40
    6bba:	d80e      	bhi.n	6bda <_usb_d_dev_ep_enable+0x1b6>
    6bbc:	2b20      	cmp	r3, #32
    6bbe:	d80e      	bhi.n	6bde <_usb_d_dev_ep_enable+0x1ba>
    6bc0:	2b10      	cmp	r3, #16
    6bc2:	d80e      	bhi.n	6be2 <_usb_d_dev_ep_enable+0x1be>
    6bc4:	2b08      	cmp	r3, #8
    6bc6:	bf94      	ite	ls
    6bc8:	2300      	movls	r3, #0
    6bca:	2301      	movhi	r3, #1
    6bcc:	e00a      	b.n	6be4 <_usb_d_dev_ep_enable+0x1c0>
    6bce:	2307      	movs	r3, #7
    6bd0:	e008      	b.n	6be4 <_usb_d_dev_ep_enable+0x1c0>
    6bd2:	2306      	movs	r3, #6
    6bd4:	e006      	b.n	6be4 <_usb_d_dev_ep_enable+0x1c0>
    6bd6:	2305      	movs	r3, #5
    6bd8:	e004      	b.n	6be4 <_usb_d_dev_ep_enable+0x1c0>
    6bda:	2304      	movs	r3, #4
    6bdc:	e002      	b.n	6be4 <_usb_d_dev_ep_enable+0x1c0>
    6bde:	2303      	movs	r3, #3
    6be0:	e000      	b.n	6be4 <_usb_d_dev_ep_enable+0x1c0>
    6be2:	2302      	movs	r3, #2
    6be4:	ea40 7303 	orr.w	r3, r0, r3, lsl #28
    6be8:	604b      	str	r3, [r1, #4]
    6bea:	2340      	movs	r3, #64	; 0x40
    6bec:	f882 3105 	strb.w	r3, [r2, #261]	; 0x105
    6bf0:	2000      	movs	r0, #0
    6bf2:	7288      	strb	r0, [r1, #10]
    6bf4:	e040      	b.n	6c78 <_usb_d_dev_ep_enable+0x254>
    6bf6:	f06f 0011 	mvn.w	r0, #17
    6bfa:	e03d      	b.n	6c78 <_usb_d_dev_ep_enable+0x254>
    6bfc:	f06f 0011 	mvn.w	r0, #17
    6c00:	e03a      	b.n	6c78 <_usb_d_dev_ep_enable+0x254>
    6c02:	f06f 0013 	mvn.w	r0, #19
    6c06:	e037      	b.n	6c78 <_usb_d_dev_ep_enable+0x254>
    6c08:	f06f 0013 	mvn.w	r0, #19
    6c0c:	e034      	b.n	6c78 <_usb_d_dev_ep_enable+0x254>
    6c0e:	f06f 0013 	mvn.w	r0, #19
    6c12:	e031      	b.n	6c78 <_usb_d_dev_ep_enable+0x254>
    6c14:	f04f 4382 	mov.w	r3, #1090519040	; 0x41000000
    6c18:	f893 4100 	ldrb.w	r4, [r3, #256]	; 0x100
    6c1c:	b2e4      	uxtb	r4, r4
    6c1e:	2200      	movs	r2, #0
    6c20:	4b19      	ldr	r3, [pc, #100]	; (6c88 <_usb_d_dev_ep_enable+0x264>)
    6c22:	e719      	b.n	6a58 <_usb_d_dev_ep_enable+0x34>
    6c24:	f045 45a0 	orr.w	r5, r5, #1342177280	; 0x50000000
    6c28:	604d      	str	r5, [r1, #4]
    6c2a:	f3c0 000d 	ubfx	r0, r0, #0, #14
    6c2e:	2505      	movs	r5, #5
    6c30:	e74a      	b.n	6ac8 <_usb_d_dev_ep_enable+0xa4>
    6c32:	f045 5540 	orr.w	r5, r5, #805306368	; 0x30000000
    6c36:	604d      	str	r5, [r1, #4]
    6c38:	f3c0 000d 	ubfx	r0, r0, #0, #14
    6c3c:	2503      	movs	r5, #3
    6c3e:	e743      	b.n	6ac8 <_usb_d_dev_ep_enable+0xa4>
    6c40:	f045 45c0 	orr.w	r5, r5, #1610612736	; 0x60000000
    6c44:	604d      	str	r5, [r1, #4]
    6c46:	f3c0 000d 	ubfx	r0, r0, #0, #14
    6c4a:	2506      	movs	r5, #6
    6c4c:	e73c      	b.n	6ac8 <_usb_d_dev_ep_enable+0xa4>
    6c4e:	f045 5500 	orr.w	r5, r5, #536870912	; 0x20000000
    6c52:	604d      	str	r5, [r1, #4]
    6c54:	f3c0 000d 	ubfx	r0, r0, #0, #14
    6c58:	2502      	movs	r5, #2
    6c5a:	e735      	b.n	6ac8 <_usb_d_dev_ep_enable+0xa4>
    6c5c:	f045 4580 	orr.w	r5, r5, #1073741824	; 0x40000000
    6c60:	604d      	str	r5, [r1, #4]
    6c62:	f3c0 000d 	ubfx	r0, r0, #0, #14
    6c66:	2504      	movs	r5, #4
    6c68:	e72e      	b.n	6ac8 <_usb_d_dev_ep_enable+0xa4>
    6c6a:	f045 45e0 	orr.w	r5, r5, #1879048192	; 0x70000000
    6c6e:	604d      	str	r5, [r1, #4]
    6c70:	f3c0 000d 	ubfx	r0, r0, #0, #14
    6c74:	2507      	movs	r5, #7
    6c76:	e727      	b.n	6ac8 <_usb_d_dev_ep_enable+0xa4>
    6c78:	bc70      	pop	{r4, r5, r6}
    6c7a:	4770      	bx	lr
    6c7c:	20000b18 	.word	0x20000b18
    6c80:	20000ab8 	.word	0x20000ab8
    6c84:	0fffc000 	.word	0x0fffc000
    6c88:	20000b2c 	.word	0x20000b2c

00006c8c <_usb_d_dev_ep_stall>:
    6c8c:	b430      	push	{r4, r5}
    6c8e:	09c3      	lsrs	r3, r0, #7
    6c90:	f010 000f 	ands.w	r0, r0, #15
    6c94:	d00c      	beq.n	6cb0 <_usb_d_dev_ep_stall+0x24>
    6c96:	b10b      	cbz	r3, 6c9c <_usb_d_dev_ep_stall+0x10>
    6c98:	1c82      	adds	r2, r0, #2
    6c9a:	e000      	b.n	6c9e <_usb_d_dev_ep_stall+0x12>
    6c9c:	4602      	mov	r2, r0
    6c9e:	eb02 0282 	add.w	r2, r2, r2, lsl #2
    6ca2:	4c3c      	ldr	r4, [pc, #240]	; (6d94 <_usb_d_dev_ep_stall+0x108>)
    6ca4:	eb04 0282 	add.w	r2, r4, r2, lsl #2
    6ca8:	3214      	adds	r2, #20
    6caa:	2802      	cmp	r0, #2
    6cac:	d901      	bls.n	6cb2 <_usb_d_dev_ep_stall+0x26>
    6cae:	e068      	b.n	6d82 <_usb_d_dev_ep_stall+0xf6>
    6cb0:	4a39      	ldr	r2, [pc, #228]	; (6d98 <_usb_d_dev_ep_stall+0x10c>)
    6cb2:	2901      	cmp	r1, #1
    6cb4:	d119      	bne.n	6cea <_usb_d_dev_ep_stall+0x5e>
    6cb6:	2410      	movs	r4, #16
    6cb8:	409c      	lsls	r4, r3
    6cba:	b2e4      	uxtb	r4, r4
    6cbc:	7c91      	ldrb	r1, [r2, #18]
    6cbe:	f001 010f 	and.w	r1, r1, #15
    6cc2:	0148      	lsls	r0, r1, #5
    6cc4:	f100 4082 	add.w	r0, r0, #1090519040	; 0x41000000
    6cc8:	f880 4105 	strb.w	r4, [r0, #261]	; 0x105
    6ccc:	2020      	movs	r0, #32
    6cce:	fa00 f303 	lsl.w	r3, r0, r3
    6cd2:	b2db      	uxtb	r3, r3
    6cd4:	0149      	lsls	r1, r1, #5
    6cd6:	f101 4182 	add.w	r1, r1, #1090519040	; 0x41000000
    6cda:	f881 3109 	strb.w	r3, [r1, #265]	; 0x109
    6cde:	7cd3      	ldrb	r3, [r2, #19]
    6ce0:	f043 0308 	orr.w	r3, r3, #8
    6ce4:	74d3      	strb	r3, [r2, #19]
    6ce6:	2000      	movs	r0, #0
    6ce8:	e051      	b.n	6d8e <_usb_d_dev_ep_stall+0x102>
    6cea:	2900      	cmp	r1, #0
    6cec:	d138      	bne.n	6d60 <_usb_d_dev_ep_stall+0xd4>
    6cee:	7c90      	ldrb	r0, [r2, #18]
    6cf0:	f000 000f 	and.w	r0, r0, #15
    6cf4:	0141      	lsls	r1, r0, #5
    6cf6:	f101 4182 	add.w	r1, r1, #1090519040	; 0x41000000
    6cfa:	f891 5106 	ldrb.w	r5, [r1, #262]	; 0x106
    6cfe:	2410      	movs	r4, #16
    6d00:	409c      	lsls	r4, r3
    6d02:	4225      	tst	r5, r4
    6d04:	d040      	beq.n	6d88 <_usb_d_dev_ep_stall+0xfc>
    6d06:	b2e4      	uxtb	r4, r4
    6d08:	f881 4104 	strb.w	r4, [r1, #260]	; 0x104
    6d0c:	2420      	movs	r4, #32
    6d0e:	fa04 f503 	lsl.w	r5, r4, r3
    6d12:	b2ed      	uxtb	r5, r5
    6d14:	f881 5108 	strb.w	r5, [r1, #264]	; 0x108
    6d18:	f891 0107 	ldrb.w	r0, [r1, #263]	; 0x107
    6d1c:	409c      	lsls	r4, r3
    6d1e:	4220      	tst	r0, r4
    6d20:	d008      	beq.n	6d34 <_usb_d_dev_ep_stall+0xa8>
    6d22:	b2e4      	uxtb	r4, r4
    6d24:	f881 4107 	strb.w	r4, [r1, #263]	; 0x107
    6d28:	2001      	movs	r0, #1
    6d2a:	fa00 f303 	lsl.w	r3, r0, r3
    6d2e:	b2db      	uxtb	r3, r3
    6d30:	f881 3104 	strb.w	r3, [r1, #260]	; 0x104
    6d34:	7cd3      	ldrb	r3, [r2, #19]
    6d36:	f003 0307 	and.w	r3, r3, #7
    6d3a:	2b01      	cmp	r3, #1
    6d3c:	d10a      	bne.n	6d54 <_usb_d_dev_ep_stall+0xc8>
    6d3e:	f891 3106 	ldrb.w	r3, [r1, #262]	; 0x106
    6d42:	f013 0f30 	tst.w	r3, #48	; 0x30
    6d46:	d121      	bne.n	6d8c <_usb_d_dev_ep_stall+0x100>
    6d48:	7cd3      	ldrb	r3, [r2, #19]
    6d4a:	f36f 03c3 	bfc	r3, #3, #1
    6d4e:	74d3      	strb	r3, [r2, #19]
    6d50:	2000      	movs	r0, #0
    6d52:	e01c      	b.n	6d8e <_usb_d_dev_ep_stall+0x102>
    6d54:	7cd3      	ldrb	r3, [r2, #19]
    6d56:	f36f 03c3 	bfc	r3, #3, #1
    6d5a:	74d3      	strb	r3, [r2, #19]
    6d5c:	2000      	movs	r0, #0
    6d5e:	e016      	b.n	6d8e <_usb_d_dev_ep_stall+0x102>
    6d60:	7c92      	ldrb	r2, [r2, #18]
    6d62:	f002 020f 	and.w	r2, r2, #15
    6d66:	0152      	lsls	r2, r2, #5
    6d68:	f102 4282 	add.w	r2, r2, #1090519040	; 0x41000000
    6d6c:	f502 7280 	add.w	r2, r2, #256	; 0x100
    6d70:	7992      	ldrb	r2, [r2, #6]
    6d72:	2110      	movs	r1, #16
    6d74:	fa01 f303 	lsl.w	r3, r1, r3
    6d78:	421a      	tst	r2, r3
    6d7a:	bf0c      	ite	eq
    6d7c:	2000      	moveq	r0, #0
    6d7e:	2001      	movne	r0, #1
    6d80:	e005      	b.n	6d8e <_usb_d_dev_ep_stall+0x102>
    6d82:	f06f 0011 	mvn.w	r0, #17
    6d86:	e002      	b.n	6d8e <_usb_d_dev_ep_stall+0x102>
    6d88:	2000      	movs	r0, #0
    6d8a:	e000      	b.n	6d8e <_usb_d_dev_ep_stall+0x102>
    6d8c:	2000      	movs	r0, #0
    6d8e:	bc30      	pop	{r4, r5}
    6d90:	4770      	bx	lr
    6d92:	bf00      	nop
    6d94:	20000b18 	.word	0x20000b18
    6d98:	20000b2c 	.word	0x20000b2c

00006d9c <_usb_d_dev_ep_read_req>:
    6d9c:	b430      	push	{r4, r5}
    6d9e:	f000 000f 	and.w	r0, r0, #15
    6da2:	4a16      	ldr	r2, [pc, #88]	; (6dfc <_usb_d_dev_ep_read_req+0x60>)
    6da4:	0143      	lsls	r3, r0, #5
    6da6:	18d4      	adds	r4, r2, r3
    6da8:	58d5      	ldr	r5, [r2, r3]
    6daa:	6863      	ldr	r3, [r4, #4]
    6dac:	f3c3 040d 	ubfx	r4, r3, #0, #14
    6db0:	2802      	cmp	r0, #2
    6db2:	d816      	bhi.n	6de2 <_usb_d_dev_ep_read_req+0x46>
    6db4:	b1c1      	cbz	r1, 6de8 <_usb_d_dev_ep_read_req+0x4c>
    6db6:	0142      	lsls	r2, r0, #5
    6db8:	f102 4382 	add.w	r3, r2, #1090519040	; 0x41000000
    6dbc:	f893 2100 	ldrb.w	r2, [r3, #256]	; 0x100
    6dc0:	b2d2      	uxtb	r2, r2
    6dc2:	2a11      	cmp	r2, #17
    6dc4:	d113      	bne.n	6dee <_usb_d_dev_ep_read_req+0x52>
    6dc6:	f893 2107 	ldrb.w	r2, [r3, #263]	; 0x107
    6dca:	f012 0f10 	tst.w	r2, #16
    6dce:	d011      	beq.n	6df4 <_usb_d_dev_ep_read_req+0x58>
    6dd0:	6828      	ldr	r0, [r5, #0]
    6dd2:	686a      	ldr	r2, [r5, #4]
    6dd4:	6008      	str	r0, [r1, #0]
    6dd6:	604a      	str	r2, [r1, #4]
    6dd8:	2210      	movs	r2, #16
    6dda:	f883 2107 	strb.w	r2, [r3, #263]	; 0x107
    6dde:	4620      	mov	r0, r4
    6de0:	e009      	b.n	6df6 <_usb_d_dev_ep_read_req+0x5a>
    6de2:	f06f 0011 	mvn.w	r0, #17
    6de6:	e006      	b.n	6df6 <_usb_d_dev_ep_read_req+0x5a>
    6de8:	f06f 0011 	mvn.w	r0, #17
    6dec:	e003      	b.n	6df6 <_usb_d_dev_ep_read_req+0x5a>
    6dee:	f06f 0012 	mvn.w	r0, #18
    6df2:	e000      	b.n	6df6 <_usb_d_dev_ep_read_req+0x5a>
    6df4:	2000      	movs	r0, #0
    6df6:	bc30      	pop	{r4, r5}
    6df8:	4770      	bx	lr
    6dfa:	bf00      	nop
    6dfc:	20000ab8 	.word	0x20000ab8

00006e00 <_usb_d_dev_ep_trans>:
    6e00:	e92d 43f0 	stmdb	sp!, {r4, r5, r6, r7, r8, r9, lr}
    6e04:	b083      	sub	sp, #12
    6e06:	4605      	mov	r5, r0
    6e08:	7a03      	ldrb	r3, [r0, #8]
    6e0a:	09de      	lsrs	r6, r3, #7
    6e0c:	f013 030f 	ands.w	r3, r3, #15
    6e10:	d002      	beq.n	6e18 <_usb_d_dev_ep_trans+0x18>
    6e12:	b11e      	cbz	r6, 6e1c <_usb_d_dev_ep_trans+0x1c>
    6e14:	1c9a      	adds	r2, r3, #2
    6e16:	e002      	b.n	6e1e <_usb_d_dev_ep_trans+0x1e>
    6e18:	461a      	mov	r2, r3
    6e1a:	e000      	b.n	6e1e <_usb_d_dev_ep_trans+0x1e>
    6e1c:	461a      	mov	r2, r3
    6e1e:	eb02 0282 	add.w	r2, r2, r2, lsl #2
    6e22:	4946      	ldr	r1, [pc, #280]	; (6f3c <_usb_d_dev_ep_trans+0x13c>)
    6e24:	eb01 0782 	add.w	r7, r1, r2, lsl #2
    6e28:	3710      	adds	r7, #16
    6e2a:	1d3c      	adds	r4, r7, #4
    6e2c:	8a21      	ldrh	r1, [r4, #16]
    6e2e:	f240 32ff 	movw	r2, #1023	; 0x3ff
    6e32:	4291      	cmp	r1, r2
    6e34:	bf1a      	itte	ne
    6e36:	f101 30ff 	addne.w	r0, r1, #4294967295	; 0xffffffff
    6e3a:	b280      	uxthne	r0, r0
    6e3c:	f240 30ff 	movweq	r0, #1023	; 0x3ff
    6e40:	686a      	ldr	r2, [r5, #4]
    6e42:	4210      	tst	r0, r2
    6e44:	bf0c      	ite	eq
    6e46:	f04f 0800 	moveq.w	r8, #0
    6e4a:	f04f 0801 	movne.w	r8, #1
    6e4e:	2b02      	cmp	r3, #2
    6e50:	d85d      	bhi.n	6f0e <_usb_d_dev_ep_trans+0x10e>
    6e52:	682b      	ldr	r3, [r5, #0]
    6e54:	f1b3 5f00 	cmp.w	r3, #536870912	; 0x20000000
    6e58:	d30d      	bcc.n	6e76 <_usb_d_dev_ep_trans+0x76>
    6e5a:	eb03 0c02 	add.w	ip, r3, r2
    6e5e:	4838      	ldr	r0, [pc, #224]	; (6f40 <_usb_d_dev_ep_trans+0x140>)
    6e60:	4584      	cmp	ip, r0
    6e62:	d808      	bhi.n	6e76 <_usb_d_dev_ep_trans+0x76>
    6e64:	f013 0f03 	tst.w	r3, #3
    6e68:	d105      	bne.n	6e76 <_usb_d_dev_ep_trans+0x76>
    6e6a:	b986      	cbnz	r6, 6e8e <_usb_d_dev_ep_trans+0x8e>
    6e6c:	428a      	cmp	r2, r1
    6e6e:	d35c      	bcc.n	6f2a <_usb_d_dev_ep_trans+0x12a>
    6e70:	f04f 0900 	mov.w	r9, #0
    6e74:	e005      	b.n	6e82 <_usb_d_dev_ep_trans+0x82>
    6e76:	68e3      	ldr	r3, [r4, #12]
    6e78:	2b00      	cmp	r3, #0
    6e7a:	d04b      	beq.n	6f14 <_usb_d_dev_ep_trans+0x114>
    6e7c:	b956      	cbnz	r6, 6e94 <_usb_d_dev_ep_trans+0x94>
    6e7e:	f04f 0901 	mov.w	r9, #1
    6e82:	f1b8 0f00 	cmp.w	r8, #0
    6e86:	d007      	beq.n	6e98 <_usb_d_dev_ep_trans+0x98>
    6e88:	68e3      	ldr	r3, [r4, #12]
    6e8a:	b92b      	cbnz	r3, 6e98 <_usb_d_dev_ep_trans+0x98>
    6e8c:	e045      	b.n	6f1a <_usb_d_dev_ep_trans+0x11a>
    6e8e:	f04f 0900 	mov.w	r9, #0
    6e92:	e001      	b.n	6e98 <_usb_d_dev_ep_trans+0x98>
    6e94:	f04f 0901 	mov.w	r9, #1
    6e98:	7ce3      	ldrb	r3, [r4, #19]
    6e9a:	f013 0f08 	tst.w	r3, #8
    6e9e:	d13f      	bne.n	6f20 <_usb_d_dev_ep_trans+0x120>
    6ea0:	a801      	add	r0, sp, #4
    6ea2:	4b28      	ldr	r3, [pc, #160]	; (6f44 <_usb_d_dev_ep_trans+0x144>)
    6ea4:	4798      	blx	r3
    6ea6:	7ce3      	ldrb	r3, [r4, #19]
    6ea8:	f013 0f40 	tst.w	r3, #64	; 0x40
    6eac:	d004      	beq.n	6eb8 <_usb_d_dev_ep_trans+0xb8>
    6eae:	a801      	add	r0, sp, #4
    6eb0:	4b25      	ldr	r3, [pc, #148]	; (6f48 <_usb_d_dev_ep_trans+0x148>)
    6eb2:	4798      	blx	r3
    6eb4:	2001      	movs	r0, #1
    6eb6:	e03e      	b.n	6f36 <_usb_d_dev_ep_trans+0x136>
    6eb8:	7ce3      	ldrb	r3, [r4, #19]
    6eba:	f043 0340 	orr.w	r3, r3, #64	; 0x40
    6ebe:	74e3      	strb	r3, [r4, #19]
    6ec0:	a801      	add	r0, sp, #4
    6ec2:	4b21      	ldr	r3, [pc, #132]	; (6f48 <_usb_d_dev_ep_trans+0x148>)
    6ec4:	4798      	blx	r3
    6ec6:	682b      	ldr	r3, [r5, #0]
    6ec8:	607b      	str	r3, [r7, #4]
    6eca:	686b      	ldr	r3, [r5, #4]
    6ecc:	6063      	str	r3, [r4, #4]
    6ece:	2300      	movs	r3, #0
    6ed0:	60a3      	str	r3, [r4, #8]
    6ed2:	7ce3      	ldrb	r3, [r4, #19]
    6ed4:	f366 13c7 	bfi	r3, r6, #7, #1
    6ed8:	f369 1345 	bfi	r3, r9, #5, #1
    6edc:	74e3      	strb	r3, [r4, #19]
    6ede:	7a6b      	ldrb	r3, [r5, #9]
    6ee0:	b113      	cbz	r3, 6ee8 <_usb_d_dev_ep_trans+0xe8>
    6ee2:	f088 0801 	eor.w	r8, r8, #1
    6ee6:	e001      	b.n	6eec <_usb_d_dev_ep_trans+0xec>
    6ee8:	f04f 0800 	mov.w	r8, #0
    6eec:	7ce3      	ldrb	r3, [r4, #19]
    6eee:	f368 1304 	bfi	r3, r8, #4, #1
    6ef2:	74e3      	strb	r3, [r4, #19]
    6ef4:	b12e      	cbz	r6, 6f02 <_usb_d_dev_ep_trans+0x102>
    6ef6:	4620      	mov	r0, r4
    6ef8:	2100      	movs	r1, #0
    6efa:	4b14      	ldr	r3, [pc, #80]	; (6f4c <_usb_d_dev_ep_trans+0x14c>)
    6efc:	4798      	blx	r3
    6efe:	2000      	movs	r0, #0
    6f00:	e019      	b.n	6f36 <_usb_d_dev_ep_trans+0x136>
    6f02:	4620      	mov	r0, r4
    6f04:	2100      	movs	r1, #0
    6f06:	4b12      	ldr	r3, [pc, #72]	; (6f50 <_usb_d_dev_ep_trans+0x150>)
    6f08:	4798      	blx	r3
    6f0a:	2000      	movs	r0, #0
    6f0c:	e013      	b.n	6f36 <_usb_d_dev_ep_trans+0x136>
    6f0e:	f06f 0011 	mvn.w	r0, #17
    6f12:	e010      	b.n	6f36 <_usb_d_dev_ep_trans+0x136>
    6f14:	f06f 0012 	mvn.w	r0, #18
    6f18:	e00d      	b.n	6f36 <_usb_d_dev_ep_trans+0x136>
    6f1a:	f06f 0011 	mvn.w	r0, #17
    6f1e:	e00a      	b.n	6f36 <_usb_d_dev_ep_trans+0x136>
    6f20:	2002      	movs	r0, #2
    6f22:	e008      	b.n	6f36 <_usb_d_dev_ep_trans+0x136>
    6f24:	f06f 0012 	mvn.w	r0, #18
    6f28:	e005      	b.n	6f36 <_usb_d_dev_ep_trans+0x136>
    6f2a:	68e3      	ldr	r3, [r4, #12]
    6f2c:	2b00      	cmp	r3, #0
    6f2e:	d0f9      	beq.n	6f24 <_usb_d_dev_ep_trans+0x124>
    6f30:	f04f 0901 	mov.w	r9, #1
    6f34:	e7a5      	b.n	6e82 <_usb_d_dev_ep_trans+0x82>
    6f36:	b003      	add	sp, #12
    6f38:	e8bd 83f0 	ldmia.w	sp!, {r4, r5, r6, r7, r8, r9, pc}
    6f3c:	20000b18 	.word	0x20000b18
    6f40:	20041fff 	.word	0x20041fff
    6f44:	0000439d 	.word	0x0000439d
    6f48:	000043ad 	.word	0x000043ad
    6f4c:	000061b5 	.word	0x000061b5
    6f50:	00006319 	.word	0x00006319

00006f54 <_usb_d_dev_register_callback>:
    6f54:	4b06      	ldr	r3, [pc, #24]	; (6f70 <_usb_d_dev_register_callback+0x1c>)
    6f56:	2900      	cmp	r1, #0
    6f58:	bf08      	it	eq
    6f5a:	4619      	moveq	r1, r3
    6f5c:	2801      	cmp	r0, #1
    6f5e:	d102      	bne.n	6f66 <_usb_d_dev_register_callback+0x12>
    6f60:	4b04      	ldr	r3, [pc, #16]	; (6f74 <_usb_d_dev_register_callback+0x20>)
    6f62:	6059      	str	r1, [r3, #4]
    6f64:	4770      	bx	lr
    6f66:	b908      	cbnz	r0, 6f6c <_usb_d_dev_register_callback+0x18>
    6f68:	4b02      	ldr	r3, [pc, #8]	; (6f74 <_usb_d_dev_register_callback+0x20>)
    6f6a:	6019      	str	r1, [r3, #0]
    6f6c:	4770      	bx	lr
    6f6e:	bf00      	nop
    6f70:	00005f15 	.word	0x00005f15
    6f74:	20000b18 	.word	0x20000b18

00006f78 <_usb_d_dev_register_ep_callback>:
    6f78:	4b09      	ldr	r3, [pc, #36]	; (6fa0 <_usb_d_dev_register_ep_callback+0x28>)
    6f7a:	2900      	cmp	r1, #0
    6f7c:	bf08      	it	eq
    6f7e:	4619      	moveq	r1, r3
    6f80:	4603      	mov	r3, r0
    6f82:	b910      	cbnz	r0, 6f8a <_usb_d_dev_register_ep_callback+0x12>
    6f84:	4b07      	ldr	r3, [pc, #28]	; (6fa4 <_usb_d_dev_register_ep_callback+0x2c>)
    6f86:	6099      	str	r1, [r3, #8]
    6f88:	4770      	bx	lr
    6f8a:	2801      	cmp	r0, #1
    6f8c:	d102      	bne.n	6f94 <_usb_d_dev_register_ep_callback+0x1c>
    6f8e:	4b05      	ldr	r3, [pc, #20]	; (6fa4 <_usb_d_dev_register_ep_callback+0x2c>)
    6f90:	60d9      	str	r1, [r3, #12]
    6f92:	4770      	bx	lr
    6f94:	2802      	cmp	r0, #2
    6f96:	bf04      	itt	eq
    6f98:	4b02      	ldreq	r3, [pc, #8]	; (6fa4 <_usb_d_dev_register_ep_callback+0x2c>)
    6f9a:	6119      	streq	r1, [r3, #16]
    6f9c:	4770      	bx	lr
    6f9e:	bf00      	nop
    6fa0:	00005f15 	.word	0x00005f15
    6fa4:	20000b18 	.word	0x20000b18

00006fa8 <USB_0_Handler>:
    6fa8:	b508      	push	{r3, lr}
    6faa:	4b01      	ldr	r3, [pc, #4]	; (6fb0 <USB_0_Handler+0x8>)
    6fac:	4798      	blx	r3
    6fae:	bd08      	pop	{r3, pc}
    6fb0:	000064cd 	.word	0x000064cd

00006fb4 <USB_1_Handler>:
    6fb4:	b508      	push	{r3, lr}
    6fb6:	4b01      	ldr	r3, [pc, #4]	; (6fbc <USB_1_Handler+0x8>)
    6fb8:	4798      	blx	r3
    6fba:	bd08      	pop	{r3, pc}
    6fbc:	000064cd 	.word	0x000064cd

00006fc0 <USB_2_Handler>:
    6fc0:	b508      	push	{r3, lr}
    6fc2:	4b01      	ldr	r3, [pc, #4]	; (6fc8 <USB_2_Handler+0x8>)
    6fc4:	4798      	blx	r3
    6fc6:	bd08      	pop	{r3, pc}
    6fc8:	000064cd 	.word	0x000064cd

00006fcc <USB_3_Handler>:
    6fcc:	b508      	push	{r3, lr}
    6fce:	4b01      	ldr	r3, [pc, #4]	; (6fd4 <USB_3_Handler+0x8>)
    6fd0:	4798      	blx	r3
    6fd2:	bd08      	pop	{r3, pc}
    6fd4:	000064cd 	.word	0x000064cd

00006fd8 <sd_mmc_init>:
    6fd8:	b410      	push	{r4}
    6fda:	2404      	movs	r4, #4
    6fdc:	4b06      	ldr	r3, [pc, #24]	; (6ff8 <sd_mmc_init+0x20>)
    6fde:	729c      	strb	r4, [r3, #10]
    6fe0:	24ff      	movs	r4, #255	; 0xff
    6fe2:	4b06      	ldr	r3, [pc, #24]	; (6ffc <sd_mmc_init+0x24>)
    6fe4:	701c      	strb	r4, [r3, #0]
    6fe6:	4b06      	ldr	r3, [pc, #24]	; (7000 <sd_mmc_init+0x28>)
    6fe8:	6018      	str	r0, [r3, #0]
    6fea:	4b06      	ldr	r3, [pc, #24]	; (7004 <sd_mmc_init+0x2c>)
    6fec:	6019      	str	r1, [r3, #0]
    6fee:	4b06      	ldr	r3, [pc, #24]	; (7008 <sd_mmc_init+0x30>)
    6ff0:	601a      	str	r2, [r3, #0]
    6ff2:	f85d 4b04 	ldr.w	r4, [sp], #4
    6ff6:	4770      	bx	lr
    6ff8:	20000c70 	.word	0x20000c70
    6ffc:	20000c6c 	.word	0x20000c6c
    7000:	20000c64 	.word	0x20000c64
    7004:	20000c68 	.word	0x20000c68
    7008:	20000c60 	.word	0x20000c60

0000700c <cdcdf_acm_req>:
    700c:	b5f0      	push	{r4, r5, r6, r7, lr}
    700e:	b083      	sub	sp, #12
    7010:	4607      	mov	r7, r0
    7012:	460c      	mov	r4, r1
    7014:	4616      	mov	r6, r2
    7016:	780b      	ldrb	r3, [r1, #0]
    7018:	f3c3 1141 	ubfx	r1, r3, #5, #2
    701c:	2901      	cmp	r1, #1
    701e:	d163      	bne.n	70e8 <cdcdf_acm_req+0xdc>
    7020:	88a1      	ldrh	r1, [r4, #4]
    7022:	4a35      	ldr	r2, [pc, #212]	; (70f8 <cdcdf_acm_req+0xec>)
    7024:	7815      	ldrb	r5, [r2, #0]
    7026:	428d      	cmp	r5, r1
    7028:	d002      	beq.n	7030 <cdcdf_acm_req+0x24>
    702a:	7852      	ldrb	r2, [r2, #1]
    702c:	428a      	cmp	r2, r1
    702e:	d15e      	bne.n	70ee <cdcdf_acm_req+0xe2>
    7030:	f013 0f80 	tst.w	r3, #128	; 0x80
    7034:	d016      	beq.n	7064 <cdcdf_acm_req+0x58>
    7036:	88e3      	ldrh	r3, [r4, #6]
    7038:	2e01      	cmp	r6, #1
    703a:	d00b      	beq.n	7054 <cdcdf_acm_req+0x48>
    703c:	7862      	ldrb	r2, [r4, #1]
    703e:	2a21      	cmp	r2, #33	; 0x21
    7040:	d10a      	bne.n	7058 <cdcdf_acm_req+0x4c>
    7042:	2b07      	cmp	r3, #7
    7044:	d10b      	bne.n	705e <cdcdf_acm_req+0x52>
    7046:	4638      	mov	r0, r7
    7048:	492c      	ldr	r1, [pc, #176]	; (70fc <cdcdf_acm_req+0xf0>)
    704a:	2207      	movs	r2, #7
    704c:	2300      	movs	r3, #0
    704e:	4c2c      	ldr	r4, [pc, #176]	; (7100 <cdcdf_acm_req+0xf4>)
    7050:	47a0      	blx	r4
    7052:	e04e      	b.n	70f2 <cdcdf_acm_req+0xe6>
    7054:	2000      	movs	r0, #0
    7056:	e04c      	b.n	70f2 <cdcdf_acm_req+0xe6>
    7058:	f06f 000c 	mvn.w	r0, #12
    705c:	e049      	b.n	70f2 <cdcdf_acm_req+0xe6>
    705e:	f04f 30ff 	mov.w	r0, #4294967295	; 0xffffffff
    7062:	e046      	b.n	70f2 <cdcdf_acm_req+0xe6>
    7064:	88e5      	ldrh	r5, [r4, #6]
    7066:	4b27      	ldr	r3, [pc, #156]	; (7104 <cdcdf_acm_req+0xf8>)
    7068:	4798      	blx	r3
    706a:	4601      	mov	r1, r0
    706c:	7863      	ldrb	r3, [r4, #1]
    706e:	2b20      	cmp	r3, #32
    7070:	d002      	beq.n	7078 <cdcdf_acm_req+0x6c>
    7072:	2b22      	cmp	r3, #34	; 0x22
    7074:	d021      	beq.n	70ba <cdcdf_acm_req+0xae>
    7076:	e02d      	b.n	70d4 <cdcdf_acm_req+0xc8>
    7078:	2d07      	cmp	r5, #7
    707a:	d12e      	bne.n	70da <cdcdf_acm_req+0xce>
    707c:	b92e      	cbnz	r6, 708a <cdcdf_acm_req+0x7e>
    707e:	4638      	mov	r0, r7
    7080:	2207      	movs	r2, #7
    7082:	2300      	movs	r3, #0
    7084:	4c1e      	ldr	r4, [pc, #120]	; (7100 <cdcdf_acm_req+0xf4>)
    7086:	47a0      	blx	r4
    7088:	e033      	b.n	70f2 <cdcdf_acm_req+0xe6>
    708a:	6800      	ldr	r0, [r0, #0]
    708c:	9000      	str	r0, [sp, #0]
    708e:	888a      	ldrh	r2, [r1, #4]
    7090:	798b      	ldrb	r3, [r1, #6]
    7092:	f8ad 2004 	strh.w	r2, [sp, #4]
    7096:	f88d 3006 	strb.w	r3, [sp, #6]
    709a:	4b1b      	ldr	r3, [pc, #108]	; (7108 <cdcdf_acm_req+0xfc>)
    709c:	681b      	ldr	r3, [r3, #0]
    709e:	b113      	cbz	r3, 70a6 <cdcdf_acm_req+0x9a>
    70a0:	4668      	mov	r0, sp
    70a2:	4798      	blx	r3
    70a4:	b1e0      	cbz	r0, 70e0 <cdcdf_acm_req+0xd4>
    70a6:	4b15      	ldr	r3, [pc, #84]	; (70fc <cdcdf_acm_req+0xf0>)
    70a8:	aa02      	add	r2, sp, #8
    70aa:	e912 0003 	ldmdb	r2, {r0, r1}
    70ae:	6018      	str	r0, [r3, #0]
    70b0:	8099      	strh	r1, [r3, #4]
    70b2:	0c09      	lsrs	r1, r1, #16
    70b4:	7199      	strb	r1, [r3, #6]
    70b6:	2000      	movs	r0, #0
    70b8:	e01b      	b.n	70f2 <cdcdf_acm_req+0xe6>
    70ba:	2000      	movs	r0, #0
    70bc:	4601      	mov	r1, r0
    70be:	4602      	mov	r2, r0
    70c0:	4603      	mov	r3, r0
    70c2:	4d0f      	ldr	r5, [pc, #60]	; (7100 <cdcdf_acm_req+0xf4>)
    70c4:	47a8      	blx	r5
    70c6:	4b11      	ldr	r3, [pc, #68]	; (710c <cdcdf_acm_req+0x100>)
    70c8:	681b      	ldr	r3, [r3, #0]
    70ca:	b15b      	cbz	r3, 70e4 <cdcdf_acm_req+0xd8>
    70cc:	8860      	ldrh	r0, [r4, #2]
    70ce:	4798      	blx	r3
    70d0:	2000      	movs	r0, #0
    70d2:	e00e      	b.n	70f2 <cdcdf_acm_req+0xe6>
    70d4:	f06f 000c 	mvn.w	r0, #12
    70d8:	e00b      	b.n	70f2 <cdcdf_acm_req+0xe6>
    70da:	f04f 30ff 	mov.w	r0, #4294967295	; 0xffffffff
    70de:	e008      	b.n	70f2 <cdcdf_acm_req+0xe6>
    70e0:	2000      	movs	r0, #0
    70e2:	e006      	b.n	70f2 <cdcdf_acm_req+0xe6>
    70e4:	2000      	movs	r0, #0
    70e6:	e004      	b.n	70f2 <cdcdf_acm_req+0xe6>
    70e8:	f06f 0009 	mvn.w	r0, #9
    70ec:	e001      	b.n	70f2 <cdcdf_acm_req+0xe6>
    70ee:	f06f 0009 	mvn.w	r0, #9
    70f2:	b003      	add	sp, #12
    70f4:	bdf0      	pop	{r4, r5, r6, r7, pc}
    70f6:	bf00      	nop
    70f8:	20000cac 	.word	0x20000cac
    70fc:	20000c94 	.word	0x20000c94
    7100:	000074c9 	.word	0x000074c9
    7104:	00007a05 	.word	0x00007a05
    7108:	20000c9c 	.word	0x20000c9c
    710c:	20000c90 	.word	0x20000c90

00007110 <cdcdf_acm_ctrl>:
    7110:	e92d 4ff0 	stmdb	sp!, {r4, r5, r6, r7, r8, r9, sl, fp, lr}
    7114:	b083      	sub	sp, #12
    7116:	4616      	mov	r6, r2
    7118:	2901      	cmp	r1, #1
    711a:	d06d      	beq.n	71f8 <cdcdf_acm_ctrl+0xe8>
    711c:	b131      	cbz	r1, 712c <cdcdf_acm_ctrl+0x1c>
    711e:	2902      	cmp	r1, #2
    7120:	bf0c      	ite	eq
    7122:	f06f 001a 	mvneq.w	r0, #26
    7126:	f06f 000c 	mvnne.w	r0, #12
    712a:	e094      	b.n	7256 <cdcdf_acm_ctrl+0x146>
    712c:	f8d0 a008 	ldr.w	sl, [r0, #8]
    7130:	6810      	ldr	r0, [r2, #0]
    7132:	2800      	cmp	r0, #0
    7134:	d04e      	beq.n	71d4 <cdcdf_acm_ctrl+0xc4>
    7136:	46d3      	mov	fp, sl
    7138:	f10a 0302 	add.w	r3, sl, #2
    713c:	9300      	str	r3, [sp, #0]
    713e:	4f47      	ldr	r7, [pc, #284]	; (725c <cdcdf_acm_ctrl+0x14c>)
    7140:	f8df 9128 	ldr.w	r9, [pc, #296]	; 726c <cdcdf_acm_ctrl+0x15c>
    7144:	f8df 8128 	ldr.w	r8, [pc, #296]	; 7270 <cdcdf_acm_ctrl+0x160>
    7148:	e001      	b.n	714e <cdcdf_acm_ctrl+0x3e>
    714a:	2800      	cmp	r0, #0
    714c:	d045      	beq.n	71da <cdcdf_acm_ctrl+0xca>
    714e:	7883      	ldrb	r3, [r0, #2]
    7150:	7942      	ldrb	r2, [r0, #5]
    7152:	f002 02f7 	and.w	r2, r2, #247	; 0xf7
    7156:	2a02      	cmp	r2, #2
    7158:	d142      	bne.n	71e0 <cdcdf_acm_ctrl+0xd0>
    715a:	f81b 2b01 	ldrb.w	r2, [fp], #1
    715e:	4293      	cmp	r3, r2
    7160:	d041      	beq.n	71e6 <cdcdf_acm_ctrl+0xd6>
    7162:	2aff      	cmp	r2, #255	; 0xff
    7164:	d142      	bne.n	71ec <cdcdf_acm_ctrl+0xdc>
    7166:	f80b 3c01 	strb.w	r3, [fp, #-1]
    716a:	6871      	ldr	r1, [r6, #4]
    716c:	2205      	movs	r2, #5
    716e:	4b3c      	ldr	r3, [pc, #240]	; (7260 <cdcdf_acm_ctrl+0x150>)
    7170:	4798      	blx	r3
    7172:	4604      	mov	r4, r0
    7174:	b1f8      	cbz	r0, 71b6 <cdcdf_acm_ctrl+0xa6>
    7176:	f8cd b004 	str.w	fp, [sp, #4]
    717a:	78a5      	ldrb	r5, [r4, #2]
    717c:	7962      	ldrb	r2, [r4, #5]
    717e:	7923      	ldrb	r3, [r4, #4]
    7180:	eb03 2202 	add.w	r2, r3, r2, lsl #8
    7184:	4628      	mov	r0, r5
    7186:	78e1      	ldrb	r1, [r4, #3]
    7188:	b292      	uxth	r2, r2
    718a:	47b8      	blx	r7
    718c:	2800      	cmp	r0, #0
    718e:	d130      	bne.n	71f2 <cdcdf_acm_ctrl+0xe2>
    7190:	f015 0f80 	tst.w	r5, #128	; 0x80
    7194:	bf14      	ite	ne
    7196:	f88b 5001 	strbne.w	r5, [fp, #1]
    719a:	f88a 5004 	strbeq.w	r5, [sl, #4]
    719e:	4628      	mov	r0, r5
    71a0:	47c8      	blx	r9
    71a2:	6034      	str	r4, [r6, #0]
    71a4:	7820      	ldrb	r0, [r4, #0]
    71a6:	4420      	add	r0, r4
    71a8:	6871      	ldr	r1, [r6, #4]
    71aa:	47c0      	blx	r8
    71ac:	4604      	mov	r4, r0
    71ae:	2800      	cmp	r0, #0
    71b0:	d1e3      	bne.n	717a <cdcdf_acm_ctrl+0x6a>
    71b2:	f8dd b004 	ldr.w	fp, [sp, #4]
    71b6:	6833      	ldr	r3, [r6, #0]
    71b8:	7818      	ldrb	r0, [r3, #0]
    71ba:	4418      	add	r0, r3
    71bc:	6871      	ldr	r1, [r6, #4]
    71be:	2204      	movs	r2, #4
    71c0:	4b27      	ldr	r3, [pc, #156]	; (7260 <cdcdf_acm_ctrl+0x150>)
    71c2:	4798      	blx	r3
    71c4:	9b00      	ldr	r3, [sp, #0]
    71c6:	459b      	cmp	fp, r3
    71c8:	d1bf      	bne.n	714a <cdcdf_acm_ctrl+0x3a>
    71ca:	2201      	movs	r2, #1
    71cc:	4b25      	ldr	r3, [pc, #148]	; (7264 <cdcdf_acm_ctrl+0x154>)
    71ce:	715a      	strb	r2, [r3, #5]
    71d0:	2000      	movs	r0, #0
    71d2:	e040      	b.n	7256 <cdcdf_acm_ctrl+0x146>
    71d4:	f06f 0009 	mvn.w	r0, #9
    71d8:	e03d      	b.n	7256 <cdcdf_acm_ctrl+0x146>
    71da:	f06f 0009 	mvn.w	r0, #9
    71de:	e03a      	b.n	7256 <cdcdf_acm_ctrl+0x146>
    71e0:	f06f 0009 	mvn.w	r0, #9
    71e4:	e037      	b.n	7256 <cdcdf_acm_ctrl+0x146>
    71e6:	f06f 0011 	mvn.w	r0, #17
    71ea:	e034      	b.n	7256 <cdcdf_acm_ctrl+0x146>
    71ec:	f06f 001b 	mvn.w	r0, #27
    71f0:	e031      	b.n	7256 <cdcdf_acm_ctrl+0x146>
    71f2:	f06f 0013 	mvn.w	r0, #19
    71f6:	e02e      	b.n	7256 <cdcdf_acm_ctrl+0x146>
    71f8:	6884      	ldr	r4, [r0, #8]
    71fa:	b97a      	cbnz	r2, 721c <cdcdf_acm_ctrl+0x10c>
    71fc:	7823      	ldrb	r3, [r4, #0]
    71fe:	2bff      	cmp	r3, #255	; 0xff
    7200:	d008      	beq.n	7214 <cdcdf_acm_ctrl+0x104>
    7202:	23ff      	movs	r3, #255	; 0xff
    7204:	7023      	strb	r3, [r4, #0]
    7206:	78a0      	ldrb	r0, [r4, #2]
    7208:	4298      	cmp	r0, r3
    720a:	d003      	beq.n	7214 <cdcdf_acm_ctrl+0x104>
    720c:	4b16      	ldr	r3, [pc, #88]	; (7268 <cdcdf_acm_ctrl+0x158>)
    720e:	4798      	blx	r3
    7210:	23ff      	movs	r3, #255	; 0xff
    7212:	70a3      	strb	r3, [r4, #2]
    7214:	7863      	ldrb	r3, [r4, #1]
    7216:	2bff      	cmp	r3, #255	; 0xff
    7218:	d107      	bne.n	722a <cdcdf_acm_ctrl+0x11a>
    721a:	e00f      	b.n	723c <cdcdf_acm_ctrl+0x12c>
    721c:	6813      	ldr	r3, [r2, #0]
    721e:	795b      	ldrb	r3, [r3, #5]
    7220:	f003 03f7 	and.w	r3, r3, #247	; 0xf7
    7224:	2b02      	cmp	r3, #2
    7226:	d114      	bne.n	7252 <cdcdf_acm_ctrl+0x142>
    7228:	e7e8      	b.n	71fc <cdcdf_acm_ctrl+0xec>
    722a:	23ff      	movs	r3, #255	; 0xff
    722c:	7063      	strb	r3, [r4, #1]
    722e:	78e0      	ldrb	r0, [r4, #3]
    7230:	4298      	cmp	r0, r3
    7232:	d003      	beq.n	723c <cdcdf_acm_ctrl+0x12c>
    7234:	4b0c      	ldr	r3, [pc, #48]	; (7268 <cdcdf_acm_ctrl+0x158>)
    7236:	4798      	blx	r3
    7238:	23ff      	movs	r3, #255	; 0xff
    723a:	70e3      	strb	r3, [r4, #3]
    723c:	7920      	ldrb	r0, [r4, #4]
    723e:	28ff      	cmp	r0, #255	; 0xff
    7240:	d003      	beq.n	724a <cdcdf_acm_ctrl+0x13a>
    7242:	4b09      	ldr	r3, [pc, #36]	; (7268 <cdcdf_acm_ctrl+0x158>)
    7244:	4798      	blx	r3
    7246:	23ff      	movs	r3, #255	; 0xff
    7248:	7123      	strb	r3, [r4, #4]
    724a:	2000      	movs	r0, #0
    724c:	4b05      	ldr	r3, [pc, #20]	; (7264 <cdcdf_acm_ctrl+0x154>)
    724e:	7158      	strb	r0, [r3, #5]
    7250:	e001      	b.n	7256 <cdcdf_acm_ctrl+0x146>
    7252:	f06f 0009 	mvn.w	r0, #9
    7256:	b003      	add	sp, #12
    7258:	e8bd 8ff0 	ldmia.w	sp!, {r4, r5, r6, r7, r8, r9, sl, fp, pc}
    725c:	00004a5d 	.word	0x00004a5d
    7260:	00007a29 	.word	0x00007a29
    7264:	20000cac 	.word	0x20000cac
    7268:	00004ad1 	.word	0x00004ad1
    726c:	00004afd 	.word	0x00004afd
    7270:	00007a65 	.word	0x00007a65

00007274 <cdcdf_acm_init>:
    7274:	b508      	push	{r3, lr}
    7276:	4b0a      	ldr	r3, [pc, #40]	; (72a0 <cdcdf_acm_init+0x2c>)
    7278:	4798      	blx	r3
    727a:	2801      	cmp	r0, #1
    727c:	d80c      	bhi.n	7298 <cdcdf_acm_init+0x24>
    727e:	4809      	ldr	r0, [pc, #36]	; (72a4 <cdcdf_acm_init+0x30>)
    7280:	4b09      	ldr	r3, [pc, #36]	; (72a8 <cdcdf_acm_init+0x34>)
    7282:	6043      	str	r3, [r0, #4]
    7284:	4b09      	ldr	r3, [pc, #36]	; (72ac <cdcdf_acm_init+0x38>)
    7286:	6083      	str	r3, [r0, #8]
    7288:	4b09      	ldr	r3, [pc, #36]	; (72b0 <cdcdf_acm_init+0x3c>)
    728a:	4798      	blx	r3
    728c:	2001      	movs	r0, #1
    728e:	4909      	ldr	r1, [pc, #36]	; (72b4 <cdcdf_acm_init+0x40>)
    7290:	4b09      	ldr	r3, [pc, #36]	; (72b8 <cdcdf_acm_init+0x44>)
    7292:	4798      	blx	r3
    7294:	2000      	movs	r0, #0
    7296:	bd08      	pop	{r3, pc}
    7298:	f06f 0010 	mvn.w	r0, #16
    729c:	bd08      	pop	{r3, pc}
    729e:	bf00      	nop
    72a0:	00007a11 	.word	0x00007a11
    72a4:	20000ca0 	.word	0x20000ca0
    72a8:	00007111 	.word	0x00007111
    72ac:	20000cac 	.word	0x20000cac
    72b0:	000079b1 	.word	0x000079b1
    72b4:	20000000 	.word	0x20000000
    72b8:	00007909 	.word	0x00007909

000072bc <cdcdf_acm_write>:
    72bc:	b510      	push	{r4, lr}
    72be:	4604      	mov	r4, r0
    72c0:	460a      	mov	r2, r1
    72c2:	4b06      	ldr	r3, [pc, #24]	; (72dc <cdcdf_acm_write+0x20>)
    72c4:	795b      	ldrb	r3, [r3, #5]
    72c6:	b133      	cbz	r3, 72d6 <cdcdf_acm_write+0x1a>
    72c8:	4b04      	ldr	r3, [pc, #16]	; (72dc <cdcdf_acm_write+0x20>)
    72ca:	78d8      	ldrb	r0, [r3, #3]
    72cc:	4621      	mov	r1, r4
    72ce:	2301      	movs	r3, #1
    72d0:	4c03      	ldr	r4, [pc, #12]	; (72e0 <cdcdf_acm_write+0x24>)
    72d2:	47a0      	blx	r4
    72d4:	bd10      	pop	{r4, pc}
    72d6:	f06f 0010 	mvn.w	r0, #16
    72da:	bd10      	pop	{r4, pc}
    72dc:	20000cac 	.word	0x20000cac
    72e0:	000074c9 	.word	0x000074c9

000072e4 <cdcdf_acm_register_callback>:
    72e4:	b508      	push	{r3, lr}
    72e6:	460a      	mov	r2, r1
    72e8:	2803      	cmp	r0, #3
    72ea:	d819      	bhi.n	7320 <cdcdf_acm_register_callback+0x3c>
    72ec:	e8df f000 	tbb	[pc, r0]
    72f0:	14100902 	.word	0x14100902
    72f4:	4b0c      	ldr	r3, [pc, #48]	; (7328 <cdcdf_acm_register_callback+0x44>)
    72f6:	7918      	ldrb	r0, [r3, #4]
    72f8:	2102      	movs	r1, #2
    72fa:	4b0c      	ldr	r3, [pc, #48]	; (732c <cdcdf_acm_register_callback+0x48>)
    72fc:	4798      	blx	r3
    72fe:	2000      	movs	r0, #0
    7300:	bd08      	pop	{r3, pc}
    7302:	4b09      	ldr	r3, [pc, #36]	; (7328 <cdcdf_acm_register_callback+0x44>)
    7304:	78d8      	ldrb	r0, [r3, #3]
    7306:	2102      	movs	r1, #2
    7308:	4b08      	ldr	r3, [pc, #32]	; (732c <cdcdf_acm_register_callback+0x48>)
    730a:	4798      	blx	r3
    730c:	2000      	movs	r0, #0
    730e:	bd08      	pop	{r3, pc}
    7310:	4b07      	ldr	r3, [pc, #28]	; (7330 <cdcdf_acm_register_callback+0x4c>)
    7312:	6019      	str	r1, [r3, #0]
    7314:	2000      	movs	r0, #0
    7316:	bd08      	pop	{r3, pc}
    7318:	4b06      	ldr	r3, [pc, #24]	; (7334 <cdcdf_acm_register_callback+0x50>)
    731a:	6019      	str	r1, [r3, #0]
    731c:	2000      	movs	r0, #0
    731e:	bd08      	pop	{r3, pc}
    7320:	f06f 000c 	mvn.w	r0, #12
    7324:	bd08      	pop	{r3, pc}
    7326:	bf00      	nop
    7328:	20000cac 	.word	0x20000cac
    732c:	00004cb9 	.word	0x00004cb9
    7330:	20000c9c 	.word	0x20000c9c
    7334:	20000c90 	.word	0x20000c90

00007338 <usbdc_unconfig>:
    7338:	b570      	push	{r4, r5, r6, lr}
    733a:	4b07      	ldr	r3, [pc, #28]	; (7358 <usbdc_unconfig+0x20>)
    733c:	691c      	ldr	r4, [r3, #16]
    733e:	b14c      	cbz	r4, 7354 <usbdc_unconfig+0x1c>
    7340:	2601      	movs	r6, #1
    7342:	2500      	movs	r5, #0
    7344:	6863      	ldr	r3, [r4, #4]
    7346:	4620      	mov	r0, r4
    7348:	4631      	mov	r1, r6
    734a:	462a      	mov	r2, r5
    734c:	4798      	blx	r3
    734e:	6824      	ldr	r4, [r4, #0]
    7350:	2c00      	cmp	r4, #0
    7352:	d1f7      	bne.n	7344 <usbdc_unconfig+0xc>
    7354:	bd70      	pop	{r4, r5, r6, pc}
    7356:	bf00      	nop
    7358:	20000cb4 	.word	0x20000cb4

0000735c <usbdc_change_notify>:
    735c:	b570      	push	{r4, r5, r6, lr}
    735e:	4606      	mov	r6, r0
    7360:	460d      	mov	r5, r1
    7362:	4b06      	ldr	r3, [pc, #24]	; (737c <usbdc_change_notify+0x20>)
    7364:	68dc      	ldr	r4, [r3, #12]
    7366:	b13c      	cbz	r4, 7378 <usbdc_change_notify+0x1c>
    7368:	6863      	ldr	r3, [r4, #4]
    736a:	b113      	cbz	r3, 7372 <usbdc_change_notify+0x16>
    736c:	4630      	mov	r0, r6
    736e:	4629      	mov	r1, r5
    7370:	4798      	blx	r3
    7372:	6824      	ldr	r4, [r4, #0]
    7374:	2c00      	cmp	r4, #0
    7376:	d1f7      	bne.n	7368 <usbdc_change_notify+0xc>
    7378:	bd70      	pop	{r4, r5, r6, pc}
    737a:	bf00      	nop
    737c:	20000cb4 	.word	0x20000cb4

00007380 <usbdc_request_handler>:
    7380:	b5f8      	push	{r3, r4, r5, r6, r7, lr}
    7382:	4607      	mov	r7, r0
    7384:	460e      	mov	r6, r1
    7386:	4615      	mov	r5, r2
    7388:	4b0c      	ldr	r3, [pc, #48]	; (73bc <usbdc_request_handler+0x3c>)
    738a:	689c      	ldr	r4, [r3, #8]
    738c:	b16c      	cbz	r4, 73aa <usbdc_request_handler+0x2a>
    738e:	6863      	ldr	r3, [r4, #4]
    7390:	b13b      	cbz	r3, 73a2 <usbdc_request_handler+0x22>
    7392:	4638      	mov	r0, r7
    7394:	4631      	mov	r1, r6
    7396:	462a      	mov	r2, r5
    7398:	4798      	blx	r3
    739a:	b140      	cbz	r0, 73ae <usbdc_request_handler+0x2e>
    739c:	f110 0f0a 	cmn.w	r0, #10
    73a0:	d107      	bne.n	73b2 <usbdc_request_handler+0x32>
    73a2:	6824      	ldr	r4, [r4, #0]
    73a4:	2c00      	cmp	r4, #0
    73a6:	d1f2      	bne.n	738e <usbdc_request_handler+0xe>
    73a8:	e006      	b.n	73b8 <usbdc_request_handler+0x38>
    73aa:	2000      	movs	r0, #0
    73ac:	bdf8      	pop	{r3, r4, r5, r6, r7, pc}
    73ae:	2001      	movs	r0, #1
    73b0:	bdf8      	pop	{r3, r4, r5, r6, r7, pc}
    73b2:	f04f 30ff 	mov.w	r0, #4294967295	; 0xffffffff
    73b6:	bdf8      	pop	{r3, r4, r5, r6, r7, pc}
    73b8:	2000      	movs	r0, #0
    73ba:	bdf8      	pop	{r3, r4, r5, r6, r7, pc}
    73bc:	20000cb4 	.word	0x20000cb4

000073c0 <usbd_sof_cb>:
    73c0:	b510      	push	{r4, lr}
    73c2:	4b05      	ldr	r3, [pc, #20]	; (73d8 <usbd_sof_cb+0x18>)
    73c4:	685c      	ldr	r4, [r3, #4]
    73c6:	b12c      	cbz	r4, 73d4 <usbd_sof_cb+0x14>
    73c8:	6863      	ldr	r3, [r4, #4]
    73ca:	b103      	cbz	r3, 73ce <usbd_sof_cb+0xe>
    73cc:	4798      	blx	r3
    73ce:	6824      	ldr	r4, [r4, #0]
    73d0:	2c00      	cmp	r4, #0
    73d2:	d1f9      	bne.n	73c8 <usbd_sof_cb+0x8>
    73d4:	bd10      	pop	{r4, pc}
    73d6:	bf00      	nop
    73d8:	20000cb4 	.word	0x20000cb4

000073dc <usbdc_cb_ctl_done>:
    73dc:	b510      	push	{r4, lr}
    73de:	4614      	mov	r4, r2
    73e0:	b111      	cbz	r1, 73e8 <usbdc_cb_ctl_done+0xc>
    73e2:	2901      	cmp	r1, #1
    73e4:	d024      	beq.n	7430 <usbdc_cb_ctl_done+0x54>
    73e6:	e028      	b.n	743a <usbdc_cb_ctl_done+0x5e>
    73e8:	7813      	ldrb	r3, [r2, #0]
    73ea:	bb33      	cbnz	r3, 743a <usbdc_cb_ctl_done+0x5e>
    73ec:	7853      	ldrb	r3, [r2, #1]
    73ee:	2b05      	cmp	r3, #5
    73f0:	d00f      	beq.n	7412 <usbdc_cb_ctl_done+0x36>
    73f2:	2b09      	cmp	r3, #9
    73f4:	d121      	bne.n	743a <usbdc_cb_ctl_done+0x5e>
    73f6:	8852      	ldrh	r2, [r2, #2]
    73f8:	4b11      	ldr	r3, [pc, #68]	; (7440 <usbdc_cb_ctl_done+0x64>)
    73fa:	76da      	strb	r2, [r3, #27]
    73fc:	8863      	ldrh	r3, [r4, #2]
    73fe:	2b00      	cmp	r3, #0
    7400:	bf0c      	ite	eq
    7402:	2103      	moveq	r1, #3
    7404:	2104      	movne	r1, #4
    7406:	4b0e      	ldr	r3, [pc, #56]	; (7440 <usbdc_cb_ctl_done+0x64>)
    7408:	7699      	strb	r1, [r3, #26]
    740a:	2001      	movs	r0, #1
    740c:	4b0d      	ldr	r3, [pc, #52]	; (7444 <usbdc_cb_ctl_done+0x68>)
    740e:	4798      	blx	r3
    7410:	e013      	b.n	743a <usbdc_cb_ctl_done+0x5e>
    7412:	8850      	ldrh	r0, [r2, #2]
    7414:	b2c0      	uxtb	r0, r0
    7416:	4b0c      	ldr	r3, [pc, #48]	; (7448 <usbdc_cb_ctl_done+0x6c>)
    7418:	4798      	blx	r3
    741a:	8863      	ldrh	r3, [r4, #2]
    741c:	2b00      	cmp	r3, #0
    741e:	bf0c      	ite	eq
    7420:	2102      	moveq	r1, #2
    7422:	2103      	movne	r1, #3
    7424:	4b06      	ldr	r3, [pc, #24]	; (7440 <usbdc_cb_ctl_done+0x64>)
    7426:	7699      	strb	r1, [r3, #26]
    7428:	2001      	movs	r0, #1
    742a:	4b06      	ldr	r3, [pc, #24]	; (7444 <usbdc_cb_ctl_done+0x68>)
    742c:	4798      	blx	r3
    742e:	e004      	b.n	743a <usbdc_cb_ctl_done+0x5e>
    7430:	2000      	movs	r0, #0
    7432:	4611      	mov	r1, r2
    7434:	2201      	movs	r2, #1
    7436:	4b05      	ldr	r3, [pc, #20]	; (744c <usbdc_cb_ctl_done+0x70>)
    7438:	4798      	blx	r3
    743a:	2000      	movs	r0, #0
    743c:	bd10      	pop	{r4, pc}
    743e:	bf00      	nop
    7440:	20000cb4 	.word	0x20000cb4
    7444:	0000735d 	.word	0x0000735d
    7448:	00004a51 	.word	0x00004a51
    744c:	00007381 	.word	0x00007381

00007450 <usbdc_reset>:
    7450:	b570      	push	{r4, r5, r6, lr}
    7452:	4b0d      	ldr	r3, [pc, #52]	; (7488 <usbdc_reset+0x38>)
    7454:	4798      	blx	r3
    7456:	4d0d      	ldr	r5, [pc, #52]	; (748c <usbdc_reset+0x3c>)
    7458:	2602      	movs	r6, #2
    745a:	76ae      	strb	r6, [r5, #26]
    745c:	2400      	movs	r4, #0
    745e:	76ec      	strb	r4, [r5, #27]
    7460:	776c      	strb	r4, [r5, #29]
    7462:	4620      	mov	r0, r4
    7464:	4b0a      	ldr	r3, [pc, #40]	; (7490 <usbdc_reset+0x40>)
    7466:	4798      	blx	r3
    7468:	7f28      	ldrb	r0, [r5, #28]
    746a:	4b0a      	ldr	r3, [pc, #40]	; (7494 <usbdc_reset+0x44>)
    746c:	4798      	blx	r3
    746e:	4620      	mov	r0, r4
    7470:	4621      	mov	r1, r4
    7472:	4a09      	ldr	r2, [pc, #36]	; (7498 <usbdc_reset+0x48>)
    7474:	4d09      	ldr	r5, [pc, #36]	; (749c <usbdc_reset+0x4c>)
    7476:	47a8      	blx	r5
    7478:	4620      	mov	r0, r4
    747a:	4631      	mov	r1, r6
    747c:	4a08      	ldr	r2, [pc, #32]	; (74a0 <usbdc_reset+0x50>)
    747e:	47a8      	blx	r5
    7480:	4620      	mov	r0, r4
    7482:	4b08      	ldr	r3, [pc, #32]	; (74a4 <usbdc_reset+0x54>)
    7484:	4798      	blx	r3
    7486:	bd70      	pop	{r4, r5, r6, pc}
    7488:	00007339 	.word	0x00007339
    748c:	20000cb4 	.word	0x20000cb4
    7490:	00004ad1 	.word	0x00004ad1
    7494:	00004abd 	.word	0x00004abd
    7498:	000074e9 	.word	0x000074e9
    749c:	00004cb9 	.word	0x00004cb9
    74a0:	000073dd 	.word	0x000073dd
    74a4:	00004afd 	.word	0x00004afd

000074a8 <usbd_event_cb>:
    74a8:	b508      	push	{r3, lr}
    74aa:	b110      	cbz	r0, 74b2 <usbd_event_cb+0xa>
    74ac:	2801      	cmp	r0, #1
    74ae:	d004      	beq.n	74ba <usbd_event_cb+0x12>
    74b0:	bd08      	pop	{r3, pc}
    74b2:	2000      	movs	r0, #0
    74b4:	4b02      	ldr	r3, [pc, #8]	; (74c0 <usbd_event_cb+0x18>)
    74b6:	4798      	blx	r3
    74b8:	bd08      	pop	{r3, pc}
    74ba:	4b02      	ldr	r3, [pc, #8]	; (74c4 <usbd_event_cb+0x1c>)
    74bc:	4798      	blx	r3
    74be:	bd08      	pop	{r3, pc}
    74c0:	0000735d 	.word	0x0000735d
    74c4:	00007451 	.word	0x00007451

000074c8 <usbdc_xfer>:
    74c8:	b500      	push	{lr}
    74ca:	b085      	sub	sp, #20
    74cc:	9101      	str	r1, [sp, #4]
    74ce:	9202      	str	r2, [sp, #8]
    74d0:	f88d 000c 	strb.w	r0, [sp, #12]
    74d4:	f88d 300d 	strb.w	r3, [sp, #13]
    74d8:	a801      	add	r0, sp, #4
    74da:	4b02      	ldr	r3, [pc, #8]	; (74e4 <usbdc_xfer+0x1c>)
    74dc:	4798      	blx	r3
    74de:	b005      	add	sp, #20
    74e0:	f85d fb04 	ldr.w	pc, [sp], #4
    74e4:	00004b3d 	.word	0x00004b3d

000074e8 <usbdc_cb_ctl_req>:
    74e8:	e92d 41f0 	stmdb	sp!, {r4, r5, r6, r7, r8, lr}
    74ec:	b082      	sub	sp, #8
    74ee:	4605      	mov	r5, r0
    74f0:	460c      	mov	r4, r1
    74f2:	2200      	movs	r2, #0
    74f4:	4b86      	ldr	r3, [pc, #536]	; (7710 <usbdc_cb_ctl_req+0x228>)
    74f6:	4798      	blx	r3
    74f8:	f1b0 3fff 	cmp.w	r0, #4294967295	; 0xffffffff
    74fc:	f000 81e5 	beq.w	78ca <usbdc_cb_ctl_req+0x3e2>
    7500:	2801      	cmp	r0, #1
    7502:	f000 81f2 	beq.w	78ea <usbdc_cb_ctl_req+0x402>
    7506:	7823      	ldrb	r3, [r4, #0]
    7508:	f013 02e0 	ands.w	r2, r3, #224	; 0xe0
    750c:	d003      	beq.n	7516 <usbdc_cb_ctl_req+0x2e>
    750e:	2a80      	cmp	r2, #128	; 0x80
    7510:	f000 80ec 	beq.w	76ec <usbdc_cb_ctl_req+0x204>
    7514:	e1db      	b.n	78ce <usbdc_cb_ctl_req+0x3e6>
    7516:	7862      	ldrb	r2, [r4, #1]
    7518:	3a01      	subs	r2, #1
    751a:	2a0a      	cmp	r2, #10
    751c:	f200 80e4 	bhi.w	76e8 <usbdc_cb_ctl_req+0x200>
    7520:	e8df f012 	tbh	[pc, r2, lsl #1]
    7524:	00e20057 	.word	0x00e20057
    7528:	00e2006e 	.word	0x00e2006e
    752c:	00e2000b 	.word	0x00e2000b
    7530:	00e200e2 	.word	0x00e200e2
    7534:	00e20016 	.word	0x00e20016
    7538:	0085      	.short	0x0085
    753a:	4628      	mov	r0, r5
    753c:	2100      	movs	r1, #0
    753e:	460a      	mov	r2, r1
    7540:	2301      	movs	r3, #1
    7542:	4c74      	ldr	r4, [pc, #464]	; (7714 <usbdc_cb_ctl_req+0x22c>)
    7544:	47a0      	blx	r4
    7546:	f1d0 0001 	rsbs	r0, r0, #1
    754a:	bf38      	it	cc
    754c:	2000      	movcc	r0, #0
    754e:	e1cc      	b.n	78ea <usbdc_cb_ctl_req+0x402>
    7550:	8862      	ldrh	r2, [r4, #2]
    7552:	b2d2      	uxtb	r2, r2
    7554:	b912      	cbnz	r2, 755c <usbdc_cb_ctl_req+0x74>
    7556:	4b70      	ldr	r3, [pc, #448]	; (7718 <usbdc_cb_ctl_req+0x230>)
    7558:	4798      	blx	r3
    755a:	e1ba      	b.n	78d2 <usbdc_cb_ctl_req+0x3ea>
    755c:	4b6f      	ldr	r3, [pc, #444]	; (771c <usbdc_cb_ctl_req+0x234>)
    755e:	681b      	ldr	r3, [r3, #0]
    7560:	6818      	ldr	r0, [r3, #0]
    7562:	6859      	ldr	r1, [r3, #4]
    7564:	4b6e      	ldr	r3, [pc, #440]	; (7720 <usbdc_cb_ctl_req+0x238>)
    7566:	4798      	blx	r3
    7568:	2800      	cmp	r0, #0
    756a:	f000 81bd 	beq.w	78e8 <usbdc_cb_ctl_req+0x400>
    756e:	78c1      	ldrb	r1, [r0, #3]
    7570:	7882      	ldrb	r2, [r0, #2]
    7572:	eb02 2101 	add.w	r1, r2, r1, lsl #8
    7576:	fa10 f181 	uxtah	r1, r0, r1
    757a:	9101      	str	r1, [sp, #4]
    757c:	2204      	movs	r2, #4
    757e:	4b69      	ldr	r3, [pc, #420]	; (7724 <usbdc_cb_ctl_req+0x23c>)
    7580:	4798      	blx	r3
    7582:	9000      	str	r0, [sp, #0]
    7584:	2800      	cmp	r0, #0
    7586:	f000 81a4 	beq.w	78d2 <usbdc_cb_ctl_req+0x3ea>
    758a:	24ff      	movs	r4, #255	; 0xff
    758c:	4f63      	ldr	r7, [pc, #396]	; (771c <usbdc_cb_ctl_req+0x234>)
    758e:	f890 8002 	ldrb.w	r8, [r0, #2]
    7592:	45a0      	cmp	r8, r4
    7594:	d011      	beq.n	75ba <usbdc_cb_ctl_req+0xd2>
    7596:	693c      	ldr	r4, [r7, #16]
    7598:	b154      	cbz	r4, 75b0 <usbdc_cb_ctl_req+0xc8>
    759a:	2600      	movs	r6, #0
    759c:	6863      	ldr	r3, [r4, #4]
    759e:	4620      	mov	r0, r4
    75a0:	4631      	mov	r1, r6
    75a2:	aa00      	add	r2, sp, #0
    75a4:	4798      	blx	r3
    75a6:	b128      	cbz	r0, 75b4 <usbdc_cb_ctl_req+0xcc>
    75a8:	6824      	ldr	r4, [r4, #0]
    75aa:	2c00      	cmp	r4, #0
    75ac:	d1f6      	bne.n	759c <usbdc_cb_ctl_req+0xb4>
    75ae:	e003      	b.n	75b8 <usbdc_cb_ctl_req+0xd0>
    75b0:	4644      	mov	r4, r8
    75b2:	e002      	b.n	75ba <usbdc_cb_ctl_req+0xd2>
    75b4:	4644      	mov	r4, r8
    75b6:	e000      	b.n	75ba <usbdc_cb_ctl_req+0xd2>
    75b8:	4644      	mov	r4, r8
    75ba:	9b00      	ldr	r3, [sp, #0]
    75bc:	7818      	ldrb	r0, [r3, #0]
    75be:	4418      	add	r0, r3
    75c0:	9000      	str	r0, [sp, #0]
    75c2:	9901      	ldr	r1, [sp, #4]
    75c4:	2204      	movs	r2, #4
    75c6:	4b57      	ldr	r3, [pc, #348]	; (7724 <usbdc_cb_ctl_req+0x23c>)
    75c8:	4798      	blx	r3
    75ca:	9000      	str	r0, [sp, #0]
    75cc:	2800      	cmp	r0, #0
    75ce:	d1de      	bne.n	758e <usbdc_cb_ctl_req+0xa6>
    75d0:	e17f      	b.n	78d2 <usbdc_cb_ctl_req+0x3ea>
    75d2:	f003 031f 	and.w	r3, r3, #31
    75d6:	2b02      	cmp	r3, #2
    75d8:	d10e      	bne.n	75f8 <usbdc_cb_ctl_req+0x110>
    75da:	88e3      	ldrh	r3, [r4, #6]
    75dc:	b973      	cbnz	r3, 75fc <usbdc_cb_ctl_req+0x114>
    75de:	88a0      	ldrh	r0, [r4, #4]
    75e0:	b2c0      	uxtb	r0, r0
    75e2:	2100      	movs	r1, #0
    75e4:	4b50      	ldr	r3, [pc, #320]	; (7728 <usbdc_cb_ctl_req+0x240>)
    75e6:	4798      	blx	r3
    75e8:	4628      	mov	r0, r5
    75ea:	2100      	movs	r1, #0
    75ec:	460a      	mov	r2, r1
    75ee:	2301      	movs	r3, #1
    75f0:	4c48      	ldr	r4, [pc, #288]	; (7714 <usbdc_cb_ctl_req+0x22c>)
    75f2:	47a0      	blx	r4
    75f4:	2001      	movs	r0, #1
    75f6:	e178      	b.n	78ea <usbdc_cb_ctl_req+0x402>
    75f8:	2000      	movs	r0, #0
    75fa:	e176      	b.n	78ea <usbdc_cb_ctl_req+0x402>
    75fc:	2000      	movs	r0, #0
    75fe:	e174      	b.n	78ea <usbdc_cb_ctl_req+0x402>
    7600:	f003 031f 	and.w	r3, r3, #31
    7604:	2b02      	cmp	r3, #2
    7606:	d10e      	bne.n	7626 <usbdc_cb_ctl_req+0x13e>
    7608:	88e3      	ldrh	r3, [r4, #6]
    760a:	b973      	cbnz	r3, 762a <usbdc_cb_ctl_req+0x142>
    760c:	88a0      	ldrh	r0, [r4, #4]
    760e:	b2c0      	uxtb	r0, r0
    7610:	2101      	movs	r1, #1
    7612:	4b45      	ldr	r3, [pc, #276]	; (7728 <usbdc_cb_ctl_req+0x240>)
    7614:	4798      	blx	r3
    7616:	4628      	mov	r0, r5
    7618:	2100      	movs	r1, #0
    761a:	460a      	mov	r2, r1
    761c:	2301      	movs	r3, #1
    761e:	4c3d      	ldr	r4, [pc, #244]	; (7714 <usbdc_cb_ctl_req+0x22c>)
    7620:	47a0      	blx	r4
    7622:	2001      	movs	r0, #1
    7624:	e161      	b.n	78ea <usbdc_cb_ctl_req+0x402>
    7626:	2000      	movs	r0, #0
    7628:	e15f      	b.n	78ea <usbdc_cb_ctl_req+0x402>
    762a:	2000      	movs	r0, #0
    762c:	e15d      	b.n	78ea <usbdc_cb_ctl_req+0x402>
    762e:	8866      	ldrh	r6, [r4, #2]
    7630:	88a4      	ldrh	r4, [r4, #4]
    7632:	4b3a      	ldr	r3, [pc, #232]	; (771c <usbdc_cb_ctl_req+0x234>)
    7634:	681a      	ldr	r2, [r3, #0]
    7636:	6810      	ldr	r0, [r2, #0]
    7638:	6851      	ldr	r1, [r2, #4]
    763a:	7eda      	ldrb	r2, [r3, #27]
    763c:	4b38      	ldr	r3, [pc, #224]	; (7720 <usbdc_cb_ctl_req+0x238>)
    763e:	4798      	blx	r3
    7640:	2800      	cmp	r0, #0
    7642:	d045      	beq.n	76d0 <usbdc_cb_ctl_req+0x1e8>
    7644:	9000      	str	r0, [sp, #0]
    7646:	78c1      	ldrb	r1, [r0, #3]
    7648:	7882      	ldrb	r2, [r0, #2]
    764a:	eb02 2101 	add.w	r1, r2, r1, lsl #8
    764e:	fa10 f181 	uxtah	r1, r0, r1
    7652:	9101      	str	r1, [sp, #4]
    7654:	2204      	movs	r2, #4
    7656:	4b33      	ldr	r3, [pc, #204]	; (7724 <usbdc_cb_ctl_req+0x23c>)
    7658:	4798      	blx	r3
    765a:	4603      	mov	r3, r0
    765c:	2800      	cmp	r0, #0
    765e:	d039      	beq.n	76d4 <usbdc_cb_ctl_req+0x1ec>
    7660:	2704      	movs	r7, #4
    7662:	4d30      	ldr	r5, [pc, #192]	; (7724 <usbdc_cb_ctl_req+0x23c>)
    7664:	e009      	b.n	767a <usbdc_cb_ctl_req+0x192>
    7666:	9b00      	ldr	r3, [sp, #0]
    7668:	7818      	ldrb	r0, [r3, #0]
    766a:	4418      	add	r0, r3
    766c:	9000      	str	r0, [sp, #0]
    766e:	9901      	ldr	r1, [sp, #4]
    7670:	463a      	mov	r2, r7
    7672:	47a8      	blx	r5
    7674:	4603      	mov	r3, r0
    7676:	2800      	cmp	r0, #0
    7678:	d02e      	beq.n	76d8 <usbdc_cb_ctl_req+0x1f0>
    767a:	7899      	ldrb	r1, [r3, #2]
    767c:	42a1      	cmp	r1, r4
    767e:	d1f2      	bne.n	7666 <usbdc_cb_ctl_req+0x17e>
    7680:	78da      	ldrb	r2, [r3, #3]
    7682:	42b2      	cmp	r2, r6
    7684:	d1ef      	bne.n	7666 <usbdc_cb_ctl_req+0x17e>
    7686:	9300      	str	r3, [sp, #0]
    7688:	4b24      	ldr	r3, [pc, #144]	; (771c <usbdc_cb_ctl_req+0x234>)
    768a:	691d      	ldr	r5, [r3, #16]
    768c:	b335      	cbz	r5, 76dc <usbdc_cb_ctl_req+0x1f4>
    768e:	2701      	movs	r7, #1
    7690:	686b      	ldr	r3, [r5, #4]
    7692:	4628      	mov	r0, r5
    7694:	4639      	mov	r1, r7
    7696:	466a      	mov	r2, sp
    7698:	4798      	blx	r3
    769a:	b118      	cbz	r0, 76a4 <usbdc_cb_ctl_req+0x1bc>
    769c:	682d      	ldr	r5, [r5, #0]
    769e:	2d00      	cmp	r5, #0
    76a0:	d1f6      	bne.n	7690 <usbdc_cb_ctl_req+0x1a8>
    76a2:	e01d      	b.n	76e0 <usbdc_cb_ctl_req+0x1f8>
    76a4:	686b      	ldr	r3, [r5, #4]
    76a6:	4628      	mov	r0, r5
    76a8:	2100      	movs	r1, #0
    76aa:	466a      	mov	r2, sp
    76ac:	4798      	blx	r3
    76ae:	b9c8      	cbnz	r0, 76e4 <usbdc_cb_ctl_req+0x1fc>
    76b0:	b136      	cbz	r6, 76c0 <usbdc_cb_ctl_req+0x1d8>
    76b2:	4b1a      	ldr	r3, [pc, #104]	; (771c <usbdc_cb_ctl_req+0x234>)
    76b4:	2201      	movs	r2, #1
    76b6:	fa02 f404 	lsl.w	r4, r2, r4
    76ba:	7f5a      	ldrb	r2, [r3, #29]
    76bc:	4322      	orrs	r2, r4
    76be:	775a      	strb	r2, [r3, #29]
    76c0:	2000      	movs	r0, #0
    76c2:	4601      	mov	r1, r0
    76c4:	4602      	mov	r2, r0
    76c6:	4603      	mov	r3, r0
    76c8:	4c12      	ldr	r4, [pc, #72]	; (7714 <usbdc_cb_ctl_req+0x22c>)
    76ca:	47a0      	blx	r4
    76cc:	2001      	movs	r0, #1
    76ce:	e10c      	b.n	78ea <usbdc_cb_ctl_req+0x402>
    76d0:	2000      	movs	r0, #0
    76d2:	e10a      	b.n	78ea <usbdc_cb_ctl_req+0x402>
    76d4:	2000      	movs	r0, #0
    76d6:	e108      	b.n	78ea <usbdc_cb_ctl_req+0x402>
    76d8:	2000      	movs	r0, #0
    76da:	e106      	b.n	78ea <usbdc_cb_ctl_req+0x402>
    76dc:	2000      	movs	r0, #0
    76de:	e104      	b.n	78ea <usbdc_cb_ctl_req+0x402>
    76e0:	2000      	movs	r0, #0
    76e2:	e102      	b.n	78ea <usbdc_cb_ctl_req+0x402>
    76e4:	2000      	movs	r0, #0
    76e6:	e100      	b.n	78ea <usbdc_cb_ctl_req+0x402>
    76e8:	2000      	movs	r0, #0
    76ea:	e0fe      	b.n	78ea <usbdc_cb_ctl_req+0x402>
    76ec:	7862      	ldrb	r2, [r4, #1]
    76ee:	2a0a      	cmp	r2, #10
    76f0:	f200 80e9 	bhi.w	78c6 <usbdc_cb_ctl_req+0x3de>
    76f4:	e8df f012 	tbh	[pc, r2, lsl #1]
    76f8:	00e70091 	.word	0x00e70091
    76fc:	00e700e7 	.word	0x00e700e7
    7700:	00e700e7 	.word	0x00e700e7
    7704:	00e7001a 	.word	0x00e7001a
    7708:	00e70085 	.word	0x00e70085
    770c:	00b6      	.short	0x00b6
    770e:	bf00      	nop
    7710:	00007381 	.word	0x00007381
    7714:	000074c9 	.word	0x000074c9
    7718:	00007339 	.word	0x00007339
    771c:	20000cb4 	.word	0x20000cb4
    7720:	00007aa9 	.word	0x00007aa9
    7724:	00007a29 	.word	0x00007a29
    7728:	00004c51 	.word	0x00004c51
    772c:	8862      	ldrh	r2, [r4, #2]
    772e:	0a13      	lsrs	r3, r2, #8
    7730:	2b02      	cmp	r3, #2
    7732:	d01d      	beq.n	7770 <usbdc_cb_ctl_req+0x288>
    7734:	2b03      	cmp	r3, #3
    7736:	d041      	beq.n	77bc <usbdc_cb_ctl_req+0x2d4>
    7738:	2b01      	cmp	r3, #1
    773a:	d160      	bne.n	77fe <usbdc_cb_ctl_req+0x316>
    773c:	88e3      	ldrh	r3, [r4, #6]
    773e:	2b12      	cmp	r3, #18
    7740:	bf34      	ite	cc
    7742:	461c      	movcc	r4, r3
    7744:	2412      	movcs	r4, #18
    7746:	4b6a      	ldr	r3, [pc, #424]	; (78f0 <usbdc_cb_ctl_req+0x408>)
    7748:	681b      	ldr	r3, [r3, #0]
    774a:	6818      	ldr	r0, [r3, #0]
    774c:	6859      	ldr	r1, [r3, #4]
    774e:	2201      	movs	r2, #1
    7750:	4b68      	ldr	r3, [pc, #416]	; (78f4 <usbdc_cb_ctl_req+0x40c>)
    7752:	4798      	blx	r3
    7754:	4601      	mov	r1, r0
    7756:	b148      	cbz	r0, 776c <usbdc_cb_ctl_req+0x284>
    7758:	4628      	mov	r0, r5
    775a:	4622      	mov	r2, r4
    775c:	2300      	movs	r3, #0
    775e:	4c66      	ldr	r4, [pc, #408]	; (78f8 <usbdc_cb_ctl_req+0x410>)
    7760:	47a0      	blx	r4
    7762:	f1d0 0001 	rsbs	r0, r0, #1
    7766:	bf38      	it	cc
    7768:	2000      	movcc	r0, #0
    776a:	e0be      	b.n	78ea <usbdc_cb_ctl_req+0x402>
    776c:	2000      	movs	r0, #0
    776e:	e0bc      	b.n	78ea <usbdc_cb_ctl_req+0x402>
    7770:	88e4      	ldrh	r4, [r4, #6]
    7772:	4b5f      	ldr	r3, [pc, #380]	; (78f0 <usbdc_cb_ctl_req+0x408>)
    7774:	7f1f      	ldrb	r7, [r3, #28]
    7776:	681b      	ldr	r3, [r3, #0]
    7778:	3201      	adds	r2, #1
    777a:	6818      	ldr	r0, [r3, #0]
    777c:	6859      	ldr	r1, [r3, #4]
    777e:	b2d2      	uxtb	r2, r2
    7780:	4b5e      	ldr	r3, [pc, #376]	; (78fc <usbdc_cb_ctl_req+0x414>)
    7782:	4798      	blx	r3
    7784:	4601      	mov	r1, r0
    7786:	b1b8      	cbz	r0, 77b8 <usbdc_cb_ctl_req+0x2d0>
    7788:	78c2      	ldrb	r2, [r0, #3]
    778a:	7883      	ldrb	r3, [r0, #2]
    778c:	eb03 2202 	add.w	r2, r3, r2, lsl #8
    7790:	b292      	uxth	r2, r2
    7792:	4294      	cmp	r4, r2
    7794:	d906      	bls.n	77a4 <usbdc_cb_ctl_req+0x2bc>
    7796:	3f01      	subs	r7, #1
    7798:	4227      	tst	r7, r4
    779a:	bf14      	ite	ne
    779c:	2300      	movne	r3, #0
    779e:	2301      	moveq	r3, #1
    77a0:	4614      	mov	r4, r2
    77a2:	e000      	b.n	77a6 <usbdc_cb_ctl_req+0x2be>
    77a4:	2300      	movs	r3, #0
    77a6:	4628      	mov	r0, r5
    77a8:	4622      	mov	r2, r4
    77aa:	4c53      	ldr	r4, [pc, #332]	; (78f8 <usbdc_cb_ctl_req+0x410>)
    77ac:	47a0      	blx	r4
    77ae:	f1d0 0001 	rsbs	r0, r0, #1
    77b2:	bf38      	it	cc
    77b4:	2000      	movcc	r0, #0
    77b6:	e098      	b.n	78ea <usbdc_cb_ctl_req+0x402>
    77b8:	2000      	movs	r0, #0
    77ba:	e096      	b.n	78ea <usbdc_cb_ctl_req+0x402>
    77bc:	88e4      	ldrh	r4, [r4, #6]
    77be:	4b4c      	ldr	r3, [pc, #304]	; (78f0 <usbdc_cb_ctl_req+0x408>)
    77c0:	7f1f      	ldrb	r7, [r3, #28]
    77c2:	681b      	ldr	r3, [r3, #0]
    77c4:	6818      	ldr	r0, [r3, #0]
    77c6:	6859      	ldr	r1, [r3, #4]
    77c8:	b2d2      	uxtb	r2, r2
    77ca:	4b4d      	ldr	r3, [pc, #308]	; (7900 <usbdc_cb_ctl_req+0x418>)
    77cc:	4798      	blx	r3
    77ce:	4601      	mov	r1, r0
    77d0:	b198      	cbz	r0, 77fa <usbdc_cb_ctl_req+0x312>
    77d2:	7802      	ldrb	r2, [r0, #0]
    77d4:	4294      	cmp	r4, r2
    77d6:	d906      	bls.n	77e6 <usbdc_cb_ctl_req+0x2fe>
    77d8:	3f01      	subs	r7, #1
    77da:	4227      	tst	r7, r4
    77dc:	bf14      	ite	ne
    77de:	2300      	movne	r3, #0
    77e0:	2301      	moveq	r3, #1
    77e2:	4614      	mov	r4, r2
    77e4:	e000      	b.n	77e8 <usbdc_cb_ctl_req+0x300>
    77e6:	2300      	movs	r3, #0
    77e8:	4628      	mov	r0, r5
    77ea:	4622      	mov	r2, r4
    77ec:	4c42      	ldr	r4, [pc, #264]	; (78f8 <usbdc_cb_ctl_req+0x410>)
    77ee:	47a0      	blx	r4
    77f0:	f1d0 0001 	rsbs	r0, r0, #1
    77f4:	bf38      	it	cc
    77f6:	2000      	movcc	r0, #0
    77f8:	e077      	b.n	78ea <usbdc_cb_ctl_req+0x402>
    77fa:	2000      	movs	r0, #0
    77fc:	e075      	b.n	78ea <usbdc_cb_ctl_req+0x402>
    77fe:	2000      	movs	r0, #0
    7800:	e073      	b.n	78ea <usbdc_cb_ctl_req+0x402>
    7802:	4b3b      	ldr	r3, [pc, #236]	; (78f0 <usbdc_cb_ctl_req+0x408>)
    7804:	695a      	ldr	r2, [r3, #20]
    7806:	7ed9      	ldrb	r1, [r3, #27]
    7808:	7011      	strb	r1, [r2, #0]
    780a:	4628      	mov	r0, r5
    780c:	6959      	ldr	r1, [r3, #20]
    780e:	2201      	movs	r2, #1
    7810:	2300      	movs	r3, #0
    7812:	4c39      	ldr	r4, [pc, #228]	; (78f8 <usbdc_cb_ctl_req+0x410>)
    7814:	47a0      	blx	r4
    7816:	2001      	movs	r0, #1
    7818:	e067      	b.n	78ea <usbdc_cb_ctl_req+0x402>
    781a:	f003 031f 	and.w	r3, r3, #31
    781e:	2b01      	cmp	r3, #1
    7820:	d902      	bls.n	7828 <usbdc_cb_ctl_req+0x340>
    7822:	2b02      	cmp	r3, #2
    7824:	d003      	beq.n	782e <usbdc_cb_ctl_req+0x346>
    7826:	e019      	b.n	785c <usbdc_cb_ctl_req+0x374>
    7828:	2300      	movs	r3, #0
    782a:	9300      	str	r3, [sp, #0]
    782c:	e009      	b.n	7842 <usbdc_cb_ctl_req+0x35a>
    782e:	88a0      	ldrh	r0, [r4, #4]
    7830:	b2c0      	uxtb	r0, r0
    7832:	2102      	movs	r1, #2
    7834:	4b33      	ldr	r3, [pc, #204]	; (7904 <usbdc_cb_ctl_req+0x41c>)
    7836:	4798      	blx	r3
    7838:	2800      	cmp	r0, #0
    783a:	db11      	blt.n	7860 <usbdc_cb_ctl_req+0x378>
    783c:	f000 0001 	and.w	r0, r0, #1
    7840:	9000      	str	r0, [sp, #0]
    7842:	4b2b      	ldr	r3, [pc, #172]	; (78f0 <usbdc_cb_ctl_req+0x408>)
    7844:	695a      	ldr	r2, [r3, #20]
    7846:	f8bd 1000 	ldrh.w	r1, [sp]
    784a:	8011      	strh	r1, [r2, #0]
    784c:	4628      	mov	r0, r5
    784e:	6959      	ldr	r1, [r3, #20]
    7850:	2202      	movs	r2, #2
    7852:	2300      	movs	r3, #0
    7854:	4c28      	ldr	r4, [pc, #160]	; (78f8 <usbdc_cb_ctl_req+0x410>)
    7856:	47a0      	blx	r4
    7858:	2001      	movs	r0, #1
    785a:	e046      	b.n	78ea <usbdc_cb_ctl_req+0x402>
    785c:	2000      	movs	r0, #0
    785e:	e044      	b.n	78ea <usbdc_cb_ctl_req+0x402>
    7860:	2000      	movs	r0, #0
    7862:	e042      	b.n	78ea <usbdc_cb_ctl_req+0x402>
    7864:	4b22      	ldr	r3, [pc, #136]	; (78f0 <usbdc_cb_ctl_req+0x408>)
    7866:	691d      	ldr	r5, [r3, #16]
    7868:	7f5a      	ldrb	r2, [r3, #29]
    786a:	88a3      	ldrh	r3, [r4, #4]
    786c:	fa42 f303 	asr.w	r3, r2, r3
    7870:	f013 0f01 	tst.w	r3, #1
    7874:	d003      	beq.n	787e <usbdc_cb_ctl_req+0x396>
    7876:	2000      	movs	r0, #0
    7878:	2d00      	cmp	r5, #0
    787a:	d036      	beq.n	78ea <usbdc_cb_ctl_req+0x402>
    787c:	e00a      	b.n	7894 <usbdc_cb_ctl_req+0x3ac>
    787e:	4a1c      	ldr	r2, [pc, #112]	; (78f0 <usbdc_cb_ctl_req+0x408>)
    7880:	6951      	ldr	r1, [r2, #20]
    7882:	2300      	movs	r3, #0
    7884:	700b      	strb	r3, [r1, #0]
    7886:	4618      	mov	r0, r3
    7888:	6951      	ldr	r1, [r2, #20]
    788a:	2201      	movs	r2, #1
    788c:	4c1a      	ldr	r4, [pc, #104]	; (78f8 <usbdc_cb_ctl_req+0x410>)
    788e:	47a0      	blx	r4
    7890:	2001      	movs	r0, #1
    7892:	e02a      	b.n	78ea <usbdc_cb_ctl_req+0x402>
    7894:	2602      	movs	r6, #2
    7896:	686b      	ldr	r3, [r5, #4]
    7898:	4628      	mov	r0, r5
    789a:	4631      	mov	r1, r6
    789c:	4622      	mov	r2, r4
    789e:	4798      	blx	r3
    78a0:	2800      	cmp	r0, #0
    78a2:	da03      	bge.n	78ac <usbdc_cb_ctl_req+0x3c4>
    78a4:	682d      	ldr	r5, [r5, #0]
    78a6:	2d00      	cmp	r5, #0
    78a8:	d1f5      	bne.n	7896 <usbdc_cb_ctl_req+0x3ae>
    78aa:	e00a      	b.n	78c2 <usbdc_cb_ctl_req+0x3da>
    78ac:	4b10      	ldr	r3, [pc, #64]	; (78f0 <usbdc_cb_ctl_req+0x408>)
    78ae:	695a      	ldr	r2, [r3, #20]
    78b0:	7010      	strb	r0, [r2, #0]
    78b2:	2000      	movs	r0, #0
    78b4:	6959      	ldr	r1, [r3, #20]
    78b6:	2201      	movs	r2, #1
    78b8:	4603      	mov	r3, r0
    78ba:	4c0f      	ldr	r4, [pc, #60]	; (78f8 <usbdc_cb_ctl_req+0x410>)
    78bc:	47a0      	blx	r4
    78be:	2001      	movs	r0, #1
    78c0:	e013      	b.n	78ea <usbdc_cb_ctl_req+0x402>
    78c2:	2000      	movs	r0, #0
    78c4:	e011      	b.n	78ea <usbdc_cb_ctl_req+0x402>
    78c6:	2000      	movs	r0, #0
    78c8:	e00f      	b.n	78ea <usbdc_cb_ctl_req+0x402>
    78ca:	2000      	movs	r0, #0
    78cc:	e00d      	b.n	78ea <usbdc_cb_ctl_req+0x402>
    78ce:	2000      	movs	r0, #0
    78d0:	e00b      	b.n	78ea <usbdc_cb_ctl_req+0x402>
    78d2:	4628      	mov	r0, r5
    78d4:	2100      	movs	r1, #0
    78d6:	460a      	mov	r2, r1
    78d8:	2301      	movs	r3, #1
    78da:	4c07      	ldr	r4, [pc, #28]	; (78f8 <usbdc_cb_ctl_req+0x410>)
    78dc:	47a0      	blx	r4
    78de:	f1d0 0001 	rsbs	r0, r0, #1
    78e2:	bf38      	it	cc
    78e4:	2000      	movcc	r0, #0
    78e6:	e000      	b.n	78ea <usbdc_cb_ctl_req+0x402>
    78e8:	2000      	movs	r0, #0
    78ea:	b002      	add	sp, #8
    78ec:	e8bd 81f0 	ldmia.w	sp!, {r4, r5, r6, r7, r8, pc}
    78f0:	20000cb4 	.word	0x20000cb4
    78f4:	00007a29 	.word	0x00007a29
    78f8:	000074c9 	.word	0x000074c9
    78fc:	00007aa9 	.word	0x00007aa9
    7900:	00007b19 	.word	0x00007b19
    7904:	00004c51 	.word	0x00004c51

00007908 <usbdc_register_handler>:
    7908:	b508      	push	{r3, lr}
    790a:	2801      	cmp	r0, #1
    790c:	d007      	beq.n	791e <usbdc_register_handler+0x16>
    790e:	b110      	cbz	r0, 7916 <usbdc_register_handler+0xe>
    7910:	2802      	cmp	r0, #2
    7912:	d008      	beq.n	7926 <usbdc_register_handler+0x1e>
    7914:	bd08      	pop	{r3, pc}
    7916:	4806      	ldr	r0, [pc, #24]	; (7930 <usbdc_register_handler+0x28>)
    7918:	4b06      	ldr	r3, [pc, #24]	; (7934 <usbdc_register_handler+0x2c>)
    791a:	4798      	blx	r3
    791c:	bd08      	pop	{r3, pc}
    791e:	4806      	ldr	r0, [pc, #24]	; (7938 <usbdc_register_handler+0x30>)
    7920:	4b04      	ldr	r3, [pc, #16]	; (7934 <usbdc_register_handler+0x2c>)
    7922:	4798      	blx	r3
    7924:	bd08      	pop	{r3, pc}
    7926:	4805      	ldr	r0, [pc, #20]	; (793c <usbdc_register_handler+0x34>)
    7928:	4b02      	ldr	r3, [pc, #8]	; (7934 <usbdc_register_handler+0x2c>)
    792a:	4798      	blx	r3
    792c:	bd08      	pop	{r3, pc}
    792e:	bf00      	nop
    7930:	20000cb8 	.word	0x20000cb8
    7934:	00004d25 	.word	0x00004d25
    7938:	20000cbc 	.word	0x20000cbc
    793c:	20000cc0 	.word	0x20000cc0

00007940 <usbdc_init>:
    7940:	b538      	push	{r3, r4, r5, lr}
    7942:	4605      	mov	r5, r0
    7944:	3000      	adds	r0, #0
    7946:	bf18      	it	ne
    7948:	2001      	movne	r0, #1
    794a:	4912      	ldr	r1, [pc, #72]	; (7994 <usbdc_init+0x54>)
    794c:	f240 3255 	movw	r2, #853	; 0x355
    7950:	4b11      	ldr	r3, [pc, #68]	; (7998 <usbdc_init+0x58>)
    7952:	4798      	blx	r3
    7954:	4b11      	ldr	r3, [pc, #68]	; (799c <usbdc_init+0x5c>)
    7956:	4798      	blx	r3
    7958:	2800      	cmp	r0, #0
    795a:	db1a      	blt.n	7992 <usbdc_init+0x52>
    795c:	4a10      	ldr	r2, [pc, #64]	; (79a0 <usbdc_init+0x60>)
    795e:	2400      	movs	r4, #0
    7960:	4613      	mov	r3, r2
    7962:	f843 4b04 	str.w	r4, [r3], #4
    7966:	6054      	str	r4, [r2, #4]
    7968:	3304      	adds	r3, #4
    796a:	f843 4b04 	str.w	r4, [r3], #4
    796e:	f843 4b04 	str.w	r4, [r3], #4
    7972:	f843 4b04 	str.w	r4, [r3], #4
    7976:	f843 4b04 	str.w	r4, [r3], #4
    797a:	f843 4b04 	str.w	r4, [r3], #4
    797e:	601c      	str	r4, [r3, #0]
    7980:	6155      	str	r5, [r2, #20]
    7982:	4620      	mov	r0, r4
    7984:	4907      	ldr	r1, [pc, #28]	; (79a4 <usbdc_init+0x64>)
    7986:	4d08      	ldr	r5, [pc, #32]	; (79a8 <usbdc_init+0x68>)
    7988:	47a8      	blx	r5
    798a:	2001      	movs	r0, #1
    798c:	4907      	ldr	r1, [pc, #28]	; (79ac <usbdc_init+0x6c>)
    798e:	47a8      	blx	r5
    7990:	4620      	mov	r0, r4
    7992:	bd38      	pop	{r3, r4, r5, pc}
    7994:	00011240 	.word	0x00011240
    7998:	00004cf9 	.word	0x00004cf9
    799c:	000049c1 	.word	0x000049c1
    79a0:	20000cb4 	.word	0x20000cb4
    79a4:	000073c1 	.word	0x000073c1
    79a8:	00004a2d 	.word	0x00004a2d
    79ac:	000074a9 	.word	0x000074a9

000079b0 <usbdc_register_function>:
    79b0:	b508      	push	{r3, lr}
    79b2:	4601      	mov	r1, r0
    79b4:	4801      	ldr	r0, [pc, #4]	; (79bc <usbdc_register_function+0xc>)
    79b6:	4b02      	ldr	r3, [pc, #8]	; (79c0 <usbdc_register_function+0x10>)
    79b8:	4798      	blx	r3
    79ba:	bd08      	pop	{r3, pc}
    79bc:	20000cc4 	.word	0x20000cc4
    79c0:	00004d25 	.word	0x00004d25

000079c4 <usbdc_start>:
    79c4:	b508      	push	{r3, lr}
    79c6:	4b0a      	ldr	r3, [pc, #40]	; (79f0 <usbdc_start+0x2c>)
    79c8:	7e9b      	ldrb	r3, [r3, #26]
    79ca:	b95b      	cbnz	r3, 79e4 <usbdc_start+0x20>
    79cc:	b168      	cbz	r0, 79ea <usbdc_start+0x26>
    79ce:	4b08      	ldr	r3, [pc, #32]	; (79f0 <usbdc_start+0x2c>)
    79d0:	6018      	str	r0, [r3, #0]
    79d2:	6802      	ldr	r2, [r0, #0]
    79d4:	79d2      	ldrb	r2, [r2, #7]
    79d6:	771a      	strb	r2, [r3, #28]
    79d8:	2201      	movs	r2, #1
    79da:	769a      	strb	r2, [r3, #26]
    79dc:	4b05      	ldr	r3, [pc, #20]	; (79f4 <usbdc_start+0x30>)
    79de:	4798      	blx	r3
    79e0:	2000      	movs	r0, #0
    79e2:	bd08      	pop	{r3, pc}
    79e4:	f06f 0003 	mvn.w	r0, #3
    79e8:	bd08      	pop	{r3, pc}
    79ea:	f06f 0008 	mvn.w	r0, #8
    79ee:	bd08      	pop	{r3, pc}
    79f0:	20000cb4 	.word	0x20000cb4
    79f4:	00004a39 	.word	0x00004a39

000079f8 <usbdc_attach>:
    79f8:	b508      	push	{r3, lr}
    79fa:	4b01      	ldr	r3, [pc, #4]	; (7a00 <usbdc_attach+0x8>)
    79fc:	4798      	blx	r3
    79fe:	bd08      	pop	{r3, pc}
    7a00:	00004a45 	.word	0x00004a45

00007a04 <usbdc_get_ctrl_buffer>:
    7a04:	4b01      	ldr	r3, [pc, #4]	; (7a0c <usbdc_get_ctrl_buffer+0x8>)
    7a06:	6958      	ldr	r0, [r3, #20]
    7a08:	4770      	bx	lr
    7a0a:	bf00      	nop
    7a0c:	20000cb4 	.word	0x20000cb4

00007a10 <usbdc_get_state>:
    7a10:	4b04      	ldr	r3, [pc, #16]	; (7a24 <usbdc_get_state+0x14>)
    7a12:	7e98      	ldrb	r0, [r3, #26]
    7a14:	f000 0310 	and.w	r3, r0, #16
    7a18:	b2db      	uxtb	r3, r3
    7a1a:	2b00      	cmp	r3, #0
    7a1c:	bf18      	it	ne
    7a1e:	2010      	movne	r0, #16
    7a20:	4770      	bx	lr
    7a22:	bf00      	nop
    7a24:	20000cb4 	.word	0x20000cb4

00007a28 <usb_find_desc>:
    7a28:	b410      	push	{r4}
    7a2a:	4288      	cmp	r0, r1
    7a2c:	d211      	bcs.n	7a52 <usb_find_desc+0x2a>
    7a2e:	7803      	ldrb	r3, [r0, #0]
    7a30:	2b01      	cmp	r3, #1
    7a32:	d910      	bls.n	7a56 <usb_find_desc+0x2e>
    7a34:	7844      	ldrb	r4, [r0, #1]
    7a36:	4294      	cmp	r4, r2
    7a38:	d106      	bne.n	7a48 <usb_find_desc+0x20>
    7a3a:	e00f      	b.n	7a5c <usb_find_desc+0x34>
    7a3c:	7803      	ldrb	r3, [r0, #0]
    7a3e:	2b01      	cmp	r3, #1
    7a40:	d90b      	bls.n	7a5a <usb_find_desc+0x32>
    7a42:	7844      	ldrb	r4, [r0, #1]
    7a44:	4294      	cmp	r4, r2
    7a46:	d009      	beq.n	7a5c <usb_find_desc+0x34>
    7a48:	4418      	add	r0, r3
    7a4a:	4281      	cmp	r1, r0
    7a4c:	d8f6      	bhi.n	7a3c <usb_find_desc+0x14>
    7a4e:	2000      	movs	r0, #0
    7a50:	e004      	b.n	7a5c <usb_find_desc+0x34>
    7a52:	2000      	movs	r0, #0
    7a54:	e002      	b.n	7a5c <usb_find_desc+0x34>
    7a56:	2000      	movs	r0, #0
    7a58:	e000      	b.n	7a5c <usb_find_desc+0x34>
    7a5a:	2000      	movs	r0, #0
    7a5c:	f85d 4b04 	ldr.w	r4, [sp], #4
    7a60:	4770      	bx	lr
    7a62:	bf00      	nop

00007a64 <usb_find_ep_desc>:
    7a64:	4288      	cmp	r0, r1
    7a66:	d215      	bcs.n	7a94 <usb_find_ep_desc+0x30>
    7a68:	7803      	ldrb	r3, [r0, #0]
    7a6a:	2b01      	cmp	r3, #1
    7a6c:	d914      	bls.n	7a98 <usb_find_ep_desc+0x34>
    7a6e:	7842      	ldrb	r2, [r0, #1]
    7a70:	2a04      	cmp	r2, #4
    7a72:	d013      	beq.n	7a9c <usb_find_ep_desc+0x38>
    7a74:	2a05      	cmp	r2, #5
    7a76:	d108      	bne.n	7a8a <usb_find_ep_desc+0x26>
    7a78:	4770      	bx	lr
    7a7a:	7803      	ldrb	r3, [r0, #0]
    7a7c:	2b01      	cmp	r3, #1
    7a7e:	d90f      	bls.n	7aa0 <usb_find_ep_desc+0x3c>
    7a80:	7842      	ldrb	r2, [r0, #1]
    7a82:	2a04      	cmp	r2, #4
    7a84:	d00e      	beq.n	7aa4 <usb_find_ep_desc+0x40>
    7a86:	2a05      	cmp	r2, #5
    7a88:	d00d      	beq.n	7aa6 <usb_find_ep_desc+0x42>
    7a8a:	4418      	add	r0, r3
    7a8c:	4281      	cmp	r1, r0
    7a8e:	d8f4      	bhi.n	7a7a <usb_find_ep_desc+0x16>
    7a90:	2000      	movs	r0, #0
    7a92:	4770      	bx	lr
    7a94:	2000      	movs	r0, #0
    7a96:	4770      	bx	lr
    7a98:	2000      	movs	r0, #0
    7a9a:	4770      	bx	lr
    7a9c:	2000      	movs	r0, #0
    7a9e:	4770      	bx	lr
    7aa0:	2000      	movs	r0, #0
    7aa2:	4770      	bx	lr
    7aa4:	2000      	movs	r0, #0
    7aa6:	4770      	bx	lr

00007aa8 <usb_find_cfg_desc>:
    7aa8:	b570      	push	{r4, r5, r6, lr}
    7aaa:	460d      	mov	r5, r1
    7aac:	4616      	mov	r6, r2
    7aae:	2202      	movs	r2, #2
    7ab0:	4b18      	ldr	r3, [pc, #96]	; (7b14 <usb_find_cfg_desc+0x6c>)
    7ab2:	4798      	blx	r3
    7ab4:	4603      	mov	r3, r0
    7ab6:	b1f0      	cbz	r0, 7af6 <usb_find_cfg_desc+0x4e>
    7ab8:	4285      	cmp	r5, r0
    7aba:	d91e      	bls.n	7afa <usb_find_cfg_desc+0x52>
    7abc:	7802      	ldrb	r2, [r0, #0]
    7abe:	2a01      	cmp	r2, #1
    7ac0:	d91d      	bls.n	7afe <usb_find_cfg_desc+0x56>
    7ac2:	7842      	ldrb	r2, [r0, #1]
    7ac4:	2a02      	cmp	r2, #2
    7ac6:	d11c      	bne.n	7b02 <usb_find_cfg_desc+0x5a>
    7ac8:	7942      	ldrb	r2, [r0, #5]
    7aca:	42b2      	cmp	r2, r6
    7acc:	d109      	bne.n	7ae2 <usb_find_cfg_desc+0x3a>
    7ace:	e01a      	b.n	7b06 <usb_find_cfg_desc+0x5e>
    7ad0:	7818      	ldrb	r0, [r3, #0]
    7ad2:	2801      	cmp	r0, #1
    7ad4:	d918      	bls.n	7b08 <usb_find_cfg_desc+0x60>
    7ad6:	7858      	ldrb	r0, [r3, #1]
    7ad8:	2802      	cmp	r0, #2
    7ada:	d117      	bne.n	7b0c <usb_find_cfg_desc+0x64>
    7adc:	795a      	ldrb	r2, [r3, #5]
    7ade:	42b2      	cmp	r2, r6
    7ae0:	d016      	beq.n	7b10 <usb_find_cfg_desc+0x68>
    7ae2:	78dc      	ldrb	r4, [r3, #3]
    7ae4:	7898      	ldrb	r0, [r3, #2]
    7ae6:	eb00 2004 	add.w	r0, r0, r4, lsl #8
    7aea:	fa13 f380 	uxtah	r3, r3, r0
    7aee:	429d      	cmp	r5, r3
    7af0:	d8ee      	bhi.n	7ad0 <usb_find_cfg_desc+0x28>
    7af2:	2000      	movs	r0, #0
    7af4:	bd70      	pop	{r4, r5, r6, pc}
    7af6:	2000      	movs	r0, #0
    7af8:	bd70      	pop	{r4, r5, r6, pc}
    7afa:	2000      	movs	r0, #0
    7afc:	bd70      	pop	{r4, r5, r6, pc}
    7afe:	2000      	movs	r0, #0
    7b00:	bd70      	pop	{r4, r5, r6, pc}
    7b02:	2000      	movs	r0, #0
    7b04:	bd70      	pop	{r4, r5, r6, pc}
    7b06:	bd70      	pop	{r4, r5, r6, pc}
    7b08:	2000      	movs	r0, #0
    7b0a:	bd70      	pop	{r4, r5, r6, pc}
    7b0c:	2000      	movs	r0, #0
    7b0e:	bd70      	pop	{r4, r5, r6, pc}
    7b10:	4618      	mov	r0, r3
    7b12:	bd70      	pop	{r4, r5, r6, pc}
    7b14:	00007a29 	.word	0x00007a29

00007b18 <usb_find_str_desc>:
    7b18:	e92d 41f0 	stmdb	sp!, {r4, r5, r6, r7, r8, lr}
    7b1c:	460d      	mov	r5, r1
    7b1e:	4690      	mov	r8, r2
    7b20:	4288      	cmp	r0, r1
    7b22:	d212      	bcs.n	7b4a <usb_find_str_desc+0x32>
    7b24:	2400      	movs	r4, #0
    7b26:	2703      	movs	r7, #3
    7b28:	4e0f      	ldr	r6, [pc, #60]	; (7b68 <usb_find_str_desc+0x50>)
    7b2a:	4629      	mov	r1, r5
    7b2c:	463a      	mov	r2, r7
    7b2e:	47b0      	blx	r6
    7b30:	4603      	mov	r3, r0
    7b32:	b168      	cbz	r0, 7b50 <usb_find_str_desc+0x38>
    7b34:	7800      	ldrb	r0, [r0, #0]
    7b36:	2801      	cmp	r0, #1
    7b38:	d90d      	bls.n	7b56 <usb_find_str_desc+0x3e>
    7b3a:	4544      	cmp	r4, r8
    7b3c:	d00e      	beq.n	7b5c <usb_find_str_desc+0x44>
    7b3e:	3401      	adds	r4, #1
    7b40:	b2e4      	uxtb	r4, r4
    7b42:	4418      	add	r0, r3
    7b44:	4285      	cmp	r5, r0
    7b46:	d8f0      	bhi.n	7b2a <usb_find_str_desc+0x12>
    7b48:	e00b      	b.n	7b62 <usb_find_str_desc+0x4a>
    7b4a:	2000      	movs	r0, #0
    7b4c:	e8bd 81f0 	ldmia.w	sp!, {r4, r5, r6, r7, r8, pc}
    7b50:	2000      	movs	r0, #0
    7b52:	e8bd 81f0 	ldmia.w	sp!, {r4, r5, r6, r7, r8, pc}
    7b56:	2000      	movs	r0, #0
    7b58:	e8bd 81f0 	ldmia.w	sp!, {r4, r5, r6, r7, r8, pc}
    7b5c:	4618      	mov	r0, r3
    7b5e:	e8bd 81f0 	ldmia.w	sp!, {r4, r5, r6, r7, r8, pc}
    7b62:	2000      	movs	r0, #0
    7b64:	e8bd 81f0 	ldmia.w	sp!, {r4, r5, r6, r7, r8, pc}
    7b68:	00007a29 	.word	0x00007a29

00007b6c <atmel_start_init>:
    7b6c:	b508      	push	{r3, lr}
    7b6e:	4b03      	ldr	r3, [pc, #12]	; (7b7c <atmel_start_init+0x10>)
    7b70:	4798      	blx	r3
    7b72:	4b03      	ldr	r3, [pc, #12]	; (7b80 <atmel_start_init+0x14>)
    7b74:	4798      	blx	r3
    7b76:	4b03      	ldr	r3, [pc, #12]	; (7b84 <atmel_start_init+0x18>)
    7b78:	4798      	blx	r3
    7b7a:	bd08      	pop	{r3, pc}
    7b7c:	00008395 	.word	0x00008395
    7b80:	00009899 	.word	0x00009899
    7b84:	00009c5d 	.word	0x00009c5d

00007b88 <ADC_0_PORT_init>:
    7b88:	4b1a      	ldr	r3, [pc, #104]	; (7bf4 <ADC_0_PORT_init+0x6c>)
    7b8a:	2202      	movs	r2, #2
    7b8c:	f8c3 2084 	str.w	r2, [r3, #132]	; 0x84
    7b90:	f102 4280 	add.w	r2, r2, #1073741824	; 0x40000000
    7b94:	f8c3 20a8 	str.w	r2, [r3, #168]	; 0xa8
    7b98:	f04f 4240 	mov.w	r2, #3221225472	; 0xc0000000
    7b9c:	f8c3 20a8 	str.w	r2, [r3, #168]	; 0xa8
    7ba0:	f893 10c1 	ldrb.w	r1, [r3, #193]	; 0xc1
    7ba4:	f001 01fe 	and.w	r1, r1, #254	; 0xfe
    7ba8:	f041 0101 	orr.w	r1, r1, #1
    7bac:	f883 10c1 	strb.w	r1, [r3, #193]	; 0xc1
    7bb0:	f893 10b0 	ldrb.w	r1, [r3, #176]	; 0xb0
    7bb4:	f001 010f 	and.w	r1, r1, #15
    7bb8:	f041 0110 	orr.w	r1, r1, #16
    7bbc:	f883 10b0 	strb.w	r1, [r3, #176]	; 0xb0
    7bc0:	2104      	movs	r1, #4
    7bc2:	f8c3 1084 	str.w	r1, [r3, #132]	; 0x84
    7bc6:	f101 4180 	add.w	r1, r1, #1073741824	; 0x40000000
    7bca:	f8c3 10a8 	str.w	r1, [r3, #168]	; 0xa8
    7bce:	f8c3 20a8 	str.w	r2, [r3, #168]	; 0xa8
    7bd2:	f893 20c2 	ldrb.w	r2, [r3, #194]	; 0xc2
    7bd6:	f002 02fe 	and.w	r2, r2, #254	; 0xfe
    7bda:	f042 0201 	orr.w	r2, r2, #1
    7bde:	f883 20c2 	strb.w	r2, [r3, #194]	; 0xc2
    7be2:	f893 20b1 	ldrb.w	r2, [r3, #177]	; 0xb1
    7be6:	f002 02f0 	and.w	r2, r2, #240	; 0xf0
    7bea:	f042 0201 	orr.w	r2, r2, #1
    7bee:	f883 20b1 	strb.w	r2, [r3, #177]	; 0xb1
    7bf2:	4770      	bx	lr
    7bf4:	41008000 	.word	0x41008000

00007bf8 <ADC_0_CLOCK_init>:
    7bf8:	4b05      	ldr	r3, [pc, #20]	; (7c10 <ADC_0_CLOCK_init+0x18>)
    7bfa:	6a1a      	ldr	r2, [r3, #32]
    7bfc:	f042 0280 	orr.w	r2, r2, #128	; 0x80
    7c00:	621a      	str	r2, [r3, #32]
    7c02:	2240      	movs	r2, #64	; 0x40
    7c04:	f503 53a0 	add.w	r3, r3, #5120	; 0x1400
    7c08:	f8c3 2120 	str.w	r2, [r3, #288]	; 0x120
    7c0c:	4770      	bx	lr
    7c0e:	bf00      	nop
    7c10:	40000800 	.word	0x40000800

00007c14 <ADC_0_init>:
    7c14:	b508      	push	{r3, lr}
    7c16:	4b05      	ldr	r3, [pc, #20]	; (7c2c <ADC_0_init+0x18>)
    7c18:	4798      	blx	r3
    7c1a:	4b05      	ldr	r3, [pc, #20]	; (7c30 <ADC_0_init+0x1c>)
    7c1c:	4798      	blx	r3
    7c1e:	4805      	ldr	r0, [pc, #20]	; (7c34 <ADC_0_init+0x20>)
    7c20:	4905      	ldr	r1, [pc, #20]	; (7c38 <ADC_0_init+0x24>)
    7c22:	2200      	movs	r2, #0
    7c24:	4b05      	ldr	r3, [pc, #20]	; (7c3c <ADC_0_init+0x28>)
    7c26:	4798      	blx	r3
    7c28:	bd08      	pop	{r3, pc}
    7c2a:	bf00      	nop
    7c2c:	00007bf9 	.word	0x00007bf9
    7c30:	00007b89 	.word	0x00007b89
    7c34:	20000e60 	.word	0x20000e60
    7c38:	43001c00 	.word	0x43001c00
    7c3c:	0000436d 	.word	0x0000436d

00007c40 <EXTERNAL_IRQ_0_init>:
    7c40:	b508      	push	{r3, lr}
    7c42:	2240      	movs	r2, #64	; 0x40
    7c44:	4b5b      	ldr	r3, [pc, #364]	; (7db4 <EXTERNAL_IRQ_0_init+0x174>)
    7c46:	f8c3 2090 	str.w	r2, [r3, #144]	; 0x90
    7c4a:	f5a3 53a0 	sub.w	r3, r3, #5120	; 0x1400
    7c4e:	695a      	ldr	r2, [r3, #20]
    7c50:	f442 6280 	orr.w	r2, r2, #1024	; 0x400
    7c54:	615a      	str	r2, [r3, #20]
    7c56:	4b58      	ldr	r3, [pc, #352]	; (7db8 <EXTERNAL_IRQ_0_init+0x178>)
    7c58:	f44f 3280 	mov.w	r2, #65536	; 0x10000
    7c5c:	f8c3 2084 	str.w	r2, [r3, #132]	; 0x84
    7c60:	4a56      	ldr	r2, [pc, #344]	; (7dbc <EXTERNAL_IRQ_0_init+0x17c>)
    7c62:	f8c3 20a8 	str.w	r2, [r3, #168]	; 0xa8
    7c66:	4956      	ldr	r1, [pc, #344]	; (7dc0 <EXTERNAL_IRQ_0_init+0x180>)
    7c68:	f8c3 10a8 	str.w	r1, [r3, #168]	; 0xa8
    7c6c:	f893 10d0 	ldrb.w	r1, [r3, #208]	; 0xd0
    7c70:	f001 01fb 	and.w	r1, r1, #251	; 0xfb
    7c74:	f883 10d0 	strb.w	r1, [r3, #208]	; 0xd0
    7c78:	f893 10d0 	ldrb.w	r1, [r3, #208]	; 0xd0
    7c7c:	f001 01fe 	and.w	r1, r1, #254	; 0xfe
    7c80:	f041 0101 	orr.w	r1, r1, #1
    7c84:	f883 10d0 	strb.w	r1, [r3, #208]	; 0xd0
    7c88:	f893 10b8 	ldrb.w	r1, [r3, #184]	; 0xb8
    7c8c:	f001 01f0 	and.w	r1, r1, #240	; 0xf0
    7c90:	f883 10b8 	strb.w	r1, [r3, #184]	; 0xb8
    7c94:	f44f 3100 	mov.w	r1, #131072	; 0x20000
    7c98:	f8c3 1084 	str.w	r1, [r3, #132]	; 0x84
    7c9c:	f8c3 20a8 	str.w	r2, [r3, #168]	; 0xa8
    7ca0:	4948      	ldr	r1, [pc, #288]	; (7dc4 <EXTERNAL_IRQ_0_init+0x184>)
    7ca2:	f8c3 10a8 	str.w	r1, [r3, #168]	; 0xa8
    7ca6:	f893 10d1 	ldrb.w	r1, [r3, #209]	; 0xd1
    7caa:	f001 01fb 	and.w	r1, r1, #251	; 0xfb
    7cae:	f883 10d1 	strb.w	r1, [r3, #209]	; 0xd1
    7cb2:	f893 10d1 	ldrb.w	r1, [r3, #209]	; 0xd1
    7cb6:	f001 01fe 	and.w	r1, r1, #254	; 0xfe
    7cba:	f041 0101 	orr.w	r1, r1, #1
    7cbe:	f883 10d1 	strb.w	r1, [r3, #209]	; 0xd1
    7cc2:	f893 10b8 	ldrb.w	r1, [r3, #184]	; 0xb8
    7cc6:	f001 010f 	and.w	r1, r1, #15
    7cca:	f883 10b8 	strb.w	r1, [r3, #184]	; 0xb8
    7cce:	f44f 0180 	mov.w	r1, #4194304	; 0x400000
    7cd2:	f8c3 1084 	str.w	r1, [r3, #132]	; 0x84
    7cd6:	f8c3 20a8 	str.w	r2, [r3, #168]	; 0xa8
    7cda:	493b      	ldr	r1, [pc, #236]	; (7dc8 <EXTERNAL_IRQ_0_init+0x188>)
    7cdc:	f8c3 10a8 	str.w	r1, [r3, #168]	; 0xa8
    7ce0:	f893 10d6 	ldrb.w	r1, [r3, #214]	; 0xd6
    7ce4:	f001 01fb 	and.w	r1, r1, #251	; 0xfb
    7ce8:	f883 10d6 	strb.w	r1, [r3, #214]	; 0xd6
    7cec:	f893 10d6 	ldrb.w	r1, [r3, #214]	; 0xd6
    7cf0:	f001 01fe 	and.w	r1, r1, #254	; 0xfe
    7cf4:	f041 0101 	orr.w	r1, r1, #1
    7cf8:	f883 10d6 	strb.w	r1, [r3, #214]	; 0xd6
    7cfc:	f893 10bb 	ldrb.w	r1, [r3, #187]	; 0xbb
    7d00:	f001 01f0 	and.w	r1, r1, #240	; 0xf0
    7d04:	f883 10bb 	strb.w	r1, [r3, #187]	; 0xbb
    7d08:	f44f 0100 	mov.w	r1, #8388608	; 0x800000
    7d0c:	f8c3 1084 	str.w	r1, [r3, #132]	; 0x84
    7d10:	f8c3 20a8 	str.w	r2, [r3, #168]	; 0xa8
    7d14:	492d      	ldr	r1, [pc, #180]	; (7dcc <EXTERNAL_IRQ_0_init+0x18c>)
    7d16:	f8c3 10a8 	str.w	r1, [r3, #168]	; 0xa8
    7d1a:	f893 10d7 	ldrb.w	r1, [r3, #215]	; 0xd7
    7d1e:	f001 01fb 	and.w	r1, r1, #251	; 0xfb
    7d22:	f883 10d7 	strb.w	r1, [r3, #215]	; 0xd7
    7d26:	f893 10d7 	ldrb.w	r1, [r3, #215]	; 0xd7
    7d2a:	f001 01fe 	and.w	r1, r1, #254	; 0xfe
    7d2e:	f041 0101 	orr.w	r1, r1, #1
    7d32:	f883 10d7 	strb.w	r1, [r3, #215]	; 0xd7
    7d36:	f893 10bb 	ldrb.w	r1, [r3, #187]	; 0xbb
    7d3a:	f001 010f 	and.w	r1, r1, #15
    7d3e:	f883 10bb 	strb.w	r1, [r3, #187]	; 0xbb
    7d42:	f04f 6100 	mov.w	r1, #134217728	; 0x8000000
    7d46:	6059      	str	r1, [r3, #4]
    7d48:	629a      	str	r2, [r3, #40]	; 0x28
    7d4a:	4a21      	ldr	r2, [pc, #132]	; (7dd0 <EXTERNAL_IRQ_0_init+0x190>)
    7d4c:	629a      	str	r2, [r3, #40]	; 0x28
    7d4e:	f893 205b 	ldrb.w	r2, [r3, #91]	; 0x5b
    7d52:	f002 02fb 	and.w	r2, r2, #251	; 0xfb
    7d56:	f883 205b 	strb.w	r2, [r3, #91]	; 0x5b
    7d5a:	f893 205b 	ldrb.w	r2, [r3, #91]	; 0x5b
    7d5e:	f002 02fe 	and.w	r2, r2, #254	; 0xfe
    7d62:	f042 0201 	orr.w	r2, r2, #1
    7d66:	f883 205b 	strb.w	r2, [r3, #91]	; 0x5b
    7d6a:	f893 203d 	ldrb.w	r2, [r3, #61]	; 0x3d
    7d6e:	f002 020f 	and.w	r2, r2, #15
    7d72:	f883 203d 	strb.w	r2, [r3, #61]	; 0x3d
    7d76:	f44f 4280 	mov.w	r2, #16384	; 0x4000
    7d7a:	605a      	str	r2, [r3, #4]
    7d7c:	4a15      	ldr	r2, [pc, #84]	; (7dd4 <EXTERNAL_IRQ_0_init+0x194>)
    7d7e:	629a      	str	r2, [r3, #40]	; 0x28
    7d80:	4a15      	ldr	r2, [pc, #84]	; (7dd8 <EXTERNAL_IRQ_0_init+0x198>)
    7d82:	629a      	str	r2, [r3, #40]	; 0x28
    7d84:	f893 204e 	ldrb.w	r2, [r3, #78]	; 0x4e
    7d88:	f002 02fb 	and.w	r2, r2, #251	; 0xfb
    7d8c:	f883 204e 	strb.w	r2, [r3, #78]	; 0x4e
    7d90:	f893 204e 	ldrb.w	r2, [r3, #78]	; 0x4e
    7d94:	f002 02fe 	and.w	r2, r2, #254	; 0xfe
    7d98:	f042 0201 	orr.w	r2, r2, #1
    7d9c:	f883 204e 	strb.w	r2, [r3, #78]	; 0x4e
    7da0:	f893 2037 	ldrb.w	r2, [r3, #55]	; 0x37
    7da4:	f002 02f0 	and.w	r2, r2, #240	; 0xf0
    7da8:	f883 2037 	strb.w	r2, [r3, #55]	; 0x37
    7dac:	4b0b      	ldr	r3, [pc, #44]	; (7ddc <EXTERNAL_IRQ_0_init+0x19c>)
    7dae:	4798      	blx	r3
    7db0:	bd08      	pop	{r3, pc}
    7db2:	bf00      	nop
    7db4:	40001c00 	.word	0x40001c00
    7db8:	41008000 	.word	0x41008000
    7dbc:	40020000 	.word	0x40020000
    7dc0:	c0020001 	.word	0xc0020001
    7dc4:	c0020002 	.word	0xc0020002
    7dc8:	c0020040 	.word	0xc0020040
    7dcc:	c0020080 	.word	0xc0020080
    7dd0:	c0020800 	.word	0xc0020800
    7dd4:	40024000 	.word	0x40024000
    7dd8:	c0020000 	.word	0xc0020000
    7ddc:	0000442d 	.word	0x0000442d

00007de0 <SPI_SENSOR_PORT_init>:
    7de0:	4b28      	ldr	r3, [pc, #160]	; (7e84 <SPI_SENSOR_PORT_init+0xa4>)
    7de2:	2210      	movs	r2, #16
    7de4:	605a      	str	r2, [r3, #4]
    7de6:	f102 4280 	add.w	r2, r2, #1073741824	; 0x40000000
    7dea:	f502 3200 	add.w	r2, r2, #131072	; 0x20000
    7dee:	629a      	str	r2, [r3, #40]	; 0x28
    7df0:	4a25      	ldr	r2, [pc, #148]	; (7e88 <SPI_SENSOR_PORT_init+0xa8>)
    7df2:	629a      	str	r2, [r3, #40]	; 0x28
    7df4:	f893 2044 	ldrb.w	r2, [r3, #68]	; 0x44
    7df8:	f002 02fb 	and.w	r2, r2, #251	; 0xfb
    7dfc:	f883 2044 	strb.w	r2, [r3, #68]	; 0x44
    7e00:	f893 2044 	ldrb.w	r2, [r3, #68]	; 0x44
    7e04:	f002 02fe 	and.w	r2, r2, #254	; 0xfe
    7e08:	f042 0201 	orr.w	r2, r2, #1
    7e0c:	f883 2044 	strb.w	r2, [r3, #68]	; 0x44
    7e10:	f893 2032 	ldrb.w	r2, [r3, #50]	; 0x32
    7e14:	f002 02f0 	and.w	r2, r2, #240	; 0xf0
    7e18:	f042 0203 	orr.w	r2, r2, #3
    7e1c:	f883 2032 	strb.w	r2, [r3, #50]	; 0x32
    7e20:	2220      	movs	r2, #32
    7e22:	615a      	str	r2, [r3, #20]
    7e24:	609a      	str	r2, [r3, #8]
    7e26:	f102 4280 	add.w	r2, r2, #1073741824	; 0x40000000
    7e2a:	629a      	str	r2, [r3, #40]	; 0x28
    7e2c:	f04f 4240 	mov.w	r2, #3221225472	; 0xc0000000
    7e30:	629a      	str	r2, [r3, #40]	; 0x28
    7e32:	f893 1045 	ldrb.w	r1, [r3, #69]	; 0x45
    7e36:	f001 01fe 	and.w	r1, r1, #254	; 0xfe
    7e3a:	f041 0101 	orr.w	r1, r1, #1
    7e3e:	f883 1045 	strb.w	r1, [r3, #69]	; 0x45
    7e42:	f893 1032 	ldrb.w	r1, [r3, #50]	; 0x32
    7e46:	f001 010f 	and.w	r1, r1, #15
    7e4a:	f041 0130 	orr.w	r1, r1, #48	; 0x30
    7e4e:	f883 1032 	strb.w	r1, [r3, #50]	; 0x32
    7e52:	2180      	movs	r1, #128	; 0x80
    7e54:	6159      	str	r1, [r3, #20]
    7e56:	6099      	str	r1, [r3, #8]
    7e58:	f101 4180 	add.w	r1, r1, #1073741824	; 0x40000000
    7e5c:	6299      	str	r1, [r3, #40]	; 0x28
    7e5e:	629a      	str	r2, [r3, #40]	; 0x28
    7e60:	f893 2047 	ldrb.w	r2, [r3, #71]	; 0x47
    7e64:	f002 02fe 	and.w	r2, r2, #254	; 0xfe
    7e68:	f042 0201 	orr.w	r2, r2, #1
    7e6c:	f883 2047 	strb.w	r2, [r3, #71]	; 0x47
    7e70:	f893 2033 	ldrb.w	r2, [r3, #51]	; 0x33
    7e74:	f002 020f 	and.w	r2, r2, #15
    7e78:	f042 0230 	orr.w	r2, r2, #48	; 0x30
    7e7c:	f883 2033 	strb.w	r2, [r3, #51]	; 0x33
    7e80:	4770      	bx	lr
    7e82:	bf00      	nop
    7e84:	41008000 	.word	0x41008000
    7e88:	c0020000 	.word	0xc0020000

00007e8c <SPI_SENSOR_CLOCK_init>:
    7e8c:	4b06      	ldr	r3, [pc, #24]	; (7ea8 <SPI_SENSOR_CLOCK_init+0x1c>)
    7e8e:	2240      	movs	r2, #64	; 0x40
    7e90:	f8c3 209c 	str.w	r2, [r3, #156]	; 0x9c
    7e94:	2241      	movs	r2, #65	; 0x41
    7e96:	f8c3 208c 	str.w	r2, [r3, #140]	; 0x8c
    7e9a:	f5a3 53a0 	sub.w	r3, r3, #5120	; 0x1400
    7e9e:	695a      	ldr	r2, [r3, #20]
    7ea0:	f442 5280 	orr.w	r2, r2, #4096	; 0x1000
    7ea4:	615a      	str	r2, [r3, #20]
    7ea6:	4770      	bx	lr
    7ea8:	40001c00 	.word	0x40001c00

00007eac <SPI_SENSOR_init>:
    7eac:	b508      	push	{r3, lr}
    7eae:	4b04      	ldr	r3, [pc, #16]	; (7ec0 <SPI_SENSOR_init+0x14>)
    7eb0:	4798      	blx	r3
    7eb2:	4804      	ldr	r0, [pc, #16]	; (7ec4 <SPI_SENSOR_init+0x18>)
    7eb4:	4904      	ldr	r1, [pc, #16]	; (7ec8 <SPI_SENSOR_init+0x1c>)
    7eb6:	4b05      	ldr	r3, [pc, #20]	; (7ecc <SPI_SENSOR_init+0x20>)
    7eb8:	4798      	blx	r3
    7eba:	4b05      	ldr	r3, [pc, #20]	; (7ed0 <SPI_SENSOR_init+0x24>)
    7ebc:	4798      	blx	r3
    7ebe:	bd08      	pop	{r3, pc}
    7ec0:	00007e8d 	.word	0x00007e8d
    7ec4:	20000e88 	.word	0x20000e88
    7ec8:	40003000 	.word	0x40003000
    7ecc:	00004529 	.word	0x00004529
    7ed0:	00007de1 	.word	0x00007de1

00007ed4 <USART_ESP_PORT_init>:
    7ed4:	4b10      	ldr	r3, [pc, #64]	; (7f18 <USART_ESP_PORT_init+0x44>)
    7ed6:	f893 204c 	ldrb.w	r2, [r3, #76]	; 0x4c
    7eda:	f002 02fe 	and.w	r2, r2, #254	; 0xfe
    7ede:	f042 0201 	orr.w	r2, r2, #1
    7ee2:	f883 204c 	strb.w	r2, [r3, #76]	; 0x4c
    7ee6:	f893 2036 	ldrb.w	r2, [r3, #54]	; 0x36
    7eea:	f002 02f0 	and.w	r2, r2, #240	; 0xf0
    7eee:	f042 0202 	orr.w	r2, r2, #2
    7ef2:	f883 2036 	strb.w	r2, [r3, #54]	; 0x36
    7ef6:	f893 204d 	ldrb.w	r2, [r3, #77]	; 0x4d
    7efa:	f002 02fe 	and.w	r2, r2, #254	; 0xfe
    7efe:	f042 0201 	orr.w	r2, r2, #1
    7f02:	f883 204d 	strb.w	r2, [r3, #77]	; 0x4d
    7f06:	f893 2036 	ldrb.w	r2, [r3, #54]	; 0x36
    7f0a:	f002 020f 	and.w	r2, r2, #15
    7f0e:	f042 0220 	orr.w	r2, r2, #32
    7f12:	f883 2036 	strb.w	r2, [r3, #54]	; 0x36
    7f16:	4770      	bx	lr
    7f18:	41008000 	.word	0x41008000

00007f1c <USART_ESP_CLOCK_init>:
    7f1c:	4b06      	ldr	r3, [pc, #24]	; (7f38 <USART_ESP_CLOCK_init+0x1c>)
    7f1e:	2240      	movs	r2, #64	; 0x40
    7f20:	f8c3 20dc 	str.w	r2, [r3, #220]	; 0xdc
    7f24:	2241      	movs	r2, #65	; 0x41
    7f26:	f8c3 208c 	str.w	r2, [r3, #140]	; 0x8c
    7f2a:	f5a3 53a0 	sub.w	r3, r3, #5120	; 0x1400
    7f2e:	699a      	ldr	r2, [r3, #24]
    7f30:	f442 7200 	orr.w	r2, r2, #512	; 0x200
    7f34:	619a      	str	r2, [r3, #24]
    7f36:	4770      	bx	lr
    7f38:	40001c00 	.word	0x40001c00

00007f3c <USART_ESP_init>:
    7f3c:	b508      	push	{r3, lr}
    7f3e:	4b05      	ldr	r3, [pc, #20]	; (7f54 <USART_ESP_init+0x18>)
    7f40:	4798      	blx	r3
    7f42:	4805      	ldr	r0, [pc, #20]	; (7f58 <USART_ESP_init+0x1c>)
    7f44:	4905      	ldr	r1, [pc, #20]	; (7f5c <USART_ESP_init+0x20>)
    7f46:	2200      	movs	r2, #0
    7f48:	4b05      	ldr	r3, [pc, #20]	; (7f60 <USART_ESP_init+0x24>)
    7f4a:	4798      	blx	r3
    7f4c:	4b05      	ldr	r3, [pc, #20]	; (7f64 <USART_ESP_init+0x28>)
    7f4e:	4798      	blx	r3
    7f50:	bd08      	pop	{r3, pc}
    7f52:	bf00      	nop
    7f54:	00007f1d 	.word	0x00007f1d
    7f58:	20000e64 	.word	0x20000e64
    7f5c:	41012000 	.word	0x41012000
    7f60:	00004781 	.word	0x00004781
    7f64:	00007ed5 	.word	0x00007ed5

00007f68 <SPI_SQUIB_PORT_init>:
    7f68:	4b27      	ldr	r3, [pc, #156]	; (8008 <SPI_SQUIB_PORT_init+0xa0>)
    7f6a:	f44f 3200 	mov.w	r2, #131072	; 0x20000
    7f6e:	605a      	str	r2, [r3, #4]
    7f70:	f102 4280 	add.w	r2, r2, #1073741824	; 0x40000000
    7f74:	629a      	str	r2, [r3, #40]	; 0x28
    7f76:	4a25      	ldr	r2, [pc, #148]	; (800c <SPI_SQUIB_PORT_init+0xa4>)
    7f78:	629a      	str	r2, [r3, #40]	; 0x28
    7f7a:	f893 2051 	ldrb.w	r2, [r3, #81]	; 0x51
    7f7e:	f002 02fb 	and.w	r2, r2, #251	; 0xfb
    7f82:	f883 2051 	strb.w	r2, [r3, #81]	; 0x51
    7f86:	f893 2051 	ldrb.w	r2, [r3, #81]	; 0x51
    7f8a:	f002 02fe 	and.w	r2, r2, #254	; 0xfe
    7f8e:	f042 0201 	orr.w	r2, r2, #1
    7f92:	f883 2051 	strb.w	r2, [r3, #81]	; 0x51
    7f96:	f893 2038 	ldrb.w	r2, [r3, #56]	; 0x38
    7f9a:	f002 020f 	and.w	r2, r2, #15
    7f9e:	f042 0230 	orr.w	r2, r2, #48	; 0x30
    7fa2:	f883 2038 	strb.w	r2, [r3, #56]	; 0x38
    7fa6:	f44f 3280 	mov.w	r2, #65536	; 0x10000
    7faa:	615a      	str	r2, [r3, #20]
    7fac:	609a      	str	r2, [r3, #8]
    7fae:	f04f 4280 	mov.w	r2, #1073741824	; 0x40000000
    7fb2:	629a      	str	r2, [r3, #40]	; 0x28
    7fb4:	4916      	ldr	r1, [pc, #88]	; (8010 <SPI_SQUIB_PORT_init+0xa8>)
    7fb6:	6299      	str	r1, [r3, #40]	; 0x28
    7fb8:	f893 1050 	ldrb.w	r1, [r3, #80]	; 0x50
    7fbc:	f001 01fe 	and.w	r1, r1, #254	; 0xfe
    7fc0:	f041 0101 	orr.w	r1, r1, #1
    7fc4:	f883 1050 	strb.w	r1, [r3, #80]	; 0x50
    7fc8:	f893 1038 	ldrb.w	r1, [r3, #56]	; 0x38
    7fcc:	f001 01f0 	and.w	r1, r1, #240	; 0xf0
    7fd0:	f041 0103 	orr.w	r1, r1, #3
    7fd4:	f883 1038 	strb.w	r1, [r3, #56]	; 0x38
    7fd8:	f44f 2100 	mov.w	r1, #524288	; 0x80000
    7fdc:	6159      	str	r1, [r3, #20]
    7fde:	6099      	str	r1, [r3, #8]
    7fe0:	629a      	str	r2, [r3, #40]	; 0x28
    7fe2:	4a0c      	ldr	r2, [pc, #48]	; (8014 <SPI_SQUIB_PORT_init+0xac>)
    7fe4:	629a      	str	r2, [r3, #40]	; 0x28
    7fe6:	f893 2053 	ldrb.w	r2, [r3, #83]	; 0x53
    7fea:	f002 02fe 	and.w	r2, r2, #254	; 0xfe
    7fee:	f042 0201 	orr.w	r2, r2, #1
    7ff2:	f883 2053 	strb.w	r2, [r3, #83]	; 0x53
    7ff6:	f893 2039 	ldrb.w	r2, [r3, #57]	; 0x39
    7ffa:	f002 020f 	and.w	r2, r2, #15
    7ffe:	f042 0230 	orr.w	r2, r2, #48	; 0x30
    8002:	f883 2039 	strb.w	r2, [r3, #57]	; 0x39
    8006:	4770      	bx	lr
    8008:	41008000 	.word	0x41008000
    800c:	c0020002 	.word	0xc0020002
    8010:	c0000001 	.word	0xc0000001
    8014:	c0000008 	.word	0xc0000008

00008018 <SPI_SQUIB_CLOCK_init>:
    8018:	4b06      	ldr	r3, [pc, #24]	; (8034 <SPI_SQUIB_CLOCK_init+0x1c>)
    801a:	2240      	movs	r2, #64	; 0x40
    801c:	f8c3 20e0 	str.w	r2, [r3, #224]	; 0xe0
    8020:	2241      	movs	r2, #65	; 0x41
    8022:	f8c3 208c 	str.w	r2, [r3, #140]	; 0x8c
    8026:	f5a3 53a0 	sub.w	r3, r3, #5120	; 0x1400
    802a:	699a      	ldr	r2, [r3, #24]
    802c:	f442 6280 	orr.w	r2, r2, #1024	; 0x400
    8030:	619a      	str	r2, [r3, #24]
    8032:	4770      	bx	lr
    8034:	40001c00 	.word	0x40001c00

00008038 <SPI_SQUIB_init>:
    8038:	b508      	push	{r3, lr}
    803a:	4b04      	ldr	r3, [pc, #16]	; (804c <SPI_SQUIB_init+0x14>)
    803c:	4798      	blx	r3
    803e:	4804      	ldr	r0, [pc, #16]	; (8050 <SPI_SQUIB_init+0x18>)
    8040:	4904      	ldr	r1, [pc, #16]	; (8054 <SPI_SQUIB_init+0x1c>)
    8042:	4b05      	ldr	r3, [pc, #20]	; (8058 <SPI_SQUIB_init+0x20>)
    8044:	4798      	blx	r3
    8046:	4b05      	ldr	r3, [pc, #20]	; (805c <SPI_SQUIB_init+0x24>)
    8048:	4798      	blx	r3
    804a:	bd08      	pop	{r3, pc}
    804c:	00008019 	.word	0x00008019
    8050:	20000e9c 	.word	0x20000e9c
    8054:	41014000 	.word	0x41014000
    8058:	00004529 	.word	0x00004529
    805c:	00007f69 	.word	0x00007f69

00008060 <I2C_BUS2_PORT_init>:
    8060:	4b16      	ldr	r3, [pc, #88]	; (80bc <I2C_BUS2_PORT_init+0x5c>)
    8062:	f893 2057 	ldrb.w	r2, [r3, #87]	; 0x57
    8066:	f002 02fb 	and.w	r2, r2, #251	; 0xfb
    806a:	f883 2057 	strb.w	r2, [r3, #87]	; 0x57
    806e:	f893 2057 	ldrb.w	r2, [r3, #87]	; 0x57
    8072:	f002 02fe 	and.w	r2, r2, #254	; 0xfe
    8076:	f042 0201 	orr.w	r2, r2, #1
    807a:	f883 2057 	strb.w	r2, [r3, #87]	; 0x57
    807e:	f893 203b 	ldrb.w	r2, [r3, #59]	; 0x3b
    8082:	f002 020f 	and.w	r2, r2, #15
    8086:	f042 0230 	orr.w	r2, r2, #48	; 0x30
    808a:	f883 203b 	strb.w	r2, [r3, #59]	; 0x3b
    808e:	f893 2056 	ldrb.w	r2, [r3, #86]	; 0x56
    8092:	f002 02fb 	and.w	r2, r2, #251	; 0xfb
    8096:	f883 2056 	strb.w	r2, [r3, #86]	; 0x56
    809a:	f893 2056 	ldrb.w	r2, [r3, #86]	; 0x56
    809e:	f002 02fe 	and.w	r2, r2, #254	; 0xfe
    80a2:	f042 0201 	orr.w	r2, r2, #1
    80a6:	f883 2056 	strb.w	r2, [r3, #86]	; 0x56
    80aa:	f893 203b 	ldrb.w	r2, [r3, #59]	; 0x3b
    80ae:	f002 02f0 	and.w	r2, r2, #240	; 0xf0
    80b2:	f042 0203 	orr.w	r2, r2, #3
    80b6:	f883 203b 	strb.w	r2, [r3, #59]	; 0x3b
    80ba:	4770      	bx	lr
    80bc:	41008000 	.word	0x41008000

000080c0 <I2C_BUS2_CLOCK_init>:
    80c0:	4b06      	ldr	r3, [pc, #24]	; (80dc <I2C_BUS2_CLOCK_init+0x1c>)
    80c2:	2240      	movs	r2, #64	; 0x40
    80c4:	f8c3 210c 	str.w	r2, [r3, #268]	; 0x10c
    80c8:	2241      	movs	r2, #65	; 0x41
    80ca:	f8c3 208c 	str.w	r2, [r3, #140]	; 0x8c
    80ce:	f5a3 53a0 	sub.w	r3, r3, #5120	; 0x1400
    80d2:	6a1a      	ldr	r2, [r3, #32]
    80d4:	f042 0202 	orr.w	r2, r2, #2
    80d8:	621a      	str	r2, [r3, #32]
    80da:	4770      	bx	lr
    80dc:	40001c00 	.word	0x40001c00

000080e0 <I2C_BUS2_init>:
    80e0:	b508      	push	{r3, lr}
    80e2:	4b04      	ldr	r3, [pc, #16]	; (80f4 <I2C_BUS2_init+0x14>)
    80e4:	4798      	blx	r3
    80e6:	4804      	ldr	r0, [pc, #16]	; (80f8 <I2C_BUS2_init+0x18>)
    80e8:	4904      	ldr	r1, [pc, #16]	; (80fc <I2C_BUS2_init+0x1c>)
    80ea:	4b05      	ldr	r3, [pc, #20]	; (8100 <I2C_BUS2_init+0x20>)
    80ec:	4798      	blx	r3
    80ee:	4b05      	ldr	r3, [pc, #20]	; (8104 <I2C_BUS2_init+0x24>)
    80f0:	4798      	blx	r3
    80f2:	bd08      	pop	{r3, pc}
    80f4:	000080c1 	.word	0x000080c1
    80f8:	20000e40 	.word	0x20000e40
    80fc:	43000400 	.word	0x43000400
    8100:	000044b9 	.word	0x000044b9
    8104:	00008061 	.word	0x00008061

00008108 <MCI_0_PORT_init>:
    8108:	b470      	push	{r4, r5, r6}
    810a:	4b5b      	ldr	r3, [pc, #364]	; (8278 <MCI_0_PORT_init+0x170>)
    810c:	f44f 6000 	mov.w	r0, #2048	; 0x800
    8110:	f8c3 0088 	str.w	r0, [r3, #136]	; 0x88
    8114:	4d59      	ldr	r5, [pc, #356]	; (827c <MCI_0_PORT_init+0x174>)
    8116:	f8c3 50a8 	str.w	r5, [r3, #168]	; 0xa8
    811a:	f04f 4240 	mov.w	r2, #3221225472	; 0xc0000000
    811e:	f8c3 20a8 	str.w	r2, [r3, #168]	; 0xa8
    8122:	f8c3 0094 	str.w	r0, [r3, #148]	; 0x94
    8126:	f893 10cb 	ldrb.w	r1, [r3, #203]	; 0xcb
    812a:	f001 01fb 	and.w	r1, r1, #251	; 0xfb
    812e:	f883 10cb 	strb.w	r1, [r3, #203]	; 0xcb
    8132:	f893 10cb 	ldrb.w	r1, [r3, #203]	; 0xcb
    8136:	f001 01fe 	and.w	r1, r1, #254	; 0xfe
    813a:	f041 0101 	orr.w	r1, r1, #1
    813e:	f883 10cb 	strb.w	r1, [r3, #203]	; 0xcb
    8142:	f893 10b5 	ldrb.w	r1, [r3, #181]	; 0xb5
    8146:	f001 010f 	and.w	r1, r1, #15
    814a:	f041 0180 	orr.w	r1, r1, #128	; 0x80
    814e:	f883 10b5 	strb.w	r1, [r3, #181]	; 0xb5
    8152:	f44f 7180 	mov.w	r1, #256	; 0x100
    8156:	6099      	str	r1, [r3, #8]
    8158:	4c49      	ldr	r4, [pc, #292]	; (8280 <MCI_0_PORT_init+0x178>)
    815a:	629c      	str	r4, [r3, #40]	; 0x28
    815c:	629a      	str	r2, [r3, #40]	; 0x28
    815e:	6159      	str	r1, [r3, #20]
    8160:	f893 1048 	ldrb.w	r1, [r3, #72]	; 0x48
    8164:	f001 01fb 	and.w	r1, r1, #251	; 0xfb
    8168:	f883 1048 	strb.w	r1, [r3, #72]	; 0x48
    816c:	f893 1048 	ldrb.w	r1, [r3, #72]	; 0x48
    8170:	f001 01fe 	and.w	r1, r1, #254	; 0xfe
    8174:	f041 0101 	orr.w	r1, r1, #1
    8178:	f883 1048 	strb.w	r1, [r3, #72]	; 0x48
    817c:	f893 1034 	ldrb.w	r1, [r3, #52]	; 0x34
    8180:	f001 01f0 	and.w	r1, r1, #240	; 0xf0
    8184:	f041 0108 	orr.w	r1, r1, #8
    8188:	f883 1034 	strb.w	r1, [r3, #52]	; 0x34
    818c:	f44f 7100 	mov.w	r1, #512	; 0x200
    8190:	6099      	str	r1, [r3, #8]
    8192:	f504 7480 	add.w	r4, r4, #256	; 0x100
    8196:	629c      	str	r4, [r3, #40]	; 0x28
    8198:	629a      	str	r2, [r3, #40]	; 0x28
    819a:	6159      	str	r1, [r3, #20]
    819c:	f893 1049 	ldrb.w	r1, [r3, #73]	; 0x49
    81a0:	f001 01fb 	and.w	r1, r1, #251	; 0xfb
    81a4:	f883 1049 	strb.w	r1, [r3, #73]	; 0x49
    81a8:	f893 1049 	ldrb.w	r1, [r3, #73]	; 0x49
    81ac:	f001 01fe 	and.w	r1, r1, #254	; 0xfe
    81b0:	f041 0101 	orr.w	r1, r1, #1
    81b4:	f883 1049 	strb.w	r1, [r3, #73]	; 0x49
    81b8:	f893 1034 	ldrb.w	r1, [r3, #52]	; 0x34
    81bc:	f001 010f 	and.w	r1, r1, #15
    81c0:	f041 0180 	orr.w	r1, r1, #128	; 0x80
    81c4:	f883 1034 	strb.w	r1, [r3, #52]	; 0x34
    81c8:	f44f 6180 	mov.w	r1, #1024	; 0x400
    81cc:	6099      	str	r1, [r3, #8]
    81ce:	f504 7400 	add.w	r4, r4, #512	; 0x200
    81d2:	629c      	str	r4, [r3, #40]	; 0x28
    81d4:	629a      	str	r2, [r3, #40]	; 0x28
    81d6:	6159      	str	r1, [r3, #20]
    81d8:	f893 604a 	ldrb.w	r6, [r3, #74]	; 0x4a
    81dc:	f006 06fb 	and.w	r6, r6, #251	; 0xfb
    81e0:	f883 604a 	strb.w	r6, [r3, #74]	; 0x4a
    81e4:	f893 604a 	ldrb.w	r6, [r3, #74]	; 0x4a
    81e8:	f006 06fe 	and.w	r6, r6, #254	; 0xfe
    81ec:	f046 0601 	orr.w	r6, r6, #1
    81f0:	f883 604a 	strb.w	r6, [r3, #74]	; 0x4a
    81f4:	f893 6035 	ldrb.w	r6, [r3, #53]	; 0x35
    81f8:	f006 06f0 	and.w	r6, r6, #240	; 0xf0
    81fc:	f046 0608 	orr.w	r6, r6, #8
    8200:	f883 6035 	strb.w	r6, [r3, #53]	; 0x35
    8204:	6098      	str	r0, [r3, #8]
    8206:	629d      	str	r5, [r3, #40]	; 0x28
    8208:	629a      	str	r2, [r3, #40]	; 0x28
    820a:	6158      	str	r0, [r3, #20]
    820c:	f893 004b 	ldrb.w	r0, [r3, #75]	; 0x4b
    8210:	f000 00fb 	and.w	r0, r0, #251	; 0xfb
    8214:	f883 004b 	strb.w	r0, [r3, #75]	; 0x4b
    8218:	f893 004b 	ldrb.w	r0, [r3, #75]	; 0x4b
    821c:	f000 00fe 	and.w	r0, r0, #254	; 0xfe
    8220:	f040 0001 	orr.w	r0, r0, #1
    8224:	f883 004b 	strb.w	r0, [r3, #75]	; 0x4b
    8228:	f893 0035 	ldrb.w	r0, [r3, #53]	; 0x35
    822c:	f000 000f 	and.w	r0, r0, #15
    8230:	f040 0080 	orr.w	r0, r0, #128	; 0x80
    8234:	f883 0035 	strb.w	r0, [r3, #53]	; 0x35
    8238:	f8c3 1088 	str.w	r1, [r3, #136]	; 0x88
    823c:	f8c3 40a8 	str.w	r4, [r3, #168]	; 0xa8
    8240:	f8c3 20a8 	str.w	r2, [r3, #168]	; 0xa8
    8244:	f8c3 1094 	str.w	r1, [r3, #148]	; 0x94
    8248:	f893 20ca 	ldrb.w	r2, [r3, #202]	; 0xca
    824c:	f002 02fb 	and.w	r2, r2, #251	; 0xfb
    8250:	f883 20ca 	strb.w	r2, [r3, #202]	; 0xca
    8254:	f893 20ca 	ldrb.w	r2, [r3, #202]	; 0xca
    8258:	f002 02fe 	and.w	r2, r2, #254	; 0xfe
    825c:	f042 0201 	orr.w	r2, r2, #1
    8260:	f883 20ca 	strb.w	r2, [r3, #202]	; 0xca
    8264:	f893 20b5 	ldrb.w	r2, [r3, #181]	; 0xb5
    8268:	f002 02f0 	and.w	r2, r2, #240	; 0xf0
    826c:	f042 0208 	orr.w	r2, r2, #8
    8270:	f883 20b5 	strb.w	r2, [r3, #181]	; 0xb5
    8274:	bc70      	pop	{r4, r5, r6}
    8276:	4770      	bx	lr
    8278:	41008000 	.word	0x41008000
    827c:	40000800 	.word	0x40000800
    8280:	40000100 	.word	0x40000100

00008284 <MCI_0_CLOCK_init>:
    8284:	4b06      	ldr	r3, [pc, #24]	; (82a0 <MCI_0_CLOCK_init+0x1c>)
    8286:	691a      	ldr	r2, [r3, #16]
    8288:	f442 4200 	orr.w	r2, r2, #32768	; 0x8000
    828c:	611a      	str	r2, [r3, #16]
    828e:	f503 53a0 	add.w	r3, r3, #5120	; 0x1400
    8292:	2240      	movs	r2, #64	; 0x40
    8294:	f8c3 2134 	str.w	r2, [r3, #308]	; 0x134
    8298:	f8c3 208c 	str.w	r2, [r3, #140]	; 0x8c
    829c:	4770      	bx	lr
    829e:	bf00      	nop
    82a0:	40000800 	.word	0x40000800

000082a4 <MCI_0_init>:
    82a4:	b508      	push	{r3, lr}
    82a6:	4b05      	ldr	r3, [pc, #20]	; (82bc <MCI_0_init+0x18>)
    82a8:	4798      	blx	r3
    82aa:	4805      	ldr	r0, [pc, #20]	; (82c0 <MCI_0_init+0x1c>)
    82ac:	f04f 418a 	mov.w	r1, #1157627904	; 0x45000000
    82b0:	4b04      	ldr	r3, [pc, #16]	; (82c4 <MCI_0_init+0x20>)
    82b2:	4798      	blx	r3
    82b4:	4b04      	ldr	r3, [pc, #16]	; (82c8 <MCI_0_init+0x24>)
    82b6:	4798      	blx	r3
    82b8:	bd08      	pop	{r3, pc}
    82ba:	bf00      	nop
    82bc:	00008285 	.word	0x00008285
    82c0:	20000e70 	.word	0x20000e70
    82c4:	000044f9 	.word	0x000044f9
    82c8:	00008109 	.word	0x00008109

000082cc <USB_0_PORT_init>:
    82cc:	4b1e      	ldr	r3, [pc, #120]	; (8348 <USB_0_PORT_init+0x7c>)
    82ce:	f04f 7280 	mov.w	r2, #16777216	; 0x1000000
    82d2:	609a      	str	r2, [r3, #8]
    82d4:	f04f 4180 	mov.w	r1, #1073741824	; 0x40000000
    82d8:	6299      	str	r1, [r3, #40]	; 0x28
    82da:	481c      	ldr	r0, [pc, #112]	; (834c <USB_0_PORT_init+0x80>)
    82dc:	6298      	str	r0, [r3, #40]	; 0x28
    82de:	615a      	str	r2, [r3, #20]
    82e0:	f893 2058 	ldrb.w	r2, [r3, #88]	; 0x58
    82e4:	f002 02fb 	and.w	r2, r2, #251	; 0xfb
    82e8:	f883 2058 	strb.w	r2, [r3, #88]	; 0x58
    82ec:	f893 2058 	ldrb.w	r2, [r3, #88]	; 0x58
    82f0:	f002 02fe 	and.w	r2, r2, #254	; 0xfe
    82f4:	f042 0201 	orr.w	r2, r2, #1
    82f8:	f883 2058 	strb.w	r2, [r3, #88]	; 0x58
    82fc:	f893 203c 	ldrb.w	r2, [r3, #60]	; 0x3c
    8300:	f002 02f0 	and.w	r2, r2, #240	; 0xf0
    8304:	f042 0207 	orr.w	r2, r2, #7
    8308:	f883 203c 	strb.w	r2, [r3, #60]	; 0x3c
    830c:	f04f 7200 	mov.w	r2, #33554432	; 0x2000000
    8310:	609a      	str	r2, [r3, #8]
    8312:	6299      	str	r1, [r3, #40]	; 0x28
    8314:	490e      	ldr	r1, [pc, #56]	; (8350 <USB_0_PORT_init+0x84>)
    8316:	6299      	str	r1, [r3, #40]	; 0x28
    8318:	615a      	str	r2, [r3, #20]
    831a:	f893 2059 	ldrb.w	r2, [r3, #89]	; 0x59
    831e:	f002 02fb 	and.w	r2, r2, #251	; 0xfb
    8322:	f883 2059 	strb.w	r2, [r3, #89]	; 0x59
    8326:	f893 2059 	ldrb.w	r2, [r3, #89]	; 0x59
    832a:	f002 02fe 	and.w	r2, r2, #254	; 0xfe
    832e:	f042 0201 	orr.w	r2, r2, #1
    8332:	f883 2059 	strb.w	r2, [r3, #89]	; 0x59
    8336:	f893 203c 	ldrb.w	r2, [r3, #60]	; 0x3c
    833a:	f002 020f 	and.w	r2, r2, #15
    833e:	f042 0270 	orr.w	r2, r2, #112	; 0x70
    8342:	f883 203c 	strb.w	r2, [r3, #60]	; 0x3c
    8346:	4770      	bx	lr
    8348:	41008000 	.word	0x41008000
    834c:	c0000100 	.word	0xc0000100
    8350:	c0000200 	.word	0xc0000200

00008354 <USB_0_CLOCK_init>:
    8354:	2240      	movs	r2, #64	; 0x40
    8356:	4b07      	ldr	r3, [pc, #28]	; (8374 <USB_0_CLOCK_init+0x20>)
    8358:	f8c3 20a8 	str.w	r2, [r3, #168]	; 0xa8
    835c:	f5a3 53a0 	sub.w	r3, r3, #5120	; 0x1400
    8360:	691a      	ldr	r2, [r3, #16]
    8362:	f442 6280 	orr.w	r2, r2, #1024	; 0x400
    8366:	611a      	str	r2, [r3, #16]
    8368:	699a      	ldr	r2, [r3, #24]
    836a:	f042 0201 	orr.w	r2, r2, #1
    836e:	619a      	str	r2, [r3, #24]
    8370:	4770      	bx	lr
    8372:	bf00      	nop
    8374:	40001c00 	.word	0x40001c00

00008378 <USB_0_init>:
    8378:	b508      	push	{r3, lr}
    837a:	4b03      	ldr	r3, [pc, #12]	; (8388 <USB_0_init+0x10>)
    837c:	4798      	blx	r3
    837e:	4b03      	ldr	r3, [pc, #12]	; (838c <USB_0_init+0x14>)
    8380:	4798      	blx	r3
    8382:	4b03      	ldr	r3, [pc, #12]	; (8390 <USB_0_init+0x18>)
    8384:	4798      	blx	r3
    8386:	bd08      	pop	{r3, pc}
    8388:	00008355 	.word	0x00008355
    838c:	000049c1 	.word	0x000049c1
    8390:	000082cd 	.word	0x000082cd

00008394 <system_init>:
    8394:	b5f8      	push	{r3, r4, r5, r6, r7, lr}
    8396:	4b8b      	ldr	r3, [pc, #556]	; (85c4 <system_init+0x230>)
    8398:	4798      	blx	r3
    839a:	4b8b      	ldr	r3, [pc, #556]	; (85c8 <system_init+0x234>)
    839c:	2204      	movs	r2, #4
    839e:	619a      	str	r2, [r3, #24]
    83a0:	609a      	str	r2, [r3, #8]
    83a2:	f102 4280 	add.w	r2, r2, #1073741824	; 0x40000000
    83a6:	629a      	str	r2, [r3, #40]	; 0x28
    83a8:	f04f 4140 	mov.w	r1, #3221225472	; 0xc0000000
    83ac:	6299      	str	r1, [r3, #40]	; 0x28
    83ae:	f893 2042 	ldrb.w	r2, [r3, #66]	; 0x42
    83b2:	f002 02fe 	and.w	r2, r2, #254	; 0xfe
    83b6:	f883 2042 	strb.w	r2, [r3, #66]	; 0x42
    83ba:	2208      	movs	r2, #8
    83bc:	619a      	str	r2, [r3, #24]
    83be:	609a      	str	r2, [r3, #8]
    83c0:	f102 4280 	add.w	r2, r2, #1073741824	; 0x40000000
    83c4:	629a      	str	r2, [r3, #40]	; 0x28
    83c6:	6299      	str	r1, [r3, #40]	; 0x28
    83c8:	f893 2043 	ldrb.w	r2, [r3, #67]	; 0x43
    83cc:	f002 02fe 	and.w	r2, r2, #254	; 0xfe
    83d0:	f883 2043 	strb.w	r2, [r3, #67]	; 0x43
    83d4:	2440      	movs	r4, #64	; 0x40
    83d6:	605c      	str	r4, [r3, #4]
    83d8:	4a7c      	ldr	r2, [pc, #496]	; (85cc <system_init+0x238>)
    83da:	629a      	str	r2, [r3, #40]	; 0x28
    83dc:	4a7c      	ldr	r2, [pc, #496]	; (85d0 <system_init+0x23c>)
    83de:	629a      	str	r2, [r3, #40]	; 0x28
    83e0:	f893 2046 	ldrb.w	r2, [r3, #70]	; 0x46
    83e4:	f002 02fb 	and.w	r2, r2, #251	; 0xfb
    83e8:	f883 2046 	strb.w	r2, [r3, #70]	; 0x46
    83ec:	f893 2046 	ldrb.w	r2, [r3, #70]	; 0x46
    83f0:	f002 02fe 	and.w	r2, r2, #254	; 0xfe
    83f4:	f883 2046 	strb.w	r2, [r3, #70]	; 0x46
    83f8:	f44f 2280 	mov.w	r2, #262144	; 0x40000
    83fc:	615a      	str	r2, [r3, #20]
    83fe:	609a      	str	r2, [r3, #8]
    8400:	f04f 4280 	mov.w	r2, #1073741824	; 0x40000000
    8404:	629a      	str	r2, [r3, #40]	; 0x28
    8406:	4873      	ldr	r0, [pc, #460]	; (85d4 <system_init+0x240>)
    8408:	6298      	str	r0, [r3, #40]	; 0x28
    840a:	f893 0052 	ldrb.w	r0, [r3, #82]	; 0x52
    840e:	f000 00fe 	and.w	r0, r0, #254	; 0xfe
    8412:	f883 0052 	strb.w	r0, [r3, #82]	; 0x52
    8416:	f44f 1080 	mov.w	r0, #1048576	; 0x100000
    841a:	6158      	str	r0, [r3, #20]
    841c:	6098      	str	r0, [r3, #8]
    841e:	629a      	str	r2, [r3, #40]	; 0x28
    8420:	486d      	ldr	r0, [pc, #436]	; (85d8 <system_init+0x244>)
    8422:	6298      	str	r0, [r3, #40]	; 0x28
    8424:	f893 0054 	ldrb.w	r0, [r3, #84]	; 0x54
    8428:	f000 00fe 	and.w	r0, r0, #254	; 0xfe
    842c:	f883 0054 	strb.w	r0, [r3, #84]	; 0x54
    8430:	f44f 1000 	mov.w	r0, #2097152	; 0x200000
    8434:	6158      	str	r0, [r3, #20]
    8436:	6098      	str	r0, [r3, #8]
    8438:	629a      	str	r2, [r3, #40]	; 0x28
    843a:	4868      	ldr	r0, [pc, #416]	; (85dc <system_init+0x248>)
    843c:	6298      	str	r0, [r3, #40]	; 0x28
    843e:	f893 0055 	ldrb.w	r0, [r3, #85]	; 0x55
    8442:	f000 00fe 	and.w	r0, r0, #254	; 0xfe
    8446:	f883 0055 	strb.w	r0, [r3, #85]	; 0x55
    844a:	615a      	str	r2, [r3, #20]
    844c:	609a      	str	r2, [r3, #8]
    844e:	629a      	str	r2, [r3, #40]	; 0x28
    8450:	4e63      	ldr	r6, [pc, #396]	; (85e0 <system_init+0x24c>)
    8452:	629e      	str	r6, [r3, #40]	; 0x28
    8454:	f893 005e 	ldrb.w	r0, [r3, #94]	; 0x5e
    8458:	f000 00fe 	and.w	r0, r0, #254	; 0xfe
    845c:	f883 005e 	strb.w	r0, [r3, #94]	; 0x5e
    8460:	f04f 4000 	mov.w	r0, #2147483648	; 0x80000000
    8464:	6158      	str	r0, [r3, #20]
    8466:	6098      	str	r0, [r3, #8]
    8468:	629a      	str	r2, [r3, #40]	; 0x28
    846a:	4d5e      	ldr	r5, [pc, #376]	; (85e4 <system_init+0x250>)
    846c:	629d      	str	r5, [r3, #40]	; 0x28
    846e:	f893 705f 	ldrb.w	r7, [r3, #95]	; 0x5f
    8472:	f007 07fe 	and.w	r7, r7, #254	; 0xfe
    8476:	f883 705f 	strb.w	r7, [r3, #95]	; 0x5f
    847a:	2701      	movs	r7, #1
    847c:	f8c3 7094 	str.w	r7, [r3, #148]	; 0x94
    8480:	f8c3 7088 	str.w	r7, [r3, #136]	; 0x88
    8484:	f107 4780 	add.w	r7, r7, #1073741824	; 0x40000000
    8488:	f8c3 70a8 	str.w	r7, [r3, #168]	; 0xa8
    848c:	f8c3 10a8 	str.w	r1, [r3, #168]	; 0xa8
    8490:	f893 70c0 	ldrb.w	r7, [r3, #192]	; 0xc0
    8494:	f007 07fe 	and.w	r7, r7, #254	; 0xfe
    8498:	f883 70c0 	strb.w	r7, [r3, #192]	; 0xc0
    849c:	2710      	movs	r7, #16
    849e:	f8c3 7098 	str.w	r7, [r3, #152]	; 0x98
    84a2:	f8c3 7088 	str.w	r7, [r3, #136]	; 0x88
    84a6:	f107 4780 	add.w	r7, r7, #1073741824	; 0x40000000
    84aa:	f8c3 70a8 	str.w	r7, [r3, #168]	; 0xa8
    84ae:	f8c3 10a8 	str.w	r1, [r3, #168]	; 0xa8
    84b2:	f893 70c4 	ldrb.w	r7, [r3, #196]	; 0xc4
    84b6:	f007 07fe 	and.w	r7, r7, #254	; 0xfe
    84ba:	f883 70c4 	strb.w	r7, [r3, #196]	; 0xc4
    84be:	2720      	movs	r7, #32
    84c0:	f8c3 7098 	str.w	r7, [r3, #152]	; 0x98
    84c4:	f8c3 7088 	str.w	r7, [r3, #136]	; 0x88
    84c8:	f107 4780 	add.w	r7, r7, #1073741824	; 0x40000000
    84cc:	f8c3 70a8 	str.w	r7, [r3, #168]	; 0xa8
    84d0:	f8c3 10a8 	str.w	r1, [r3, #168]	; 0xa8
    84d4:	f893 70c5 	ldrb.w	r7, [r3, #197]	; 0xc5
    84d8:	f007 07fe 	and.w	r7, r7, #254	; 0xfe
    84dc:	f883 70c5 	strb.w	r7, [r3, #197]	; 0xc5
    84e0:	f8c3 4098 	str.w	r4, [r3, #152]	; 0x98
    84e4:	f8c3 4088 	str.w	r4, [r3, #136]	; 0x88
    84e8:	f104 4480 	add.w	r4, r4, #1073741824	; 0x40000000
    84ec:	f8c3 40a8 	str.w	r4, [r3, #168]	; 0xa8
    84f0:	f8c3 10a8 	str.w	r1, [r3, #168]	; 0xa8
    84f4:	f893 40c6 	ldrb.w	r4, [r3, #198]	; 0xc6
    84f8:	f004 04fe 	and.w	r4, r4, #254	; 0xfe
    84fc:	f883 40c6 	strb.w	r4, [r3, #198]	; 0xc6
    8500:	2480      	movs	r4, #128	; 0x80
    8502:	f8c3 4098 	str.w	r4, [r3, #152]	; 0x98
    8506:	f8c3 4088 	str.w	r4, [r3, #136]	; 0x88
    850a:	f104 4480 	add.w	r4, r4, #1073741824	; 0x40000000
    850e:	f8c3 40a8 	str.w	r4, [r3, #168]	; 0xa8
    8512:	f8c3 10a8 	str.w	r1, [r3, #168]	; 0xa8
    8516:	f893 40c7 	ldrb.w	r4, [r3, #199]	; 0xc7
    851a:	f004 04fe 	and.w	r4, r4, #254	; 0xfe
    851e:	f883 40c7 	strb.w	r4, [r3, #199]	; 0xc7
    8522:	f44f 7480 	mov.w	r4, #256	; 0x100
    8526:	f8c3 4098 	str.w	r4, [r3, #152]	; 0x98
    852a:	f8c3 4088 	str.w	r4, [r3, #136]	; 0x88
    852e:	f104 4480 	add.w	r4, r4, #1073741824	; 0x40000000
    8532:	f8c3 40a8 	str.w	r4, [r3, #168]	; 0xa8
    8536:	f8c3 10a8 	str.w	r1, [r3, #168]	; 0xa8
    853a:	f893 40c8 	ldrb.w	r4, [r3, #200]	; 0xc8
    853e:	f004 04fe 	and.w	r4, r4, #254	; 0xfe
    8542:	f883 40c8 	strb.w	r4, [r3, #200]	; 0xc8
    8546:	f44f 7400 	mov.w	r4, #512	; 0x200
    854a:	f8c3 4098 	str.w	r4, [r3, #152]	; 0x98
    854e:	f8c3 4088 	str.w	r4, [r3, #136]	; 0x88
    8552:	f104 4480 	add.w	r4, r4, #1073741824	; 0x40000000
    8556:	f8c3 40a8 	str.w	r4, [r3, #168]	; 0xa8
    855a:	f8c3 10a8 	str.w	r1, [r3, #168]	; 0xa8
    855e:	f893 10c9 	ldrb.w	r1, [r3, #201]	; 0xc9
    8562:	f001 01fe 	and.w	r1, r1, #254	; 0xfe
    8566:	f883 10c9 	strb.w	r1, [r3, #201]	; 0xc9
    856a:	f8c3 2094 	str.w	r2, [r3, #148]	; 0x94
    856e:	f8c3 2088 	str.w	r2, [r3, #136]	; 0x88
    8572:	f8c3 20a8 	str.w	r2, [r3, #168]	; 0xa8
    8576:	f8c3 60a8 	str.w	r6, [r3, #168]	; 0xa8
    857a:	f893 10de 	ldrb.w	r1, [r3, #222]	; 0xde
    857e:	f001 01fe 	and.w	r1, r1, #254	; 0xfe
    8582:	f883 10de 	strb.w	r1, [r3, #222]	; 0xde
    8586:	f8c3 0094 	str.w	r0, [r3, #148]	; 0x94
    858a:	f8c3 0088 	str.w	r0, [r3, #136]	; 0x88
    858e:	f8c3 20a8 	str.w	r2, [r3, #168]	; 0xa8
    8592:	f8c3 50a8 	str.w	r5, [r3, #168]	; 0xa8
    8596:	f893 20df 	ldrb.w	r2, [r3, #223]	; 0xdf
    859a:	f002 02fe 	and.w	r2, r2, #254	; 0xfe
    859e:	f883 20df 	strb.w	r2, [r3, #223]	; 0xdf
    85a2:	4b11      	ldr	r3, [pc, #68]	; (85e8 <system_init+0x254>)
    85a4:	4798      	blx	r3
    85a6:	4b11      	ldr	r3, [pc, #68]	; (85ec <system_init+0x258>)
    85a8:	4798      	blx	r3
    85aa:	4b11      	ldr	r3, [pc, #68]	; (85f0 <system_init+0x25c>)
    85ac:	4798      	blx	r3
    85ae:	4b11      	ldr	r3, [pc, #68]	; (85f4 <system_init+0x260>)
    85b0:	4798      	blx	r3
    85b2:	4b11      	ldr	r3, [pc, #68]	; (85f8 <system_init+0x264>)
    85b4:	4798      	blx	r3
    85b6:	4b11      	ldr	r3, [pc, #68]	; (85fc <system_init+0x268>)
    85b8:	4798      	blx	r3
    85ba:	4b11      	ldr	r3, [pc, #68]	; (8600 <system_init+0x26c>)
    85bc:	4798      	blx	r3
    85be:	4b11      	ldr	r3, [pc, #68]	; (8604 <system_init+0x270>)
    85c0:	4798      	blx	r3
    85c2:	bdf8      	pop	{r3, r4, r5, r6, r7, pc}
    85c4:	00004f51 	.word	0x00004f51
    85c8:	41008000 	.word	0x41008000
    85cc:	40020040 	.word	0x40020040
    85d0:	c0020000 	.word	0xc0020000
    85d4:	c0000004 	.word	0xc0000004
    85d8:	c0000010 	.word	0xc0000010
    85dc:	c0000020 	.word	0xc0000020
    85e0:	c0004000 	.word	0xc0004000
    85e4:	c0008000 	.word	0xc0008000
    85e8:	00007c15 	.word	0x00007c15
    85ec:	00007c41 	.word	0x00007c41
    85f0:	00007ead 	.word	0x00007ead
    85f4:	00007f3d 	.word	0x00007f3d
    85f8:	00008039 	.word	0x00008039
    85fc:	000080e1 	.word	0x000080e1
    8600:	000082a5 	.word	0x000082a5
    8604:	00008379 	.word	0x00008379

00008608 <_Z14testBMIGyroSpiv>:
    8608:	b570      	push	{r4, r5, r6, lr}
    860a:	b086      	sub	sp, #24
    860c:	2380      	movs	r3, #128	; 0x80
    860e:	f88d 3004 	strb.w	r3, [sp, #4]
    8612:	2300      	movs	r3, #0
    8614:	f88d 3005 	strb.w	r3, [sp, #5]
    8618:	f88d 3008 	strb.w	r3, [sp, #8]
    861c:	f88d 3009 	strb.w	r3, [sp, #9]
    8620:	2302      	movs	r3, #2
    8622:	9305      	str	r3, [sp, #20]
    8624:	ab01      	add	r3, sp, #4
    8626:	9303      	str	r3, [sp, #12]
    8628:	ab02      	add	r3, sp, #8
    862a:	9304      	str	r3, [sp, #16]
    862c:	4c11      	ldr	r4, [pc, #68]	; (8674 <_Z14testBMIGyroSpiv+0x6c>)
    862e:	4620      	mov	r0, r4
    8630:	4b11      	ldr	r3, [pc, #68]	; (8678 <_Z14testBMIGyroSpiv+0x70>)
    8632:	4798      	blx	r3
    8634:	4620      	mov	r0, r4
    8636:	2103      	movs	r1, #3
    8638:	4b10      	ldr	r3, [pc, #64]	; (867c <_Z14testBMIGyroSpiv+0x74>)
    863a:	4798      	blx	r3
    863c:	4620      	mov	r0, r4
    863e:	4b10      	ldr	r3, [pc, #64]	; (8680 <_Z14testBMIGyroSpiv+0x78>)
    8640:	4798      	blx	r3
    8642:	4d10      	ldr	r5, [pc, #64]	; (8684 <_Z14testBMIGyroSpiv+0x7c>)
    8644:	f44f 7680 	mov.w	r6, #256	; 0x100
    8648:	f8c5 6094 	str.w	r6, [r5, #148]	; 0x94
    864c:	4620      	mov	r0, r4
    864e:	a903      	add	r1, sp, #12
    8650:	4b0d      	ldr	r3, [pc, #52]	; (8688 <_Z14testBMIGyroSpiv+0x80>)
    8652:	4798      	blx	r3
    8654:	f8c5 6098 	str.w	r6, [r5, #152]	; 0x98
    8658:	9b04      	ldr	r3, [sp, #16]
    865a:	480c      	ldr	r0, [pc, #48]	; (868c <_Z14testBMIGyroSpiv+0x84>)
    865c:	7819      	ldrb	r1, [r3, #0]
    865e:	785a      	ldrb	r2, [r3, #1]
    8660:	4b0b      	ldr	r3, [pc, #44]	; (8690 <_Z14testBMIGyroSpiv+0x88>)
    8662:	4798      	blx	r3
    8664:	9b04      	ldr	r3, [sp, #16]
    8666:	7858      	ldrb	r0, [r3, #1]
    8668:	280f      	cmp	r0, #15
    866a:	bf14      	ite	ne
    866c:	2000      	movne	r0, #0
    866e:	2001      	moveq	r0, #1
    8670:	b006      	add	sp, #24
    8672:	bd70      	pop	{r4, r5, r6, pc}
    8674:	20000e88 	.word	0x20000e88
    8678:	000045a1 	.word	0x000045a1
    867c:	000045c9 	.word	0x000045c9
    8680:	00004579 	.word	0x00004579
    8684:	41008000 	.word	0x41008000
    8688:	000045f5 	.word	0x000045f5
    868c:	000115b0 	.word	0x000115b0
    8690:	0000b6ad 	.word	0x0000b6ad

00008694 <_Z15testBMIAccelSpiv>:
    8694:	b570      	push	{r4, r5, r6, lr}
    8696:	b086      	sub	sp, #24
    8698:	2380      	movs	r3, #128	; 0x80
    869a:	f88d 3004 	strb.w	r3, [sp, #4]
    869e:	2300      	movs	r3, #0
    86a0:	f88d 3005 	strb.w	r3, [sp, #5]
    86a4:	f88d 3006 	strb.w	r3, [sp, #6]
    86a8:	f88d 3008 	strb.w	r3, [sp, #8]
    86ac:	f88d 3009 	strb.w	r3, [sp, #9]
    86b0:	f88d 300a 	strb.w	r3, [sp, #10]
    86b4:	2503      	movs	r5, #3
    86b6:	9505      	str	r5, [sp, #20]
    86b8:	ab01      	add	r3, sp, #4
    86ba:	9303      	str	r3, [sp, #12]
    86bc:	ab02      	add	r3, sp, #8
    86be:	9304      	str	r3, [sp, #16]
    86c0:	4c12      	ldr	r4, [pc, #72]	; (870c <_Z15testBMIAccelSpiv+0x78>)
    86c2:	4620      	mov	r0, r4
    86c4:	4b12      	ldr	r3, [pc, #72]	; (8710 <_Z15testBMIAccelSpiv+0x7c>)
    86c6:	4798      	blx	r3
    86c8:	4620      	mov	r0, r4
    86ca:	4629      	mov	r1, r5
    86cc:	4b11      	ldr	r3, [pc, #68]	; (8714 <_Z15testBMIAccelSpiv+0x80>)
    86ce:	4798      	blx	r3
    86d0:	4620      	mov	r0, r4
    86d2:	4b11      	ldr	r3, [pc, #68]	; (8718 <_Z15testBMIAccelSpiv+0x84>)
    86d4:	4798      	blx	r3
    86d6:	4d11      	ldr	r5, [pc, #68]	; (871c <_Z15testBMIAccelSpiv+0x88>)
    86d8:	f44f 7600 	mov.w	r6, #512	; 0x200
    86dc:	f8c5 6094 	str.w	r6, [r5, #148]	; 0x94
    86e0:	4620      	mov	r0, r4
    86e2:	a903      	add	r1, sp, #12
    86e4:	4b0e      	ldr	r3, [pc, #56]	; (8720 <_Z15testBMIAccelSpiv+0x8c>)
    86e6:	4798      	blx	r3
    86e8:	f8c5 6098 	str.w	r6, [r5, #152]	; 0x98
    86ec:	9b04      	ldr	r3, [sp, #16]
    86ee:	480d      	ldr	r0, [pc, #52]	; (8724 <_Z15testBMIAccelSpiv+0x90>)
    86f0:	7819      	ldrb	r1, [r3, #0]
    86f2:	785a      	ldrb	r2, [r3, #1]
    86f4:	789b      	ldrb	r3, [r3, #2]
    86f6:	4c0c      	ldr	r4, [pc, #48]	; (8728 <_Z15testBMIAccelSpiv+0x94>)
    86f8:	47a0      	blx	r4
    86fa:	9b04      	ldr	r3, [sp, #16]
    86fc:	7898      	ldrb	r0, [r3, #2]
    86fe:	281e      	cmp	r0, #30
    8700:	bf14      	ite	ne
    8702:	2000      	movne	r0, #0
    8704:	2001      	moveq	r0, #1
    8706:	b006      	add	sp, #24
    8708:	bd70      	pop	{r4, r5, r6, pc}
    870a:	bf00      	nop
    870c:	20000e88 	.word	0x20000e88
    8710:	000045a1 	.word	0x000045a1
    8714:	000045c9 	.word	0x000045c9
    8718:	00004579 	.word	0x00004579
    871c:	41008000 	.word	0x41008000
    8720:	000045f5 	.word	0x000045f5
    8724:	000115d4 	.word	0x000115d4
    8728:	0000b6ad 	.word	0x0000b6ad
    872c:	00000000 	.word	0x00000000

00008730 <_ZNK18ArduinoJson691_11011VariantData6acceptINS_14JsonSerializerINS_18StaticStringWriterEEEEEvRT_>:
    8730:	e92d 4ff0 	stmdb	sp!, {r4, r5, r6, r7, r8, r9, sl, fp, lr}
    8734:	ed2d 8b10 	vpush	{d8-d15}
    8738:	b089      	sub	sp, #36	; 0x24
    873a:	460c      	mov	r4, r1
    873c:	7a03      	ldrb	r3, [r0, #8]
    873e:	f003 037f 	and.w	r3, r3, #127	; 0x7f
    8742:	3b01      	subs	r3, #1
    8744:	2b3f      	cmp	r3, #63	; 0x3f
    8746:	f200 868c 	bhi.w	9462 <_ZNK18ArduinoJson691_11011VariantData6acceptINS_14JsonSerializerINS_18StaticStringWriterEEEEEvRT_+0xd32>
    874a:	e8df f013 	tbh	[pc, r3, lsl #1]
    874e:	0590      	.short	0x0590
    8750:	050b0590 	.word	0x050b0590
    8754:	064b050b 	.word	0x064b050b
    8758:	05b1060b 	.word	0x05b1060b
    875c:	068a0040 	.word	0x068a0040
    8760:	068a068a 	.word	0x068a068a
    8764:	068a068a 	.word	0x068a068a
    8768:	068a068a 	.word	0x068a068a
    876c:	068a068a 	.word	0x068a068a
    8770:	068a068a 	.word	0x068a068a
    8774:	068a068a 	.word	0x068a068a
    8778:	068a068a 	.word	0x068a068a
    877c:	068a068a 	.word	0x068a068a
    8780:	068a068a 	.word	0x068a068a
    8784:	068a068a 	.word	0x068a068a
    8788:	068a068a 	.word	0x068a068a
    878c:	068a041e 	.word	0x068a041e
    8790:	068a068a 	.word	0x068a068a
    8794:	068a068a 	.word	0x068a068a
    8798:	068a068a 	.word	0x068a068a
    879c:	068a068a 	.word	0x068a068a
    87a0:	068a068a 	.word	0x068a068a
    87a4:	068a068a 	.word	0x068a068a
    87a8:	068a068a 	.word	0x068a068a
    87ac:	068a068a 	.word	0x068a068a
    87b0:	068a068a 	.word	0x068a068a
    87b4:	068a068a 	.word	0x068a068a
    87b8:	068a068a 	.word	0x068a068a
    87bc:	068a068a 	.word	0x068a068a
    87c0:	068a068a 	.word	0x068a068a
    87c4:	068a068a 	.word	0x068a068a
    87c8:	068a068a 	.word	0x068a068a
    87cc:	03dc      	.short	0x03dc
    87ce:	ed90 8b00 	vldr	d8, [r0]
    87d2:	eeb0 0a48 	vmov.f32	s0, s16
    87d6:	eef0 0a68 	vmov.f32	s1, s17
    87da:	4b8f      	ldr	r3, [pc, #572]	; (8a18 <_ZNK18ArduinoJson691_11011VariantData6acceptINS_14JsonSerializerINS_18StaticStringWriterEEEEEvRT_+0x2e8>)
    87dc:	4798      	blx	r3
    87de:	b9e8      	cbnz	r0, 881c <_ZNK18ArduinoJson691_11011VariantData6acceptINS_14JsonSerializerINS_18StaticStringWriterEEEEEvRT_+0xec>
    87e0:	6822      	ldr	r2, [r4, #0]
    87e2:	6850      	ldr	r0, [r2, #4]
    87e4:	6813      	ldr	r3, [r2, #0]
    87e6:	4298      	cmp	r0, r3
    87e8:	d20e      	bcs.n	8808 <_ZNK18ArduinoJson691_11011VariantData6acceptINS_14JsonSerializerINS_18StaticStringWriterEEEEEvRT_+0xd8>
    87ea:	498c      	ldr	r1, [pc, #560]	; (8a1c <_ZNK18ArduinoJson691_11011VariantData6acceptINS_14JsonSerializerINS_18StaticStringWriterEEEEEvRT_+0x2ec>)
    87ec:	1cce      	adds	r6, r1, #3
    87ee:	4603      	mov	r3, r0
    87f0:	1c5d      	adds	r5, r3, #1
    87f2:	6055      	str	r5, [r2, #4]
    87f4:	f811 5f01 	ldrb.w	r5, [r1, #1]!
    87f8:	701d      	strb	r5, [r3, #0]
    87fa:	6853      	ldr	r3, [r2, #4]
    87fc:	6815      	ldr	r5, [r2, #0]
    87fe:	42ab      	cmp	r3, r5
    8800:	d203      	bcs.n	880a <_ZNK18ArduinoJson691_11011VariantData6acceptINS_14JsonSerializerINS_18StaticStringWriterEEEEEvRT_+0xda>
    8802:	42b1      	cmp	r1, r6
    8804:	d1f4      	bne.n	87f0 <_ZNK18ArduinoJson691_11011VariantData6acceptINS_14JsonSerializerINS_18StaticStringWriterEEEEEvRT_+0xc0>
    8806:	e000      	b.n	880a <_ZNK18ArduinoJson691_11011VariantData6acceptINS_14JsonSerializerINS_18StaticStringWriterEEEEEvRT_+0xda>
    8808:	4603      	mov	r3, r0
    880a:	2100      	movs	r1, #0
    880c:	7019      	strb	r1, [r3, #0]
    880e:	6853      	ldr	r3, [r2, #4]
    8810:	1a18      	subs	r0, r3, r0
    8812:	6863      	ldr	r3, [r4, #4]
    8814:	4403      	add	r3, r0
    8816:	6063      	str	r3, [r4, #4]
    8818:	f000 be6c 	b.w	94f4 <_ZNK18ArduinoJson691_11011VariantData6acceptINS_14JsonSerializerINS_18StaticStringWriterEEEEEvRT_+0xdc4>
    881c:	ec51 0b18 	vmov	r0, r1, d8
    8820:	2200      	movs	r2, #0
    8822:	2300      	movs	r3, #0
    8824:	4d7e      	ldr	r5, [pc, #504]	; (8a20 <_ZNK18ArduinoJson691_11011VariantData6acceptINS_14JsonSerializerINS_18StaticStringWriterEEEEEvRT_+0x2f0>)
    8826:	47a8      	blx	r5
    8828:	b1c8      	cbz	r0, 885e <_ZNK18ArduinoJson691_11011VariantData6acceptINS_14JsonSerializerINS_18StaticStringWriterEEEEEvRT_+0x12e>
    882a:	6823      	ldr	r3, [r4, #0]
    882c:	685a      	ldr	r2, [r3, #4]
    882e:	6819      	ldr	r1, [r3, #0]
    8830:	428a      	cmp	r2, r1
    8832:	d208      	bcs.n	8846 <_ZNK18ArduinoJson691_11011VariantData6acceptINS_14JsonSerializerINS_18StaticStringWriterEEEEEvRT_+0x116>
    8834:	1c51      	adds	r1, r2, #1
    8836:	6059      	str	r1, [r3, #4]
    8838:	212d      	movs	r1, #45	; 0x2d
    883a:	7011      	strb	r1, [r2, #0]
    883c:	685b      	ldr	r3, [r3, #4]
    883e:	2200      	movs	r2, #0
    8840:	701a      	strb	r2, [r3, #0]
    8842:	2301      	movs	r3, #1
    8844:	e000      	b.n	8848 <_ZNK18ArduinoJson691_11011VariantData6acceptINS_14JsonSerializerINS_18StaticStringWriterEEEEEvRT_+0x118>
    8846:	2300      	movs	r3, #0
    8848:	6862      	ldr	r2, [r4, #4]
    884a:	4413      	add	r3, r2
    884c:	6063      	str	r3, [r4, #4]
    884e:	ee18 2a10 	vmov	r2, s16
    8852:	ee18 7a90 	vmov	r7, s17
    8856:	f107 4300 	add.w	r3, r7, #2147483648	; 0x80000000
    885a:	ec43 2b18 	vmov	d8, r2, r3
    885e:	eeb0 0a48 	vmov.f32	s0, s16
    8862:	eef0 0a68 	vmov.f32	s1, s17
    8866:	4b6c      	ldr	r3, [pc, #432]	; (8a18 <_ZNK18ArduinoJson691_11011VariantData6acceptINS_14JsonSerializerINS_18StaticStringWriterEEEEEvRT_+0x2e8>)
    8868:	4798      	blx	r3
    886a:	2801      	cmp	r0, #1
    886c:	d11e      	bne.n	88ac <_ZNK18ArduinoJson691_11011VariantData6acceptINS_14JsonSerializerINS_18StaticStringWriterEEEEEvRT_+0x17c>
    886e:	6823      	ldr	r3, [r4, #0]
    8870:	6859      	ldr	r1, [r3, #4]
    8872:	681a      	ldr	r2, [r3, #0]
    8874:	4291      	cmp	r1, r2
    8876:	d20f      	bcs.n	8898 <_ZNK18ArduinoJson691_11011VariantData6acceptINS_14JsonSerializerINS_18StaticStringWriterEEEEEvRT_+0x168>
    8878:	486a      	ldr	r0, [pc, #424]	; (8a24 <_ZNK18ArduinoJson691_11011VariantData6acceptINS_14JsonSerializerINS_18StaticStringWriterEEEEEvRT_+0x2f4>)
    887a:	f100 0608 	add.w	r6, r0, #8
    887e:	460a      	mov	r2, r1
    8880:	1c55      	adds	r5, r2, #1
    8882:	605d      	str	r5, [r3, #4]
    8884:	f810 5f01 	ldrb.w	r5, [r0, #1]!
    8888:	7015      	strb	r5, [r2, #0]
    888a:	685a      	ldr	r2, [r3, #4]
    888c:	681d      	ldr	r5, [r3, #0]
    888e:	42aa      	cmp	r2, r5
    8890:	d203      	bcs.n	889a <_ZNK18ArduinoJson691_11011VariantData6acceptINS_14JsonSerializerINS_18StaticStringWriterEEEEEvRT_+0x16a>
    8892:	42b0      	cmp	r0, r6
    8894:	d1f4      	bne.n	8880 <_ZNK18ArduinoJson691_11011VariantData6acceptINS_14JsonSerializerINS_18StaticStringWriterEEEEEvRT_+0x150>
    8896:	e000      	b.n	889a <_ZNK18ArduinoJson691_11011VariantData6acceptINS_14JsonSerializerINS_18StaticStringWriterEEEEEvRT_+0x16a>
    8898:	460a      	mov	r2, r1
    889a:	2000      	movs	r0, #0
    889c:	7010      	strb	r0, [r2, #0]
    889e:	685b      	ldr	r3, [r3, #4]
    88a0:	1a59      	subs	r1, r3, r1
    88a2:	6863      	ldr	r3, [r4, #4]
    88a4:	440b      	add	r3, r1
    88a6:	6063      	str	r3, [r4, #4]
    88a8:	f000 be24 	b.w	94f4 <_ZNK18ArduinoJson691_11011VariantData6acceptINS_14JsonSerializerINS_18StaticStringWriterEEEEEvRT_+0xdc4>
    88ac:	ec51 0b18 	vmov	r0, r1, d8
    88b0:	a33d      	add	r3, pc, #244	; (adr r3, 89a8 <_ZNK18ArduinoJson691_11011VariantData6acceptINS_14JsonSerializerINS_18StaticStringWriterEEEEEvRT_+0x278>)
    88b2:	e9d3 2300 	ldrd	r2, r3, [r3]
    88b6:	4d5c      	ldr	r5, [pc, #368]	; (8a28 <_ZNK18ArduinoJson691_11011VariantData6acceptINS_14JsonSerializerINS_18StaticStringWriterEEEEEvRT_+0x2f8>)
    88b8:	47a8      	blx	r5
    88ba:	2800      	cmp	r0, #0
    88bc:	f000 80c6 	beq.w	8a4c <_ZNK18ArduinoJson691_11011VariantData6acceptINS_14JsonSerializerINS_18StaticStringWriterEEEEEvRT_+0x31c>
    88c0:	4b5a      	ldr	r3, [pc, #360]	; (8a2c <_ZNK18ArduinoJson691_11011VariantData6acceptINS_14JsonSerializerINS_18StaticStringWriterEEEEEvRT_+0x2fc>)
    88c2:	f8d3 8000 	ldr.w	r8, [r3]
    88c6:	4b5a      	ldr	r3, [pc, #360]	; (8a30 <_ZNK18ArduinoJson691_11011VariantData6acceptINS_14JsonSerializerINS_18StaticStringWriterEEEEEvRT_+0x300>)
    88c8:	681f      	ldr	r7, [r3, #0]
    88ca:	f8df 9178 	ldr.w	r9, [pc, #376]	; 8a44 <_ZNK18ArduinoJson691_11011VariantData6acceptINS_14JsonSerializerINS_18StaticStringWriterEEEEEvRT_+0x314>
    88ce:	4d59      	ldr	r5, [pc, #356]	; (8a34 <_ZNK18ArduinoJson691_11011VariantData6acceptINS_14JsonSerializerINS_18StaticStringWriterEEEEEvRT_+0x304>)
    88d0:	f1a5 0a48 	sub.w	sl, r5, #72	; 0x48
    88d4:	f04f 0b00 	mov.w	fp, #0
    88d8:	f44f 7680 	mov.w	r6, #256	; 0x100
    88dc:	ed9f cb34 	vldr	d12, [pc, #208]	; 89b0 <_ZNK18ArduinoJson691_11011VariantData6acceptINS_14JsonSerializerINS_18StaticStringWriterEEEEEvRT_+0x280>
    88e0:	ed9f bb35 	vldr	d11, [pc, #212]	; 89b8 <_ZNK18ArduinoJson691_11011VariantData6acceptINS_14JsonSerializerINS_18StaticStringWriterEEEEEvRT_+0x288>
    88e4:	ed9f ab36 	vldr	d10, [pc, #216]	; 89c0 <_ZNK18ArduinoJson691_11011VariantData6acceptINS_14JsonSerializerINS_18StaticStringWriterEEEEEvRT_+0x290>
    88e8:	ed9f 9b37 	vldr	d9, [pc, #220]	; 89c8 <_ZNK18ArduinoJson691_11011VariantData6acceptINS_14JsonSerializerINS_18StaticStringWriterEEEEEvRT_+0x298>
    88ec:	ed9f db38 	vldr	d13, [pc, #224]	; 89d0 <_ZNK18ArduinoJson691_11011VariantData6acceptINS_14JsonSerializerINS_18StaticStringWriterEEEEEvRT_+0x2a0>
    88f0:	ed9f eb39 	vldr	d14, [pc, #228]	; 89d8 <_ZNK18ArduinoJson691_11011VariantData6acceptINS_14JsonSerializerINS_18StaticStringWriterEEEEEvRT_+0x2a8>
    88f4:	ed9f fb3a 	vldr	d15, [pc, #232]	; 89e0 <_ZNK18ArduinoJson691_11011VariantData6acceptINS_14JsonSerializerINS_18StaticStringWriterEEEEEvRT_+0x2b0>
    88f8:	f018 0f01 	tst.w	r8, #1
    88fc:	d10a      	bne.n	8914 <_ZNK18ArduinoJson691_11011VariantData6acceptINS_14JsonSerializerINS_18StaticStringWriterEEEEEvRT_+0x1e4>
    88fe:	4b4e      	ldr	r3, [pc, #312]	; (8a38 <_ZNK18ArduinoJson691_11011VariantData6acceptINS_14JsonSerializerINS_18StaticStringWriterEEEEEvRT_+0x308>)
    8900:	ed83 cb0a 	vstr	d12, [r3, #40]	; 0x28
    8904:	ed83 bb0c 	vstr	d11, [r3, #48]	; 0x30
    8908:	ed83 ab0e 	vstr	d10, [r3, #56]	; 0x38
    890c:	ed83 9b10 	vstr	d9, [r3, #64]	; 0x40
    8910:	f04f 0801 	mov.w	r8, #1
    8914:	e979 0102 	ldrd	r0, r1, [r9, #-8]!
    8918:	ec53 2b18 	vmov	r2, r3, d8
    891c:	f8df c120 	ldr.w	ip, [pc, #288]	; 8a40 <_ZNK18ArduinoJson691_11011VariantData6acceptINS_14JsonSerializerINS_18StaticStringWriterEEEEEvRT_+0x310>
    8920:	47e0      	blx	ip
    8922:	2800      	cmp	r0, #0
    8924:	d034      	beq.n	8990 <_ZNK18ArduinoJson691_11011VariantData6acceptINS_14JsonSerializerINS_18StaticStringWriterEEEEEvRT_+0x260>
    8926:	f017 0f01 	tst.w	r7, #1
    892a:	d125      	bne.n	8978 <_ZNK18ArduinoJson691_11011VariantData6acceptINS_14JsonSerializerINS_18StaticStringWriterEEEEEvRT_+0x248>
    892c:	4943      	ldr	r1, [pc, #268]	; (8a3c <_ZNK18ArduinoJson691_11011VariantData6acceptINS_14JsonSerializerINS_18StaticStringWriterEEEEEvRT_+0x30c>)
    892e:	ed81 db00 	vstr	d13, [r1]
    8932:	ed81 eb02 	vstr	d14, [r1, #8]
    8936:	ed81 fb04 	vstr	d15, [r1, #16]
    893a:	a32b      	add	r3, pc, #172	; (adr r3, 89e8 <_ZNK18ArduinoJson691_11011VariantData6acceptINS_14JsonSerializerINS_18StaticStringWriterEEEEEvRT_+0x2b8>)
    893c:	e9d3 2300 	ldrd	r2, r3, [r3]
    8940:	e9c1 2306 	strd	r2, r3, [r1, #24]
    8944:	a32a      	add	r3, pc, #168	; (adr r3, 89f0 <_ZNK18ArduinoJson691_11011VariantData6acceptINS_14JsonSerializerINS_18StaticStringWriterEEEEEvRT_+0x2c0>)
    8946:	e9d3 2300 	ldrd	r2, r3, [r3]
    894a:	e9c1 2308 	strd	r2, r3, [r1, #32]
    894e:	a32a      	add	r3, pc, #168	; (adr r3, 89f8 <_ZNK18ArduinoJson691_11011VariantData6acceptINS_14JsonSerializerINS_18StaticStringWriterEEEEEvRT_+0x2c8>)
    8950:	e9d3 2300 	ldrd	r2, r3, [r3]
    8954:	e9c1 230a 	strd	r2, r3, [r1, #40]	; 0x28
    8958:	a329      	add	r3, pc, #164	; (adr r3, 8a00 <_ZNK18ArduinoJson691_11011VariantData6acceptINS_14JsonSerializerINS_18StaticStringWriterEEEEEvRT_+0x2d0>)
    895a:	e9d3 2300 	ldrd	r2, r3, [r3]
    895e:	e9c1 230c 	strd	r2, r3, [r1, #48]	; 0x30
    8962:	a329      	add	r3, pc, #164	; (adr r3, 8a08 <_ZNK18ArduinoJson691_11011VariantData6acceptINS_14JsonSerializerINS_18StaticStringWriterEEEEEvRT_+0x2d8>)
    8964:	e9d3 2300 	ldrd	r2, r3, [r3]
    8968:	e9c1 230e 	strd	r2, r3, [r1, #56]	; 0x38
    896c:	a328      	add	r3, pc, #160	; (adr r3, 8a10 <_ZNK18ArduinoJson691_11011VariantData6acceptINS_14JsonSerializerINS_18StaticStringWriterEEEEEvRT_+0x2e0>)
    896e:	e9d3 2300 	ldrd	r2, r3, [r3]
    8972:	e9c1 2310 	strd	r2, r3, [r1, #64]	; 0x40
    8976:	2701      	movs	r7, #1
    8978:	ec51 0b18 	vmov	r0, r1, d8
    897c:	e9d5 2300 	ldrd	r2, r3, [r5]
    8980:	f8df c0c4 	ldr.w	ip, [pc, #196]	; 8a48 <_ZNK18ArduinoJson691_11011VariantData6acceptINS_14JsonSerializerINS_18StaticStringWriterEEEEEvRT_+0x318>
    8984:	47e0      	blx	ip
    8986:	ec41 0b18 	vmov	d8, r0, r1
    898a:	44b3      	add	fp, r6
    898c:	fa1f fb8b 	uxth.w	fp, fp
    8990:	1076      	asrs	r6, r6, #1
    8992:	3d08      	subs	r5, #8
    8994:	4555      	cmp	r5, sl
    8996:	d1af      	bne.n	88f8 <_ZNK18ArduinoJson691_11011VariantData6acceptINS_14JsonSerializerINS_18StaticStringWriterEEEEEvRT_+0x1c8>
    8998:	4b24      	ldr	r3, [pc, #144]	; (8a2c <_ZNK18ArduinoJson691_11011VariantData6acceptINS_14JsonSerializerINS_18StaticStringWriterEEEEEvRT_+0x2fc>)
    899a:	f8c3 8000 	str.w	r8, [r3]
    899e:	4b24      	ldr	r3, [pc, #144]	; (8a30 <_ZNK18ArduinoJson691_11011VariantData6acceptINS_14JsonSerializerINS_18StaticStringWriterEEEEEvRT_+0x300>)
    89a0:	601f      	str	r7, [r3, #0]
    89a2:	25ff      	movs	r5, #255	; 0xff
    89a4:	e057      	b.n	8a56 <_ZNK18ArduinoJson691_11011VariantData6acceptINS_14JsonSerializerINS_18StaticStringWriterEEEEEvRT_+0x326>
    89a6:	bf00      	nop
    89a8:	00000000 	.word	0x00000000
    89ac:	416312d0 	.word	0x416312d0
    89b0:	b5056e17 	.word	0xb5056e17
    89b4:	4693b8b5 	.word	0x4693b8b5
    89b8:	e93ff9f5 	.word	0xe93ff9f5
    89bc:	4d384f03 	.word	0x4d384f03
    89c0:	f9301d32 	.word	0xf9301d32
    89c4:	5a827748 	.word	0x5a827748
    89c8:	7f73bf3c 	.word	0x7f73bf3c
    89cc:	75154fdd 	.word	0x75154fdd
    89d0:	9999999a 	.word	0x9999999a
    89d4:	3fb99999 	.word	0x3fb99999
    89d8:	47ae147b 	.word	0x47ae147b
    89dc:	3f847ae1 	.word	0x3f847ae1
    89e0:	eb1c432d 	.word	0xeb1c432d
    89e4:	3f1a36e2 	.word	0x3f1a36e2
    89e8:	e2308c3a 	.word	0xe2308c3a
    89ec:	3e45798e 	.word	0x3e45798e
    89f0:	97d889bc 	.word	0x97d889bc
    89f4:	3c9cd2b2 	.word	0x3c9cd2b2
    89f8:	d5a8a733 	.word	0xd5a8a733
    89fc:	3949f623 	.word	0x3949f623
    8a00:	44f4a73d 	.word	0x44f4a73d
    8a04:	32a50ffd 	.word	0x32a50ffd
    8a08:	cf8c979d 	.word	0xcf8c979d
    8a0c:	255bba08 	.word	0x255bba08
    8a10:	64ac6f43 	.word	0x64ac6f43
    8a14:	0ac80628 	.word	0x0ac80628
    8a18:	00009fb1 	.word	0x00009fb1
    8a1c:	0001164f 	.word	0x0001164f
    8a20:	0000a859 	.word	0x0000a859
    8a24:	00011653 	.word	0x00011653
    8a28:	0000a881 	.word	0x0000a881
    8a2c:	20000d28 	.word	0x20000d28
    8a30:	20000d24 	.word	0x20000d24
    8a34:	20000d18 	.word	0x20000d18
    8a38:	20000008 	.word	0x20000008
    8a3c:	20000cd8 	.word	0x20000cd8
    8a40:	0000a86d 	.word	0x0000a86d
    8a44:	20000050 	.word	0x20000050
    8a48:	0000a375 	.word	0x0000a375
    8a4c:	f44f 7680 	mov.w	r6, #256	; 0x100
    8a50:	2508      	movs	r5, #8
    8a52:	f04f 0b00 	mov.w	fp, #0
    8a56:	ec51 0b18 	vmov	r0, r1, d8
    8a5a:	2200      	movs	r2, #0
    8a5c:	2300      	movs	r3, #0
    8a5e:	4fa8      	ldr	r7, [pc, #672]	; (8d00 <_ZNK18ArduinoJson691_11011VariantData6acceptINS_14JsonSerializerINS_18StaticStringWriterEEEEEvRT_+0x5d0>)
    8a60:	47b8      	blx	r7
    8a62:	2800      	cmp	r0, #0
    8a64:	d079      	beq.n	8b5a <_ZNK18ArduinoJson691_11011VariantData6acceptINS_14JsonSerializerINS_18StaticStringWriterEEEEEvRT_+0x42a>
    8a66:	ec51 0b18 	vmov	r0, r1, d8
    8a6a:	a38b      	add	r3, pc, #556	; (adr r3, 8c98 <_ZNK18ArduinoJson691_11011VariantData6acceptINS_14JsonSerializerINS_18StaticStringWriterEEEEEvRT_+0x568>)
    8a6c:	e9d3 2300 	ldrd	r2, r3, [r3]
    8a70:	4fa4      	ldr	r7, [pc, #656]	; (8d04 <_ZNK18ArduinoJson691_11011VariantData6acceptINS_14JsonSerializerINS_18StaticStringWriterEEEEEvRT_+0x5d4>)
    8a72:	47b8      	blx	r7
    8a74:	2800      	cmp	r0, #0
    8a76:	d070      	beq.n	8b5a <_ZNK18ArduinoJson691_11011VariantData6acceptINS_14JsonSerializerINS_18StaticStringWriterEEEEEvRT_+0x42a>
    8a78:	f015 0f80 	tst.w	r5, #128	; 0x80
    8a7c:	d16d      	bne.n	8b5a <_ZNK18ArduinoJson691_11011VariantData6acceptINS_14JsonSerializerINS_18StaticStringWriterEEEEEvRT_+0x42a>
    8a7e:	4ba2      	ldr	r3, [pc, #648]	; (8d08 <_ZNK18ArduinoJson691_11011VariantData6acceptINS_14JsonSerializerINS_18StaticStringWriterEEEEEvRT_+0x5d8>)
    8a80:	f8d3 9000 	ldr.w	r9, [r3]
    8a84:	4ba1      	ldr	r3, [pc, #644]	; (8d0c <_ZNK18ArduinoJson691_11011VariantData6acceptINS_14JsonSerializerINS_18StaticStringWriterEEEEEvRT_+0x5dc>)
    8a86:	681f      	ldr	r7, [r3, #0]
    8a88:	ed9f bb85 	vldr	d11, [pc, #532]	; 8ca0 <_ZNK18ArduinoJson691_11011VariantData6acceptINS_14JsonSerializerINS_18StaticStringWriterEEEEEvRT_+0x570>
    8a8c:	ed9f ab86 	vldr	d10, [pc, #536]	; 8ca8 <_ZNK18ArduinoJson691_11011VariantData6acceptINS_14JsonSerializerINS_18StaticStringWriterEEEEEvRT_+0x578>
    8a90:	ed9f 9b87 	vldr	d9, [pc, #540]	; 8cb0 <_ZNK18ArduinoJson691_11011VariantData6acceptINS_14JsonSerializerINS_18StaticStringWriterEEEEEvRT_+0x580>
    8a94:	ed9f cb88 	vldr	d12, [pc, #544]	; 8cb8 <_ZNK18ArduinoJson691_11011VariantData6acceptINS_14JsonSerializerINS_18StaticStringWriterEEEEEvRT_+0x588>
    8a98:	ed9f db89 	vldr	d13, [pc, #548]	; 8cc0 <_ZNK18ArduinoJson691_11011VariantData6acceptINS_14JsonSerializerINS_18StaticStringWriterEEEEEvRT_+0x590>
    8a9c:	ed9f eb8a 	vldr	d14, [pc, #552]	; 8cc8 <_ZNK18ArduinoJson691_11011VariantData6acceptINS_14JsonSerializerINS_18StaticStringWriterEEEEEvRT_+0x598>
    8aa0:	ed9f fb8b 	vldr	d15, [pc, #556]	; 8cd0 <_ZNK18ArduinoJson691_11011VariantData6acceptINS_14JsonSerializerINS_18StaticStringWriterEEEEEvRT_+0x5a0>
    8aa4:	46a2      	mov	sl, r4
    8aa6:	fa4f f885 	sxtb.w	r8, r5
    8aaa:	f017 0f01 	tst.w	r7, #1
    8aae:	d114      	bne.n	8ada <_ZNK18ArduinoJson691_11011VariantData6acceptINS_14JsonSerializerINS_18StaticStringWriterEEEEEvRT_+0x3aa>
    8ab0:	4b97      	ldr	r3, [pc, #604]	; (8d10 <_ZNK18ArduinoJson691_11011VariantData6acceptINS_14JsonSerializerINS_18StaticStringWriterEEEEEvRT_+0x5e0>)
    8ab2:	ed83 bb02 	vstr	d11, [r3, #8]
    8ab6:	ed83 ab04 	vstr	d10, [r3, #16]
    8aba:	ed83 9b06 	vstr	d9, [r3, #24]
    8abe:	a186      	add	r1, pc, #536	; (adr r1, 8cd8 <_ZNK18ArduinoJson691_11011VariantData6acceptINS_14JsonSerializerINS_18StaticStringWriterEEEEEvRT_+0x5a8>)
    8ac0:	e9d1 0100 	ldrd	r0, r1, [r1]
    8ac4:	e9c3 0108 	strd	r0, r1, [r3, #32]
    8ac8:	ed83 cb0a 	vstr	d12, [r3, #40]	; 0x28
    8acc:	ed83 db0c 	vstr	d13, [r3, #48]	; 0x30
    8ad0:	ed83 eb0e 	vstr	d14, [r3, #56]	; 0x38
    8ad4:	ed83 fb10 	vstr	d15, [r3, #64]	; 0x40
    8ad8:	2701      	movs	r7, #1
    8ada:	4b8d      	ldr	r3, [pc, #564]	; (8d10 <_ZNK18ArduinoJson691_11011VariantData6acceptINS_14JsonSerializerINS_18StaticStringWriterEEEEEvRT_+0x5e0>)
    8adc:	eb03 03c8 	add.w	r3, r3, r8, lsl #3
    8ae0:	e9d3 0100 	ldrd	r0, r1, [r3]
    8ae4:	ec53 2b18 	vmov	r2, r3, d8
    8ae8:	4c85      	ldr	r4, [pc, #532]	; (8d00 <_ZNK18ArduinoJson691_11011VariantData6acceptINS_14JsonSerializerINS_18StaticStringWriterEEEEEvRT_+0x5d0>)
    8aea:	47a0      	blx	r4
    8aec:	b340      	cbz	r0, 8b40 <_ZNK18ArduinoJson691_11011VariantData6acceptINS_14JsonSerializerINS_18StaticStringWriterEEEEEvRT_+0x410>
    8aee:	f019 0f01 	tst.w	r9, #1
    8af2:	d116      	bne.n	8b22 <_ZNK18ArduinoJson691_11011VariantData6acceptINS_14JsonSerializerINS_18StaticStringWriterEEEEEvRT_+0x3f2>
    8af4:	4987      	ldr	r1, [pc, #540]	; (8d14 <_ZNK18ArduinoJson691_11011VariantData6acceptINS_14JsonSerializerINS_18StaticStringWriterEEEEEvRT_+0x5e4>)
    8af6:	a37a      	add	r3, pc, #488	; (adr r3, 8ce0 <_ZNK18ArduinoJson691_11011VariantData6acceptINS_14JsonSerializerINS_18StaticStringWriterEEEEEvRT_+0x5b0>)
    8af8:	e9d3 2300 	ldrd	r2, r3, [r3]
    8afc:	e9c1 230a 	strd	r2, r3, [r1, #40]	; 0x28
    8b00:	a379      	add	r3, pc, #484	; (adr r3, 8ce8 <_ZNK18ArduinoJson691_11011VariantData6acceptINS_14JsonSerializerINS_18StaticStringWriterEEEEEvRT_+0x5b8>)
    8b02:	e9d3 2300 	ldrd	r2, r3, [r3]
    8b06:	e9c1 230c 	strd	r2, r3, [r1, #48]	; 0x30
    8b0a:	a379      	add	r3, pc, #484	; (adr r3, 8cf0 <_ZNK18ArduinoJson691_11011VariantData6acceptINS_14JsonSerializerINS_18StaticStringWriterEEEEEvRT_+0x5c0>)
    8b0c:	e9d3 2300 	ldrd	r2, r3, [r3]
    8b10:	e9c1 230e 	strd	r2, r3, [r1, #56]	; 0x38
    8b14:	a378      	add	r3, pc, #480	; (adr r3, 8cf8 <_ZNK18ArduinoJson691_11011VariantData6acceptINS_14JsonSerializerINS_18StaticStringWriterEEEEEvRT_+0x5c8>)
    8b16:	e9d3 2300 	ldrd	r2, r3, [r3]
    8b1a:	e9c1 2310 	strd	r2, r3, [r1, #64]	; 0x40
    8b1e:	f04f 0901 	mov.w	r9, #1
    8b22:	4b7c      	ldr	r3, [pc, #496]	; (8d14 <_ZNK18ArduinoJson691_11011VariantData6acceptINS_14JsonSerializerINS_18StaticStringWriterEEEEEvRT_+0x5e4>)
    8b24:	eb03 08c8 	add.w	r8, r3, r8, lsl #3
    8b28:	ec51 0b18 	vmov	r0, r1, d8
    8b2c:	e9d8 2300 	ldrd	r2, r3, [r8]
    8b30:	4c79      	ldr	r4, [pc, #484]	; (8d18 <_ZNK18ArduinoJson691_11011VariantData6acceptINS_14JsonSerializerINS_18StaticStringWriterEEEEEvRT_+0x5e8>)
    8b32:	47a0      	blx	r4
    8b34:	ec41 0b18 	vmov	d8, r0, r1
    8b38:	ebc6 0b0b 	rsb	fp, r6, fp
    8b3c:	fa1f fb8b 	uxth.w	fp, fp
    8b40:	1076      	asrs	r6, r6, #1
    8b42:	3d01      	subs	r5, #1
    8b44:	b2ed      	uxtb	r5, r5
    8b46:	b26b      	sxtb	r3, r5
    8b48:	f1b3 3fff 	cmp.w	r3, #4294967295	; 0xffffffff
    8b4c:	d1ab      	bne.n	8aa6 <_ZNK18ArduinoJson691_11011VariantData6acceptINS_14JsonSerializerINS_18StaticStringWriterEEEEEvRT_+0x376>
    8b4e:	4654      	mov	r4, sl
    8b50:	4b6d      	ldr	r3, [pc, #436]	; (8d08 <_ZNK18ArduinoJson691_11011VariantData6acceptINS_14JsonSerializerINS_18StaticStringWriterEEEEEvRT_+0x5d8>)
    8b52:	f8c3 9000 	str.w	r9, [r3]
    8b56:	4b6d      	ldr	r3, [pc, #436]	; (8d0c <_ZNK18ArduinoJson691_11011VariantData6acceptINS_14JsonSerializerINS_18StaticStringWriterEEEEEvRT_+0x5dc>)
    8b58:	601f      	str	r7, [r3, #0]
    8b5a:	ec51 0b18 	vmov	r0, r1, d8
    8b5e:	4b6f      	ldr	r3, [pc, #444]	; (8d1c <_ZNK18ArduinoJson691_11011VariantData6acceptINS_14JsonSerializerINS_18StaticStringWriterEEEEEvRT_+0x5ec>)
    8b60:	4798      	blx	r3
    8b62:	4606      	mov	r6, r0
    8b64:	2809      	cmp	r0, #9
    8b66:	d90f      	bls.n	8b88 <_ZNK18ArduinoJson691_11011VariantData6acceptINS_14JsonSerializerINS_18StaticStringWriterEEEEEvRT_+0x458>
    8b68:	4602      	mov	r2, r0
    8b6a:	2308      	movs	r3, #8
    8b6c:	4f6c      	ldr	r7, [pc, #432]	; (8d20 <_ZNK18ArduinoJson691_11011VariantData6acceptINS_14JsonSerializerINS_18StaticStringWriterEEEEEvRT_+0x5f0>)
    8b6e:	496d      	ldr	r1, [pc, #436]	; (8d24 <_ZNK18ArduinoJson691_11011VariantData6acceptINS_14JsonSerializerINS_18StaticStringWriterEEEEEvRT_+0x5f4>)
    8b70:	fba1 0707 	umull	r0, r7, r1, r7
    8b74:	08ff      	lsrs	r7, r7, #3
    8b76:	b2dd      	uxtb	r5, r3
    8b78:	fba1 0202 	umull	r0, r2, r1, r2
    8b7c:	08d2      	lsrs	r2, r2, #3
    8b7e:	3b01      	subs	r3, #1
    8b80:	b2db      	uxtb	r3, r3
    8b82:	2a09      	cmp	r2, #9
    8b84:	d8f4      	bhi.n	8b70 <_ZNK18ArduinoJson691_11011VariantData6acceptINS_14JsonSerializerINS_18StaticStringWriterEEEEEvRT_+0x440>
    8b86:	e001      	b.n	8b8c <_ZNK18ArduinoJson691_11011VariantData6acceptINS_14JsonSerializerINS_18StaticStringWriterEEEEEvRT_+0x45c>
    8b88:	2509      	movs	r5, #9
    8b8a:	4f65      	ldr	r7, [pc, #404]	; (8d20 <_ZNK18ArduinoJson691_11011VariantData6acceptINS_14JsonSerializerINS_18StaticStringWriterEEEEEvRT_+0x5f0>)
    8b8c:	f8df 8198 	ldr.w	r8, [pc, #408]	; 8d28 <_ZNK18ArduinoJson691_11011VariantData6acceptINS_14JsonSerializerINS_18StaticStringWriterEEEEEvRT_+0x5f8>
    8b90:	4630      	mov	r0, r6
    8b92:	47c0      	blx	r8
    8b94:	4602      	mov	r2, r0
    8b96:	460b      	mov	r3, r1
    8b98:	f8df a190 	ldr.w	sl, [pc, #400]	; 8d2c <_ZNK18ArduinoJson691_11011VariantData6acceptINS_14JsonSerializerINS_18StaticStringWriterEEEEEvRT_+0x5fc>
    8b9c:	ec51 0b18 	vmov	r0, r1, d8
    8ba0:	47d0      	blx	sl
    8ba2:	ec41 0b18 	vmov	d8, r0, r1
    8ba6:	4638      	mov	r0, r7
    8ba8:	47c0      	blx	r8
    8baa:	4602      	mov	r2, r0
    8bac:	460b      	mov	r3, r1
    8bae:	ec51 0b18 	vmov	r0, r1, d8
    8bb2:	f8df c164 	ldr.w	ip, [pc, #356]	; 8d18 <_ZNK18ArduinoJson691_11011VariantData6acceptINS_14JsonSerializerINS_18StaticStringWriterEEEEEvRT_+0x5e8>
    8bb6:	47e0      	blx	ip
    8bb8:	ec41 0b18 	vmov	d8, r0, r1
    8bbc:	f8df 915c 	ldr.w	r9, [pc, #348]	; 8d1c <_ZNK18ArduinoJson691_11011VariantData6acceptINS_14JsonSerializerINS_18StaticStringWriterEEEEEvRT_+0x5ec>
    8bc0:	47c8      	blx	r9
    8bc2:	9001      	str	r0, [sp, #4]
    8bc4:	47c0      	blx	r8
    8bc6:	4602      	mov	r2, r0
    8bc8:	460b      	mov	r3, r1
    8bca:	ec51 0b18 	vmov	r0, r1, d8
    8bce:	47d0      	blx	sl
    8bd0:	4602      	mov	r2, r0
    8bd2:	460b      	mov	r3, r1
    8bd4:	f8df c158 	ldr.w	ip, [pc, #344]	; 8d30 <_ZNK18ArduinoJson691_11011VariantData6acceptINS_14JsonSerializerINS_18StaticStringWriterEEEEEvRT_+0x600>
    8bd8:	47e0      	blx	ip
    8bda:	47c8      	blx	r9
    8bdc:	9901      	ldr	r1, [sp, #4]
    8bde:	4408      	add	r0, r1
    8be0:	42b8      	cmp	r0, r7
    8be2:	d30e      	bcc.n	8c02 <_ZNK18ArduinoJson691_11011VariantData6acceptINS_14JsonSerializerINS_18StaticStringWriterEEEEEvRT_+0x4d2>
    8be4:	3601      	adds	r6, #1
    8be6:	f1bb 0f00 	cmp.w	fp, #0
    8bea:	f000 8457 	beq.w	949c <_ZNK18ArduinoJson691_11011VariantData6acceptINS_14JsonSerializerINS_18StaticStringWriterEEEEEvRT_+0xd6c>
    8bee:	2e09      	cmp	r6, #9
    8bf0:	f240 8454 	bls.w	949c <_ZNK18ArduinoJson691_11011VariantData6acceptINS_14JsonSerializerINS_18StaticStringWriterEEEEEvRT_+0xd6c>
    8bf4:	f10b 0301 	add.w	r3, fp, #1
    8bf8:	fa1f fb83 	uxth.w	fp, r3
    8bfc:	2601      	movs	r6, #1
    8bfe:	f000 bc4d 	b.w	949c <_ZNK18ArduinoJson691_11011VariantData6acceptINS_14JsonSerializerINS_18StaticStringWriterEEEEEvRT_+0xd6c>
    8c02:	4b48      	ldr	r3, [pc, #288]	; (8d24 <_ZNK18ArduinoJson691_11011VariantData6acceptINS_14JsonSerializerINS_18StaticStringWriterEEEEEvRT_+0x5f4>)
    8c04:	fba3 2300 	umull	r2, r3, r3, r0
    8c08:	08db      	lsrs	r3, r3, #3
    8c0a:	eb03 0383 	add.w	r3, r3, r3, lsl #2
    8c0e:	ebb0 0f43 	cmp.w	r0, r3, lsl #1
    8c12:	d113      	bne.n	8c3c <_ZNK18ArduinoJson691_11011VariantData6acceptINS_14JsonSerializerINS_18StaticStringWriterEEEEEvRT_+0x50c>
    8c14:	b26b      	sxtb	r3, r5
    8c16:	2b00      	cmp	r3, #0
    8c18:	dd10      	ble.n	8c3c <_ZNK18ArduinoJson691_11011VariantData6acceptINS_14JsonSerializerINS_18StaticStringWriterEEEEEvRT_+0x50c>
    8c1a:	4a42      	ldr	r2, [pc, #264]	; (8d24 <_ZNK18ArduinoJson691_11011VariantData6acceptINS_14JsonSerializerINS_18StaticStringWriterEEEEEvRT_+0x5f4>)
    8c1c:	fba2 3000 	umull	r3, r0, r2, r0
    8c20:	08c0      	lsrs	r0, r0, #3
    8c22:	3d01      	subs	r5, #1
    8c24:	b2ed      	uxtb	r5, r5
    8c26:	fba2 7300 	umull	r7, r3, r2, r0
    8c2a:	08db      	lsrs	r3, r3, #3
    8c2c:	eb03 0383 	add.w	r3, r3, r3, lsl #2
    8c30:	ebb0 0f43 	cmp.w	r0, r3, lsl #1
    8c34:	d102      	bne.n	8c3c <_ZNK18ArduinoJson691_11011VariantData6acceptINS_14JsonSerializerINS_18StaticStringWriterEEEEEvRT_+0x50c>
    8c36:	b10d      	cbz	r5, 8c3c <_ZNK18ArduinoJson691_11011VariantData6acceptINS_14JsonSerializerINS_18StaticStringWriterEEEEEvRT_+0x50c>
    8c38:	b2ed      	uxtb	r5, r5
    8c3a:	e7ef      	b.n	8c1c <_ZNK18ArduinoJson691_11011VariantData6acceptINS_14JsonSerializerINS_18StaticStringWriterEEEEEvRT_+0x4ec>
    8c3c:	f10d 021d 	add.w	r2, sp, #29
    8c40:	f8df c0e0 	ldr.w	ip, [pc, #224]	; 8d24 <_ZNK18ArduinoJson691_11011VariantData6acceptINS_14JsonSerializerINS_18StaticStringWriterEEEEEvRT_+0x5f4>
    8c44:	4617      	mov	r7, r2
    8c46:	fbac 1306 	umull	r1, r3, ip, r6
    8c4a:	08db      	lsrs	r3, r3, #3
    8c4c:	eb03 0183 	add.w	r1, r3, r3, lsl #2
    8c50:	eba6 0141 	sub.w	r1, r6, r1, lsl #1
    8c54:	3130      	adds	r1, #48	; 0x30
    8c56:	f802 1901 	strb.w	r1, [r2], #-1
    8c5a:	461e      	mov	r6, r3
    8c5c:	2b00      	cmp	r3, #0
    8c5e:	d1f1      	bne.n	8c44 <_ZNK18ArduinoJson691_11011VariantData6acceptINS_14JsonSerializerINS_18StaticStringWriterEEEEEvRT_+0x514>
    8c60:	6822      	ldr	r2, [r4, #0]
    8c62:	f10d 011e 	add.w	r1, sp, #30
    8c66:	1bc9      	subs	r1, r1, r7
    8c68:	f8d2 c004 	ldr.w	ip, [r2, #4]
    8c6c:	6813      	ldr	r3, [r2, #0]
    8c6e:	4563      	cmp	r3, ip
    8c70:	d90f      	bls.n	8c92 <_ZNK18ArduinoJson691_11011VariantData6acceptINS_14JsonSerializerINS_18StaticStringWriterEEEEEvRT_+0x562>
    8c72:	2900      	cmp	r1, #0
    8c74:	d05e      	beq.n	8d34 <_ZNK18ArduinoJson691_11011VariantData6acceptINS_14JsonSerializerINS_18StaticStringWriterEEEEEvRT_+0x604>
    8c76:	4663      	mov	r3, ip
    8c78:	1c5e      	adds	r6, r3, #1
    8c7a:	6056      	str	r6, [r2, #4]
    8c7c:	f817 6b01 	ldrb.w	r6, [r7], #1
    8c80:	701e      	strb	r6, [r3, #0]
    8c82:	3901      	subs	r1, #1
    8c84:	6853      	ldr	r3, [r2, #4]
    8c86:	6816      	ldr	r6, [r2, #0]
    8c88:	42b3      	cmp	r3, r6
    8c8a:	d254      	bcs.n	8d36 <_ZNK18ArduinoJson691_11011VariantData6acceptINS_14JsonSerializerINS_18StaticStringWriterEEEEEvRT_+0x606>
    8c8c:	2900      	cmp	r1, #0
    8c8e:	d1f3      	bne.n	8c78 <_ZNK18ArduinoJson691_11011VariantData6acceptINS_14JsonSerializerINS_18StaticStringWriterEEEEEvRT_+0x548>
    8c90:	e051      	b.n	8d36 <_ZNK18ArduinoJson691_11011VariantData6acceptINS_14JsonSerializerINS_18StaticStringWriterEEEEEvRT_+0x606>
    8c92:	4663      	mov	r3, ip
    8c94:	e04f      	b.n	8d36 <_ZNK18ArduinoJson691_11011VariantData6acceptINS_14JsonSerializerINS_18StaticStringWriterEEEEEvRT_+0x606>
    8c96:	bf00      	nop
    8c98:	88e368f1 	.word	0x88e368f1
    8c9c:	3ee4f8b5 	.word	0x3ee4f8b5
    8ca0:	9999999a 	.word	0x9999999a
    8ca4:	3fb99999 	.word	0x3fb99999
    8ca8:	d2f1a9fc 	.word	0xd2f1a9fc
    8cac:	3f50624d 	.word	0x3f50624d
    8cb0:	9abcaf48 	.word	0x9abcaf48
    8cb4:	3e7ad7f2 	.word	0x3e7ad7f2
    8cb8:	65896880 	.word	0x65896880
    8cbc:	398039d6 	.word	0x398039d6
    8cc0:	9631d10d 	.word	0x9631d10d
    8cc4:	32da53fc 	.word	0x32da53fc
    8cc8:	81b7dec2 	.word	0x81b7dec2
    8ccc:	25915445 	.word	0x25915445
    8cd0:	7dd78b14 	.word	0x7dd78b14
    8cd4:	0afe07b2 	.word	0x0afe07b2
    8cd8:	9ee75616 	.word	0x9ee75616
    8cdc:	3cd203af 	.word	0x3cd203af
    8ce0:	b5056e17 	.word	0xb5056e17
    8ce4:	4693b8b5 	.word	0x4693b8b5
    8ce8:	e93ff9f5 	.word	0xe93ff9f5
    8cec:	4d384f03 	.word	0x4d384f03
    8cf0:	f9301d32 	.word	0xf9301d32
    8cf4:	5a827748 	.word	0x5a827748
    8cf8:	7f73bf3c 	.word	0x7f73bf3c
    8cfc:	75154fdd 	.word	0x75154fdd
    8d00:	0000a895 	.word	0x0000a895
    8d04:	0000a86d 	.word	0x0000a86d
    8d08:	20000d28 	.word	0x20000d28
    8d0c:	20000d20 	.word	0x20000d20
    8d10:	20000050 	.word	0x20000050
    8d14:	20000008 	.word	0x20000008
    8d18:	0000a375 	.word	0x0000a375
    8d1c:	0000a8a9 	.word	0x0000a8a9
    8d20:	3b9aca00 	.word	0x3b9aca00
    8d24:	cccccccd 	.word	0xcccccccd
    8d28:	0000a289 	.word	0x0000a289
    8d2c:	0000a00d 	.word	0x0000a00d
    8d30:	0000a011 	.word	0x0000a011
    8d34:	4663      	mov	r3, ip
    8d36:	2100      	movs	r1, #0
    8d38:	7019      	strb	r1, [r3, #0]
    8d3a:	6853      	ldr	r3, [r2, #4]
    8d3c:	ebcc 0c03 	rsb	ip, ip, r3
    8d40:	6863      	ldr	r3, [r4, #4]
    8d42:	4463      	add	r3, ip
    8d44:	6063      	str	r3, [r4, #4]
    8d46:	2d00      	cmp	r5, #0
    8d48:	d039      	beq.n	8dbe <_ZNK18ArduinoJson691_11011VariantData6acceptINS_14JsonSerializerINS_18StaticStringWriterEEEEEvRT_+0x68e>
    8d4a:	1e69      	subs	r1, r5, #1
    8d4c:	b2c9      	uxtb	r1, r1
    8d4e:	ab06      	add	r3, sp, #24
    8d50:	f10d 0617 	add.w	r6, sp, #23
    8d54:	1a76      	subs	r6, r6, r1
    8d56:	4da5      	ldr	r5, [pc, #660]	; (8fec <_ZNK18ArduinoJson691_11011VariantData6acceptINS_14JsonSerializerINS_18StaticStringWriterEEEEEvRT_+0x8bc>)
    8d58:	fba5 7200 	umull	r7, r2, r5, r0
    8d5c:	08d2      	lsrs	r2, r2, #3
    8d5e:	eb02 0782 	add.w	r7, r2, r2, lsl #2
    8d62:	eba0 0047 	sub.w	r0, r0, r7, lsl #1
    8d66:	3030      	adds	r0, #48	; 0x30
    8d68:	f803 0d01 	strb.w	r0, [r3, #-1]!
    8d6c:	4610      	mov	r0, r2
    8d6e:	42b3      	cmp	r3, r6
    8d70:	d1f2      	bne.n	8d58 <_ZNK18ArduinoJson691_11011VariantData6acceptINS_14JsonSerializerINS_18StaticStringWriterEEEEEvRT_+0x628>
    8d72:	a806      	add	r0, sp, #24
    8d74:	43cb      	mvns	r3, r1
    8d76:	4403      	add	r3, r0
    8d78:	1e5d      	subs	r5, r3, #1
    8d7a:	222e      	movs	r2, #46	; 0x2e
    8d7c:	f803 2c01 	strb.w	r2, [r3, #-1]
    8d80:	6822      	ldr	r2, [r4, #0]
    8d82:	1b40      	subs	r0, r0, r5
    8d84:	6851      	ldr	r1, [r2, #4]
    8d86:	6813      	ldr	r3, [r2, #0]
    8d88:	4299      	cmp	r1, r3
    8d8a:	d20e      	bcs.n	8daa <_ZNK18ArduinoJson691_11011VariantData6acceptINS_14JsonSerializerINS_18StaticStringWriterEEEEEvRT_+0x67a>
    8d8c:	b178      	cbz	r0, 8dae <_ZNK18ArduinoJson691_11011VariantData6acceptINS_14JsonSerializerINS_18StaticStringWriterEEEEEvRT_+0x67e>
    8d8e:	460b      	mov	r3, r1
    8d90:	1c5e      	adds	r6, r3, #1
    8d92:	6056      	str	r6, [r2, #4]
    8d94:	f815 6b01 	ldrb.w	r6, [r5], #1
    8d98:	701e      	strb	r6, [r3, #0]
    8d9a:	3801      	subs	r0, #1
    8d9c:	6853      	ldr	r3, [r2, #4]
    8d9e:	6816      	ldr	r6, [r2, #0]
    8da0:	42b3      	cmp	r3, r6
    8da2:	d205      	bcs.n	8db0 <_ZNK18ArduinoJson691_11011VariantData6acceptINS_14JsonSerializerINS_18StaticStringWriterEEEEEvRT_+0x680>
    8da4:	2800      	cmp	r0, #0
    8da6:	d1f3      	bne.n	8d90 <_ZNK18ArduinoJson691_11011VariantData6acceptINS_14JsonSerializerINS_18StaticStringWriterEEEEEvRT_+0x660>
    8da8:	e002      	b.n	8db0 <_ZNK18ArduinoJson691_11011VariantData6acceptINS_14JsonSerializerINS_18StaticStringWriterEEEEEvRT_+0x680>
    8daa:	460b      	mov	r3, r1
    8dac:	e000      	b.n	8db0 <_ZNK18ArduinoJson691_11011VariantData6acceptINS_14JsonSerializerINS_18StaticStringWriterEEEEEvRT_+0x680>
    8dae:	460b      	mov	r3, r1
    8db0:	2000      	movs	r0, #0
    8db2:	7018      	strb	r0, [r3, #0]
    8db4:	6853      	ldr	r3, [r2, #4]
    8db6:	1a59      	subs	r1, r3, r1
    8db8:	6863      	ldr	r3, [r4, #4]
    8dba:	440b      	add	r3, r1
    8dbc:	6063      	str	r3, [r4, #4]
    8dbe:	f41b 4f00 	tst.w	fp, #32768	; 0x8000
    8dc2:	d052      	beq.n	8e6a <_ZNK18ArduinoJson691_11011VariantData6acceptINS_14JsonSerializerINS_18StaticStringWriterEEEEEvRT_+0x73a>
    8dc4:	6823      	ldr	r3, [r4, #0]
    8dc6:	6859      	ldr	r1, [r3, #4]
    8dc8:	681a      	ldr	r2, [r3, #0]
    8dca:	428a      	cmp	r2, r1
    8dcc:	d90d      	bls.n	8dea <_ZNK18ArduinoJson691_11011VariantData6acceptINS_14JsonSerializerINS_18StaticStringWriterEEEEEvRT_+0x6ba>
    8dce:	1c4a      	adds	r2, r1, #1
    8dd0:	605a      	str	r2, [r3, #4]
    8dd2:	2265      	movs	r2, #101	; 0x65
    8dd4:	700a      	strb	r2, [r1, #0]
    8dd6:	685a      	ldr	r2, [r3, #4]
    8dd8:	6818      	ldr	r0, [r3, #0]
    8dda:	4282      	cmp	r2, r0
    8ddc:	d206      	bcs.n	8dec <_ZNK18ArduinoJson691_11011VariantData6acceptINS_14JsonSerializerINS_18StaticStringWriterEEEEEvRT_+0x6bc>
    8dde:	1c50      	adds	r0, r2, #1
    8de0:	6058      	str	r0, [r3, #4]
    8de2:	202d      	movs	r0, #45	; 0x2d
    8de4:	7010      	strb	r0, [r2, #0]
    8de6:	685a      	ldr	r2, [r3, #4]
    8de8:	e000      	b.n	8dec <_ZNK18ArduinoJson691_11011VariantData6acceptINS_14JsonSerializerINS_18StaticStringWriterEEEEEvRT_+0x6bc>
    8dea:	460a      	mov	r2, r1
    8dec:	2000      	movs	r0, #0
    8dee:	7010      	strb	r0, [r2, #0]
    8df0:	685b      	ldr	r3, [r3, #4]
    8df2:	1a59      	subs	r1, r3, r1
    8df4:	6863      	ldr	r3, [r4, #4]
    8df6:	440b      	add	r3, r1
    8df8:	6063      	str	r3, [r4, #4]
    8dfa:	fa0f f38b 	sxth.w	r3, fp
    8dfe:	425b      	negs	r3, r3
    8e00:	f10d 011d 	add.w	r1, sp, #29
    8e04:	f1a0 3099 	sub.w	r0, r0, #2576980377	; 0x99999999
    8e08:	460d      	mov	r5, r1
    8e0a:	fb80 2603 	smull	r2, r6, r0, r3
    8e0e:	17da      	asrs	r2, r3, #31
    8e10:	ebc2 02a6 	rsb	r2, r2, r6, asr #2
    8e14:	eb02 0682 	add.w	r6, r2, r2, lsl #2
    8e18:	eba3 0346 	sub.w	r3, r3, r6, lsl #1
    8e1c:	3330      	adds	r3, #48	; 0x30
    8e1e:	f801 3901 	strb.w	r3, [r1], #-1
    8e22:	4613      	mov	r3, r2
    8e24:	2a00      	cmp	r2, #0
    8e26:	d1ef      	bne.n	8e08 <_ZNK18ArduinoJson691_11011VariantData6acceptINS_14JsonSerializerINS_18StaticStringWriterEEEEEvRT_+0x6d8>
    8e28:	6822      	ldr	r2, [r4, #0]
    8e2a:	f10d 001e 	add.w	r0, sp, #30
    8e2e:	1b40      	subs	r0, r0, r5
    8e30:	6851      	ldr	r1, [r2, #4]
    8e32:	6813      	ldr	r3, [r2, #0]
    8e34:	428b      	cmp	r3, r1
    8e36:	d90e      	bls.n	8e56 <_ZNK18ArduinoJson691_11011VariantData6acceptINS_14JsonSerializerINS_18StaticStringWriterEEEEEvRT_+0x726>
    8e38:	b178      	cbz	r0, 8e5a <_ZNK18ArduinoJson691_11011VariantData6acceptINS_14JsonSerializerINS_18StaticStringWriterEEEEEvRT_+0x72a>
    8e3a:	460b      	mov	r3, r1
    8e3c:	1c5e      	adds	r6, r3, #1
    8e3e:	6056      	str	r6, [r2, #4]
    8e40:	f815 6b01 	ldrb.w	r6, [r5], #1
    8e44:	701e      	strb	r6, [r3, #0]
    8e46:	3801      	subs	r0, #1
    8e48:	6853      	ldr	r3, [r2, #4]
    8e4a:	6816      	ldr	r6, [r2, #0]
    8e4c:	42b3      	cmp	r3, r6
    8e4e:	d205      	bcs.n	8e5c <_ZNK18ArduinoJson691_11011VariantData6acceptINS_14JsonSerializerINS_18StaticStringWriterEEEEEvRT_+0x72c>
    8e50:	2800      	cmp	r0, #0
    8e52:	d1f3      	bne.n	8e3c <_ZNK18ArduinoJson691_11011VariantData6acceptINS_14JsonSerializerINS_18StaticStringWriterEEEEEvRT_+0x70c>
    8e54:	e002      	b.n	8e5c <_ZNK18ArduinoJson691_11011VariantData6acceptINS_14JsonSerializerINS_18StaticStringWriterEEEEEvRT_+0x72c>
    8e56:	460b      	mov	r3, r1
    8e58:	e000      	b.n	8e5c <_ZNK18ArduinoJson691_11011VariantData6acceptINS_14JsonSerializerINS_18StaticStringWriterEEEEEvRT_+0x72c>
    8e5a:	460b      	mov	r3, r1
    8e5c:	2000      	movs	r0, #0
    8e5e:	7018      	strb	r0, [r3, #0]
    8e60:	6853      	ldr	r3, [r2, #4]
    8e62:	1a59      	subs	r1, r3, r1
    8e64:	6863      	ldr	r3, [r4, #4]
    8e66:	440b      	add	r3, r1
    8e68:	6063      	str	r3, [r4, #4]
    8e6a:	fa0f f38b 	sxth.w	r3, fp
    8e6e:	2b00      	cmp	r3, #0
    8e70:	f340 8340 	ble.w	94f4 <_ZNK18ArduinoJson691_11011VariantData6acceptINS_14JsonSerializerINS_18StaticStringWriterEEEEEvRT_+0xdc4>
    8e74:	6823      	ldr	r3, [r4, #0]
    8e76:	685a      	ldr	r2, [r3, #4]
    8e78:	6819      	ldr	r1, [r3, #0]
    8e7a:	428a      	cmp	r2, r1
    8e7c:	d208      	bcs.n	8e90 <_ZNK18ArduinoJson691_11011VariantData6acceptINS_14JsonSerializerINS_18StaticStringWriterEEEEEvRT_+0x760>
    8e7e:	1c51      	adds	r1, r2, #1
    8e80:	6059      	str	r1, [r3, #4]
    8e82:	2165      	movs	r1, #101	; 0x65
    8e84:	7011      	strb	r1, [r2, #0]
    8e86:	685b      	ldr	r3, [r3, #4]
    8e88:	2200      	movs	r2, #0
    8e8a:	701a      	strb	r2, [r3, #0]
    8e8c:	2301      	movs	r3, #1
    8e8e:	e000      	b.n	8e92 <_ZNK18ArduinoJson691_11011VariantData6acceptINS_14JsonSerializerINS_18StaticStringWriterEEEEEvRT_+0x762>
    8e90:	2300      	movs	r3, #0
    8e92:	6862      	ldr	r2, [r4, #4]
    8e94:	4413      	add	r3, r2
    8e96:	6063      	str	r3, [r4, #4]
    8e98:	f10d 011d 	add.w	r1, sp, #29
    8e9c:	4e54      	ldr	r6, [pc, #336]	; (8ff0 <_ZNK18ArduinoJson691_11011VariantData6acceptINS_14JsonSerializerINS_18StaticStringWriterEEEEEvRT_+0x8c0>)
    8e9e:	465b      	mov	r3, fp
    8ea0:	4608      	mov	r0, r1
    8ea2:	b21a      	sxth	r2, r3
    8ea4:	fb86 3502 	smull	r3, r5, r6, r2
    8ea8:	17d3      	asrs	r3, r2, #31
    8eaa:	ebc3 03a5 	rsb	r3, r3, r5, asr #2
    8eae:	eb03 0583 	add.w	r5, r3, r3, lsl #2
    8eb2:	eba2 0245 	sub.w	r2, r2, r5, lsl #1
    8eb6:	3230      	adds	r2, #48	; 0x30
    8eb8:	f801 2901 	strb.w	r2, [r1], #-1
    8ebc:	b29b      	uxth	r3, r3
    8ebe:	2b00      	cmp	r3, #0
    8ec0:	d1ee      	bne.n	8ea0 <_ZNK18ArduinoJson691_11011VariantData6acceptINS_14JsonSerializerINS_18StaticStringWriterEEEEEvRT_+0x770>
    8ec2:	6822      	ldr	r2, [r4, #0]
    8ec4:	f10d 011e 	add.w	r1, sp, #30
    8ec8:	1a09      	subs	r1, r1, r0
    8eca:	6856      	ldr	r6, [r2, #4]
    8ecc:	6813      	ldr	r3, [r2, #0]
    8ece:	429e      	cmp	r6, r3
    8ed0:	d20e      	bcs.n	8ef0 <_ZNK18ArduinoJson691_11011VariantData6acceptINS_14JsonSerializerINS_18StaticStringWriterEEEEEvRT_+0x7c0>
    8ed2:	b179      	cbz	r1, 8ef4 <_ZNK18ArduinoJson691_11011VariantData6acceptINS_14JsonSerializerINS_18StaticStringWriterEEEEEvRT_+0x7c4>
    8ed4:	4633      	mov	r3, r6
    8ed6:	1c5d      	adds	r5, r3, #1
    8ed8:	6055      	str	r5, [r2, #4]
    8eda:	f810 5b01 	ldrb.w	r5, [r0], #1
    8ede:	701d      	strb	r5, [r3, #0]
    8ee0:	3901      	subs	r1, #1
    8ee2:	6853      	ldr	r3, [r2, #4]
    8ee4:	6815      	ldr	r5, [r2, #0]
    8ee6:	42ab      	cmp	r3, r5
    8ee8:	d205      	bcs.n	8ef6 <_ZNK18ArduinoJson691_11011VariantData6acceptINS_14JsonSerializerINS_18StaticStringWriterEEEEEvRT_+0x7c6>
    8eea:	2900      	cmp	r1, #0
    8eec:	d1f3      	bne.n	8ed6 <_ZNK18ArduinoJson691_11011VariantData6acceptINS_14JsonSerializerINS_18StaticStringWriterEEEEEvRT_+0x7a6>
    8eee:	e002      	b.n	8ef6 <_ZNK18ArduinoJson691_11011VariantData6acceptINS_14JsonSerializerINS_18StaticStringWriterEEEEEvRT_+0x7c6>
    8ef0:	4633      	mov	r3, r6
    8ef2:	e000      	b.n	8ef6 <_ZNK18ArduinoJson691_11011VariantData6acceptINS_14JsonSerializerINS_18StaticStringWriterEEEEEvRT_+0x7c6>
    8ef4:	4633      	mov	r3, r6
    8ef6:	2100      	movs	r1, #0
    8ef8:	7019      	strb	r1, [r3, #0]
    8efa:	6853      	ldr	r3, [r2, #4]
    8efc:	1b9e      	subs	r6, r3, r6
    8efe:	6863      	ldr	r3, [r4, #4]
    8f00:	4433      	add	r3, r6
    8f02:	6063      	str	r3, [r4, #4]
    8f04:	e2f6      	b.n	94f4 <_ZNK18ArduinoJson691_11011VariantData6acceptINS_14JsonSerializerINS_18StaticStringWriterEEEEEvRT_+0xdc4>
    8f06:	6823      	ldr	r3, [r4, #0]
    8f08:	685a      	ldr	r2, [r3, #4]
    8f0a:	6819      	ldr	r1, [r3, #0]
    8f0c:	428a      	cmp	r2, r1
    8f0e:	d208      	bcs.n	8f22 <_ZNK18ArduinoJson691_11011VariantData6acceptINS_14JsonSerializerINS_18StaticStringWriterEEEEEvRT_+0x7f2>
    8f10:	1c51      	adds	r1, r2, #1
    8f12:	6059      	str	r1, [r3, #4]
    8f14:	215b      	movs	r1, #91	; 0x5b
    8f16:	7011      	strb	r1, [r2, #0]
    8f18:	685b      	ldr	r3, [r3, #4]
    8f1a:	2200      	movs	r2, #0
    8f1c:	701a      	strb	r2, [r3, #0]
    8f1e:	2301      	movs	r3, #1
    8f20:	e000      	b.n	8f24 <_ZNK18ArduinoJson691_11011VariantData6acceptINS_14JsonSerializerINS_18StaticStringWriterEEEEEvRT_+0x7f4>
    8f22:	2300      	movs	r3, #0
    8f24:	6862      	ldr	r2, [r4, #4]
    8f26:	4413      	add	r3, r2
    8f28:	6063      	str	r3, [r4, #4]
    8f2a:	6805      	ldr	r5, [r0, #0]
    8f2c:	b1d5      	cbz	r5, 8f64 <_ZNK18ArduinoJson691_11011VariantData6acceptINS_14JsonSerializerINS_18StaticStringWriterEEEEEvRT_+0x834>
    8f2e:	4e31      	ldr	r6, [pc, #196]	; (8ff4 <_ZNK18ArduinoJson691_11011VariantData6acceptINS_14JsonSerializerINS_18StaticStringWriterEEEEEvRT_+0x8c4>)
    8f30:	2700      	movs	r7, #0
    8f32:	f04f 082c 	mov.w	r8, #44	; 0x2c
    8f36:	4628      	mov	r0, r5
    8f38:	4621      	mov	r1, r4
    8f3a:	47b0      	blx	r6
    8f3c:	896b      	ldrh	r3, [r5, #10]
    8f3e:	b18b      	cbz	r3, 8f64 <_ZNK18ArduinoJson691_11011VariantData6acceptINS_14JsonSerializerINS_18StaticStringWriterEEEEEvRT_+0x834>
    8f40:	b21b      	sxth	r3, r3
    8f42:	eb15 1503 	adds.w	r5, r5, r3, lsl #4
    8f46:	d00d      	beq.n	8f64 <_ZNK18ArduinoJson691_11011VariantData6acceptINS_14JsonSerializerINS_18StaticStringWriterEEEEEvRT_+0x834>
    8f48:	6823      	ldr	r3, [r4, #0]
    8f4a:	685a      	ldr	r2, [r3, #4]
    8f4c:	6819      	ldr	r1, [r3, #0]
    8f4e:	428a      	cmp	r2, r1
    8f50:	f080 82a7 	bcs.w	94a2 <_ZNK18ArduinoJson691_11011VariantData6acceptINS_14JsonSerializerINS_18StaticStringWriterEEEEEvRT_+0xd72>
    8f54:	1c51      	adds	r1, r2, #1
    8f56:	6059      	str	r1, [r3, #4]
    8f58:	f882 8000 	strb.w	r8, [r2]
    8f5c:	685b      	ldr	r3, [r3, #4]
    8f5e:	701f      	strb	r7, [r3, #0]
    8f60:	2201      	movs	r2, #1
    8f62:	e29f      	b.n	94a4 <_ZNK18ArduinoJson691_11011VariantData6acceptINS_14JsonSerializerINS_18StaticStringWriterEEEEEvRT_+0xd74>
    8f64:	6823      	ldr	r3, [r4, #0]
    8f66:	685a      	ldr	r2, [r3, #4]
    8f68:	6819      	ldr	r1, [r3, #0]
    8f6a:	428a      	cmp	r2, r1
    8f6c:	d208      	bcs.n	8f80 <_ZNK18ArduinoJson691_11011VariantData6acceptINS_14JsonSerializerINS_18StaticStringWriterEEEEEvRT_+0x850>
    8f6e:	1c51      	adds	r1, r2, #1
    8f70:	6059      	str	r1, [r3, #4]
    8f72:	215d      	movs	r1, #93	; 0x5d
    8f74:	7011      	strb	r1, [r2, #0]
    8f76:	685b      	ldr	r3, [r3, #4]
    8f78:	2200      	movs	r2, #0
    8f7a:	701a      	strb	r2, [r3, #0]
    8f7c:	2301      	movs	r3, #1
    8f7e:	e000      	b.n	8f82 <_ZNK18ArduinoJson691_11011VariantData6acceptINS_14JsonSerializerINS_18StaticStringWriterEEEEEvRT_+0x852>
    8f80:	2300      	movs	r3, #0
    8f82:	6862      	ldr	r2, [r4, #4]
    8f84:	4413      	add	r3, r2
    8f86:	6063      	str	r3, [r4, #4]
    8f88:	e2b4      	b.n	94f4 <_ZNK18ArduinoJson691_11011VariantData6acceptINS_14JsonSerializerINS_18StaticStringWriterEEEEEvRT_+0xdc4>
    8f8a:	6823      	ldr	r3, [r4, #0]
    8f8c:	685a      	ldr	r2, [r3, #4]
    8f8e:	6819      	ldr	r1, [r3, #0]
    8f90:	428a      	cmp	r2, r1
    8f92:	d208      	bcs.n	8fa6 <_ZNK18ArduinoJson691_11011VariantData6acceptINS_14JsonSerializerINS_18StaticStringWriterEEEEEvRT_+0x876>
    8f94:	1c51      	adds	r1, r2, #1
    8f96:	6059      	str	r1, [r3, #4]
    8f98:	217b      	movs	r1, #123	; 0x7b
    8f9a:	7011      	strb	r1, [r2, #0]
    8f9c:	685b      	ldr	r3, [r3, #4]
    8f9e:	2200      	movs	r2, #0
    8fa0:	701a      	strb	r2, [r3, #0]
    8fa2:	2301      	movs	r3, #1
    8fa4:	e000      	b.n	8fa8 <_ZNK18ArduinoJson691_11011VariantData6acceptINS_14JsonSerializerINS_18StaticStringWriterEEEEEvRT_+0x878>
    8fa6:	2300      	movs	r3, #0
    8fa8:	6862      	ldr	r2, [r4, #4]
    8faa:	4413      	add	r3, r2
    8fac:	6063      	str	r3, [r4, #4]
    8fae:	6806      	ldr	r6, [r0, #0]
    8fb0:	2e00      	cmp	r6, #0
    8fb2:	f000 80c4 	beq.w	913e <_ZNK18ArduinoJson691_11011VariantData6acceptINS_14JsonSerializerINS_18StaticStringWriterEEEEEvRT_+0xa0e>
    8fb6:	4d10      	ldr	r5, [pc, #64]	; (8ff8 <_ZNK18ArduinoJson691_11011VariantData6acceptINS_14JsonSerializerINS_18StaticStringWriterEEEEEvRT_+0x8c8>)
    8fb8:	f8df a040 	ldr.w	sl, [pc, #64]	; 8ffc <_ZNK18ArduinoJson691_11011VariantData6acceptINS_14JsonSerializerINS_18StaticStringWriterEEEEEvRT_+0x8cc>
    8fbc:	68f1      	ldr	r1, [r6, #12]
    8fbe:	bb41      	cbnz	r1, 9012 <_ZNK18ArduinoJson691_11011VariantData6acceptINS_14JsonSerializerINS_18StaticStringWriterEEEEEvRT_+0x8e2>
    8fc0:	6822      	ldr	r2, [r4, #0]
    8fc2:	6857      	ldr	r7, [r2, #4]
    8fc4:	6813      	ldr	r3, [r2, #0]
    8fc6:	42bb      	cmp	r3, r7
    8fc8:	d91a      	bls.n	9000 <_ZNK18ArduinoJson691_11011VariantData6acceptINS_14JsonSerializerINS_18StaticStringWriterEEEEEvRT_+0x8d0>
    8fca:	4651      	mov	r1, sl
    8fcc:	f10a 0e04 	add.w	lr, sl, #4
    8fd0:	463b      	mov	r3, r7
    8fd2:	1c58      	adds	r0, r3, #1
    8fd4:	6050      	str	r0, [r2, #4]
    8fd6:	f811 0f01 	ldrb.w	r0, [r1, #1]!
    8fda:	7018      	strb	r0, [r3, #0]
    8fdc:	6853      	ldr	r3, [r2, #4]
    8fde:	6810      	ldr	r0, [r2, #0]
    8fe0:	4283      	cmp	r3, r0
    8fe2:	d20e      	bcs.n	9002 <_ZNK18ArduinoJson691_11011VariantData6acceptINS_14JsonSerializerINS_18StaticStringWriterEEEEEvRT_+0x8d2>
    8fe4:	4571      	cmp	r1, lr
    8fe6:	d1f4      	bne.n	8fd2 <_ZNK18ArduinoJson691_11011VariantData6acceptINS_14JsonSerializerINS_18StaticStringWriterEEEEEvRT_+0x8a2>
    8fe8:	e00b      	b.n	9002 <_ZNK18ArduinoJson691_11011VariantData6acceptINS_14JsonSerializerINS_18StaticStringWriterEEEEEvRT_+0x8d2>
    8fea:	bf00      	nop
    8fec:	cccccccd 	.word	0xcccccccd
    8ff0:	66666667 	.word	0x66666667
    8ff4:	00008731 	.word	0x00008731
    8ff8:	00011668 	.word	0x00011668
    8ffc:	0001165f 	.word	0x0001165f
    9000:	463b      	mov	r3, r7
    9002:	2100      	movs	r1, #0
    9004:	7019      	strb	r1, [r3, #0]
    9006:	6853      	ldr	r3, [r2, #4]
    9008:	1bdf      	subs	r7, r3, r7
    900a:	6863      	ldr	r3, [r4, #4]
    900c:	443b      	add	r3, r7
    900e:	6063      	str	r3, [r4, #4]
    9010:	e06a      	b.n	90e8 <_ZNK18ArduinoJson691_11011VariantData6acceptINS_14JsonSerializerINS_18StaticStringWriterEEEEEvRT_+0x9b8>
    9012:	6823      	ldr	r3, [r4, #0]
    9014:	685a      	ldr	r2, [r3, #4]
    9016:	6818      	ldr	r0, [r3, #0]
    9018:	4282      	cmp	r2, r0
    901a:	d208      	bcs.n	902e <_ZNK18ArduinoJson691_11011VariantData6acceptINS_14JsonSerializerINS_18StaticStringWriterEEEEEvRT_+0x8fe>
    901c:	1c50      	adds	r0, r2, #1
    901e:	6058      	str	r0, [r3, #4]
    9020:	2022      	movs	r0, #34	; 0x22
    9022:	7010      	strb	r0, [r2, #0]
    9024:	685b      	ldr	r3, [r3, #4]
    9026:	2200      	movs	r2, #0
    9028:	701a      	strb	r2, [r3, #0]
    902a:	2201      	movs	r2, #1
    902c:	e000      	b.n	9030 <_ZNK18ArduinoJson691_11011VariantData6acceptINS_14JsonSerializerINS_18StaticStringWriterEEEEEvRT_+0x900>
    902e:	2200      	movs	r2, #0
    9030:	6863      	ldr	r3, [r4, #4]
    9032:	4413      	add	r3, r2
    9034:	6063      	str	r3, [r4, #4]
    9036:	3901      	subs	r1, #1
    9038:	2000      	movs	r0, #0
    903a:	f04f 0e01 	mov.w	lr, #1
    903e:	f04f 0c5c 	mov.w	ip, #92	; 0x5c
    9042:	e03a      	b.n	90ba <_ZNK18ArduinoJson691_11011VariantData6acceptINS_14JsonSerializerINS_18StaticStringWriterEEEEEvRT_+0x98a>
    9044:	f1b8 0f22 	cmp.w	r8, #34	; 0x22
    9048:	f000 8237 	beq.w	94ba <_ZNK18ArduinoJson691_11011VariantData6acceptINS_14JsonSerializerINS_18StaticStringWriterEEEEEvRT_+0xd8a>
    904c:	462b      	mov	r3, r5
    904e:	789a      	ldrb	r2, [r3, #2]
    9050:	2a00      	cmp	r2, #0
    9052:	f000 822b 	beq.w	94ac <_ZNK18ArduinoJson691_11011VariantData6acceptINS_14JsonSerializerINS_18StaticStringWriterEEEEEvRT_+0xd7c>
    9056:	3302      	adds	r3, #2
    9058:	785f      	ldrb	r7, [r3, #1]
    905a:	4547      	cmp	r7, r8
    905c:	d1f7      	bne.n	904e <_ZNK18ArduinoJson691_11011VariantData6acceptINS_14JsonSerializerINS_18StaticStringWriterEEEEEvRT_+0x91e>
    905e:	e22d      	b.n	94bc <_ZNK18ArduinoJson691_11011VariantData6acceptINS_14JsonSerializerINS_18StaticStringWriterEEEEEvRT_+0xd8c>
    9060:	f108 0301 	add.w	r3, r8, #1
    9064:	607b      	str	r3, [r7, #4]
    9066:	f888 c000 	strb.w	ip, [r8]
    906a:	687b      	ldr	r3, [r7, #4]
    906c:	7018      	strb	r0, [r3, #0]
    906e:	4677      	mov	r7, lr
    9070:	e000      	b.n	9074 <_ZNK18ArduinoJson691_11011VariantData6acceptINS_14JsonSerializerINS_18StaticStringWriterEEEEEvRT_+0x944>
    9072:	4607      	mov	r7, r0
    9074:	6863      	ldr	r3, [r4, #4]
    9076:	443b      	add	r3, r7
    9078:	6063      	str	r3, [r4, #4]
    907a:	6827      	ldr	r7, [r4, #0]
    907c:	f8d7 8004 	ldr.w	r8, [r7, #4]
    9080:	683b      	ldr	r3, [r7, #0]
    9082:	4598      	cmp	r8, r3
    9084:	d208      	bcs.n	9098 <_ZNK18ArduinoJson691_11011VariantData6acceptINS_14JsonSerializerINS_18StaticStringWriterEEEEEvRT_+0x968>
    9086:	f108 0301 	add.w	r3, r8, #1
    908a:	607b      	str	r3, [r7, #4]
    908c:	f888 2000 	strb.w	r2, [r8]
    9090:	687b      	ldr	r3, [r7, #4]
    9092:	7018      	strb	r0, [r3, #0]
    9094:	4672      	mov	r2, lr
    9096:	e000      	b.n	909a <_ZNK18ArduinoJson691_11011VariantData6acceptINS_14JsonSerializerINS_18StaticStringWriterEEEEEvRT_+0x96a>
    9098:	4602      	mov	r2, r0
    909a:	6863      	ldr	r3, [r4, #4]
    909c:	4413      	add	r3, r2
    909e:	6063      	str	r3, [r4, #4]
    90a0:	e00b      	b.n	90ba <_ZNK18ArduinoJson691_11011VariantData6acceptINS_14JsonSerializerINS_18StaticStringWriterEEEEEvRT_+0x98a>
    90a2:	1c7b      	adds	r3, r7, #1
    90a4:	6053      	str	r3, [r2, #4]
    90a6:	f887 8000 	strb.w	r8, [r7]
    90aa:	6853      	ldr	r3, [r2, #4]
    90ac:	7018      	strb	r0, [r3, #0]
    90ae:	4672      	mov	r2, lr
    90b0:	e000      	b.n	90b4 <_ZNK18ArduinoJson691_11011VariantData6acceptINS_14JsonSerializerINS_18StaticStringWriterEEEEEvRT_+0x984>
    90b2:	4602      	mov	r2, r0
    90b4:	6863      	ldr	r3, [r4, #4]
    90b6:	4413      	add	r3, r2
    90b8:	6063      	str	r3, [r4, #4]
    90ba:	f811 8f01 	ldrb.w	r8, [r1, #1]!
    90be:	f1b8 0f00 	cmp.w	r8, #0
    90c2:	d1bf      	bne.n	9044 <_ZNK18ArduinoJson691_11011VariantData6acceptINS_14JsonSerializerINS_18StaticStringWriterEEEEEvRT_+0x914>
    90c4:	6823      	ldr	r3, [r4, #0]
    90c6:	685a      	ldr	r2, [r3, #4]
    90c8:	6819      	ldr	r1, [r3, #0]
    90ca:	428a      	cmp	r2, r1
    90cc:	d208      	bcs.n	90e0 <_ZNK18ArduinoJson691_11011VariantData6acceptINS_14JsonSerializerINS_18StaticStringWriterEEEEEvRT_+0x9b0>
    90ce:	1c51      	adds	r1, r2, #1
    90d0:	6059      	str	r1, [r3, #4]
    90d2:	2122      	movs	r1, #34	; 0x22
    90d4:	7011      	strb	r1, [r2, #0]
    90d6:	685b      	ldr	r3, [r3, #4]
    90d8:	2200      	movs	r2, #0
    90da:	701a      	strb	r2, [r3, #0]
    90dc:	2201      	movs	r2, #1
    90de:	e000      	b.n	90e2 <_ZNK18ArduinoJson691_11011VariantData6acceptINS_14JsonSerializerINS_18StaticStringWriterEEEEEvRT_+0x9b2>
    90e0:	2200      	movs	r2, #0
    90e2:	6863      	ldr	r3, [r4, #4]
    90e4:	4413      	add	r3, r2
    90e6:	6063      	str	r3, [r4, #4]
    90e8:	6823      	ldr	r3, [r4, #0]
    90ea:	685a      	ldr	r2, [r3, #4]
    90ec:	6819      	ldr	r1, [r3, #0]
    90ee:	428a      	cmp	r2, r1
    90f0:	d208      	bcs.n	9104 <_ZNK18ArduinoJson691_11011VariantData6acceptINS_14JsonSerializerINS_18StaticStringWriterEEEEEvRT_+0x9d4>
    90f2:	1c51      	adds	r1, r2, #1
    90f4:	6059      	str	r1, [r3, #4]
    90f6:	213a      	movs	r1, #58	; 0x3a
    90f8:	7011      	strb	r1, [r2, #0]
    90fa:	685b      	ldr	r3, [r3, #4]
    90fc:	2200      	movs	r2, #0
    90fe:	701a      	strb	r2, [r3, #0]
    9100:	2201      	movs	r2, #1
    9102:	e000      	b.n	9106 <_ZNK18ArduinoJson691_11011VariantData6acceptINS_14JsonSerializerINS_18StaticStringWriterEEEEEvRT_+0x9d6>
    9104:	2200      	movs	r2, #0
    9106:	6863      	ldr	r3, [r4, #4]
    9108:	4413      	add	r3, r2
    910a:	6063      	str	r3, [r4, #4]
    910c:	4630      	mov	r0, r6
    910e:	4621      	mov	r1, r4
    9110:	4b90      	ldr	r3, [pc, #576]	; (9354 <_ZNK18ArduinoJson691_11011VariantData6acceptINS_14JsonSerializerINS_18StaticStringWriterEEEEEvRT_+0xc24>)
    9112:	4798      	blx	r3
    9114:	8973      	ldrh	r3, [r6, #10]
    9116:	b193      	cbz	r3, 913e <_ZNK18ArduinoJson691_11011VariantData6acceptINS_14JsonSerializerINS_18StaticStringWriterEEEEEvRT_+0xa0e>
    9118:	b21b      	sxth	r3, r3
    911a:	eb16 1603 	adds.w	r6, r6, r3, lsl #4
    911e:	d00e      	beq.n	913e <_ZNK18ArduinoJson691_11011VariantData6acceptINS_14JsonSerializerINS_18StaticStringWriterEEEEEvRT_+0xa0e>
    9120:	6823      	ldr	r3, [r4, #0]
    9122:	685a      	ldr	r2, [r3, #4]
    9124:	6819      	ldr	r1, [r3, #0]
    9126:	428a      	cmp	r2, r1
    9128:	f080 81d0 	bcs.w	94cc <_ZNK18ArduinoJson691_11011VariantData6acceptINS_14JsonSerializerINS_18StaticStringWriterEEEEEvRT_+0xd9c>
    912c:	1c51      	adds	r1, r2, #1
    912e:	6059      	str	r1, [r3, #4]
    9130:	212c      	movs	r1, #44	; 0x2c
    9132:	7011      	strb	r1, [r2, #0]
    9134:	685b      	ldr	r3, [r3, #4]
    9136:	2200      	movs	r2, #0
    9138:	701a      	strb	r2, [r3, #0]
    913a:	2201      	movs	r2, #1
    913c:	e1c7      	b.n	94ce <_ZNK18ArduinoJson691_11011VariantData6acceptINS_14JsonSerializerINS_18StaticStringWriterEEEEEvRT_+0xd9e>
    913e:	6823      	ldr	r3, [r4, #0]
    9140:	685a      	ldr	r2, [r3, #4]
    9142:	6819      	ldr	r1, [r3, #0]
    9144:	428a      	cmp	r2, r1
    9146:	d208      	bcs.n	915a <_ZNK18ArduinoJson691_11011VariantData6acceptINS_14JsonSerializerINS_18StaticStringWriterEEEEEvRT_+0xa2a>
    9148:	1c51      	adds	r1, r2, #1
    914a:	6059      	str	r1, [r3, #4]
    914c:	217d      	movs	r1, #125	; 0x7d
    914e:	7011      	strb	r1, [r2, #0]
    9150:	685b      	ldr	r3, [r3, #4]
    9152:	2200      	movs	r2, #0
    9154:	701a      	strb	r2, [r3, #0]
    9156:	2301      	movs	r3, #1
    9158:	e000      	b.n	915c <_ZNK18ArduinoJson691_11011VariantData6acceptINS_14JsonSerializerINS_18StaticStringWriterEEEEEvRT_+0xa2c>
    915a:	2300      	movs	r3, #0
    915c:	6862      	ldr	r2, [r4, #4]
    915e:	4413      	add	r3, r2
    9160:	6063      	str	r3, [r4, #4]
    9162:	e1c7      	b.n	94f4 <_ZNK18ArduinoJson691_11011VariantData6acceptINS_14JsonSerializerINS_18StaticStringWriterEEEEEvRT_+0xdc4>
    9164:	6805      	ldr	r5, [r0, #0]
    9166:	b9e5      	cbnz	r5, 91a2 <_ZNK18ArduinoJson691_11011VariantData6acceptINS_14JsonSerializerINS_18StaticStringWriterEEEEEvRT_+0xa72>
    9168:	6823      	ldr	r3, [r4, #0]
    916a:	6859      	ldr	r1, [r3, #4]
    916c:	681a      	ldr	r2, [r3, #0]
    916e:	428a      	cmp	r2, r1
    9170:	d90e      	bls.n	9190 <_ZNK18ArduinoJson691_11011VariantData6acceptINS_14JsonSerializerINS_18StaticStringWriterEEEEEvRT_+0xa60>
    9172:	4879      	ldr	r0, [pc, #484]	; (9358 <_ZNK18ArduinoJson691_11011VariantData6acceptINS_14JsonSerializerINS_18StaticStringWriterEEEEEvRT_+0xc28>)
    9174:	1d06      	adds	r6, r0, #4
    9176:	460a      	mov	r2, r1
    9178:	1c55      	adds	r5, r2, #1
    917a:	605d      	str	r5, [r3, #4]
    917c:	f810 5f01 	ldrb.w	r5, [r0, #1]!
    9180:	7015      	strb	r5, [r2, #0]
    9182:	685a      	ldr	r2, [r3, #4]
    9184:	681d      	ldr	r5, [r3, #0]
    9186:	42aa      	cmp	r2, r5
    9188:	d203      	bcs.n	9192 <_ZNK18ArduinoJson691_11011VariantData6acceptINS_14JsonSerializerINS_18StaticStringWriterEEEEEvRT_+0xa62>
    918a:	42b0      	cmp	r0, r6
    918c:	d1f4      	bne.n	9178 <_ZNK18ArduinoJson691_11011VariantData6acceptINS_14JsonSerializerINS_18StaticStringWriterEEEEEvRT_+0xa48>
    918e:	e000      	b.n	9192 <_ZNK18ArduinoJson691_11011VariantData6acceptINS_14JsonSerializerINS_18StaticStringWriterEEEEEvRT_+0xa62>
    9190:	460a      	mov	r2, r1
    9192:	2000      	movs	r0, #0
    9194:	7010      	strb	r0, [r2, #0]
    9196:	685b      	ldr	r3, [r3, #4]
    9198:	1a59      	subs	r1, r3, r1
    919a:	6863      	ldr	r3, [r4, #4]
    919c:	440b      	add	r3, r1
    919e:	6063      	str	r3, [r4, #4]
    91a0:	e1a8      	b.n	94f4 <_ZNK18ArduinoJson691_11011VariantData6acceptINS_14JsonSerializerINS_18StaticStringWriterEEEEEvRT_+0xdc4>
    91a2:	6823      	ldr	r3, [r4, #0]
    91a4:	685a      	ldr	r2, [r3, #4]
    91a6:	6819      	ldr	r1, [r3, #0]
    91a8:	428a      	cmp	r2, r1
    91aa:	d208      	bcs.n	91be <_ZNK18ArduinoJson691_11011VariantData6acceptINS_14JsonSerializerINS_18StaticStringWriterEEEEEvRT_+0xa8e>
    91ac:	1c51      	adds	r1, r2, #1
    91ae:	6059      	str	r1, [r3, #4]
    91b0:	2122      	movs	r1, #34	; 0x22
    91b2:	7011      	strb	r1, [r2, #0]
    91b4:	685b      	ldr	r3, [r3, #4]
    91b6:	2200      	movs	r2, #0
    91b8:	701a      	strb	r2, [r3, #0]
    91ba:	2301      	movs	r3, #1
    91bc:	e000      	b.n	91c0 <_ZNK18ArduinoJson691_11011VariantData6acceptINS_14JsonSerializerINS_18StaticStringWriterEEEEEvRT_+0xa90>
    91be:	2300      	movs	r3, #0
    91c0:	6862      	ldr	r2, [r4, #4]
    91c2:	4413      	add	r3, r2
    91c4:	6063      	str	r3, [r4, #4]
    91c6:	3d01      	subs	r5, #1
    91c8:	2600      	movs	r6, #0
    91ca:	f04f 0c01 	mov.w	ip, #1
    91ce:	f04f 085c 	mov.w	r8, #92	; 0x5c
    91d2:	4f62      	ldr	r7, [pc, #392]	; (935c <_ZNK18ArduinoJson691_11011VariantData6acceptINS_14JsonSerializerINS_18StaticStringWriterEEEEEvRT_+0xc2c>)
    91d4:	e034      	b.n	9240 <_ZNK18ArduinoJson691_11011VariantData6acceptINS_14JsonSerializerINS_18StaticStringWriterEEEEEvRT_+0xb10>
    91d6:	2822      	cmp	r0, #34	; 0x22
    91d8:	f000 817d 	beq.w	94d6 <_ZNK18ArduinoJson691_11011VariantData6acceptINS_14JsonSerializerINS_18StaticStringWriterEEEEEvRT_+0xda6>
    91dc:	463b      	mov	r3, r7
    91de:	789a      	ldrb	r2, [r3, #2]
    91e0:	2a00      	cmp	r2, #0
    91e2:	f000 8180 	beq.w	94e6 <_ZNK18ArduinoJson691_11011VariantData6acceptINS_14JsonSerializerINS_18StaticStringWriterEEEEEvRT_+0xdb6>
    91e6:	3302      	adds	r3, #2
    91e8:	7859      	ldrb	r1, [r3, #1]
    91ea:	4281      	cmp	r1, r0
    91ec:	d1f7      	bne.n	91de <_ZNK18ArduinoJson691_11011VariantData6acceptINS_14JsonSerializerINS_18StaticStringWriterEEEEEvRT_+0xaae>
    91ee:	e173      	b.n	94d8 <_ZNK18ArduinoJson691_11011VariantData6acceptINS_14JsonSerializerINS_18StaticStringWriterEEEEEvRT_+0xda8>
    91f0:	1c48      	adds	r0, r1, #1
    91f2:	6058      	str	r0, [r3, #4]
    91f4:	f881 8000 	strb.w	r8, [r1]
    91f8:	685b      	ldr	r3, [r3, #4]
    91fa:	701e      	strb	r6, [r3, #0]
    91fc:	4661      	mov	r1, ip
    91fe:	e000      	b.n	9202 <_ZNK18ArduinoJson691_11011VariantData6acceptINS_14JsonSerializerINS_18StaticStringWriterEEEEEvRT_+0xad2>
    9200:	4631      	mov	r1, r6
    9202:	6863      	ldr	r3, [r4, #4]
    9204:	440b      	add	r3, r1
    9206:	6063      	str	r3, [r4, #4]
    9208:	6823      	ldr	r3, [r4, #0]
    920a:	6859      	ldr	r1, [r3, #4]
    920c:	6818      	ldr	r0, [r3, #0]
    920e:	4281      	cmp	r1, r0
    9210:	d206      	bcs.n	9220 <_ZNK18ArduinoJson691_11011VariantData6acceptINS_14JsonSerializerINS_18StaticStringWriterEEEEEvRT_+0xaf0>
    9212:	1c48      	adds	r0, r1, #1
    9214:	6058      	str	r0, [r3, #4]
    9216:	700a      	strb	r2, [r1, #0]
    9218:	685b      	ldr	r3, [r3, #4]
    921a:	701e      	strb	r6, [r3, #0]
    921c:	4662      	mov	r2, ip
    921e:	e000      	b.n	9222 <_ZNK18ArduinoJson691_11011VariantData6acceptINS_14JsonSerializerINS_18StaticStringWriterEEEEEvRT_+0xaf2>
    9220:	4632      	mov	r2, r6
    9222:	6863      	ldr	r3, [r4, #4]
    9224:	4413      	add	r3, r2
    9226:	6063      	str	r3, [r4, #4]
    9228:	e00a      	b.n	9240 <_ZNK18ArduinoJson691_11011VariantData6acceptINS_14JsonSerializerINS_18StaticStringWriterEEEEEvRT_+0xb10>
    922a:	1c51      	adds	r1, r2, #1
    922c:	6059      	str	r1, [r3, #4]
    922e:	7010      	strb	r0, [r2, #0]
    9230:	685b      	ldr	r3, [r3, #4]
    9232:	701e      	strb	r6, [r3, #0]
    9234:	4662      	mov	r2, ip
    9236:	e000      	b.n	923a <_ZNK18ArduinoJson691_11011VariantData6acceptINS_14JsonSerializerINS_18StaticStringWriterEEEEEvRT_+0xb0a>
    9238:	4632      	mov	r2, r6
    923a:	6863      	ldr	r3, [r4, #4]
    923c:	4413      	add	r3, r2
    923e:	6063      	str	r3, [r4, #4]
    9240:	f815 0f01 	ldrb.w	r0, [r5, #1]!
    9244:	2800      	cmp	r0, #0
    9246:	d1c6      	bne.n	91d6 <_ZNK18ArduinoJson691_11011VariantData6acceptINS_14JsonSerializerINS_18StaticStringWriterEEEEEvRT_+0xaa6>
    9248:	6823      	ldr	r3, [r4, #0]
    924a:	685a      	ldr	r2, [r3, #4]
    924c:	6819      	ldr	r1, [r3, #0]
    924e:	428a      	cmp	r2, r1
    9250:	d208      	bcs.n	9264 <_ZNK18ArduinoJson691_11011VariantData6acceptINS_14JsonSerializerINS_18StaticStringWriterEEEEEvRT_+0xb34>
    9252:	1c51      	adds	r1, r2, #1
    9254:	6059      	str	r1, [r3, #4]
    9256:	2122      	movs	r1, #34	; 0x22
    9258:	7011      	strb	r1, [r2, #0]
    925a:	685b      	ldr	r3, [r3, #4]
    925c:	2200      	movs	r2, #0
    925e:	701a      	strb	r2, [r3, #0]
    9260:	2301      	movs	r3, #1
    9262:	e000      	b.n	9266 <_ZNK18ArduinoJson691_11011VariantData6acceptINS_14JsonSerializerINS_18StaticStringWriterEEEEEvRT_+0xb36>
    9264:	2300      	movs	r3, #0
    9266:	6862      	ldr	r2, [r4, #4]
    9268:	4413      	add	r3, r2
    926a:	6063      	str	r3, [r4, #4]
    926c:	e142      	b.n	94f4 <_ZNK18ArduinoJson691_11011VariantData6acceptINS_14JsonSerializerINS_18StaticStringWriterEEEEEvRT_+0xdc4>
    926e:	6805      	ldr	r5, [r0, #0]
    9270:	6841      	ldr	r1, [r0, #4]
    9272:	6822      	ldr	r2, [r4, #0]
    9274:	6856      	ldr	r6, [r2, #4]
    9276:	6813      	ldr	r3, [r2, #0]
    9278:	42b3      	cmp	r3, r6
    927a:	d90e      	bls.n	929a <_ZNK18ArduinoJson691_11011VariantData6acceptINS_14JsonSerializerINS_18StaticStringWriterEEEEEvRT_+0xb6a>
    927c:	b179      	cbz	r1, 929e <_ZNK18ArduinoJson691_11011VariantData6acceptINS_14JsonSerializerINS_18StaticStringWriterEEEEEvRT_+0xb6e>
    927e:	4633      	mov	r3, r6
    9280:	1c58      	adds	r0, r3, #1
    9282:	6050      	str	r0, [r2, #4]
    9284:	f815 0b01 	ldrb.w	r0, [r5], #1
    9288:	7018      	strb	r0, [r3, #0]
    928a:	3901      	subs	r1, #1
    928c:	6853      	ldr	r3, [r2, #4]
    928e:	6810      	ldr	r0, [r2, #0]
    9290:	4283      	cmp	r3, r0
    9292:	d205      	bcs.n	92a0 <_ZNK18ArduinoJson691_11011VariantData6acceptINS_14JsonSerializerINS_18StaticStringWriterEEEEEvRT_+0xb70>
    9294:	2900      	cmp	r1, #0
    9296:	d1f3      	bne.n	9280 <_ZNK18ArduinoJson691_11011VariantData6acceptINS_14JsonSerializerINS_18StaticStringWriterEEEEEvRT_+0xb50>
    9298:	e002      	b.n	92a0 <_ZNK18ArduinoJson691_11011VariantData6acceptINS_14JsonSerializerINS_18StaticStringWriterEEEEEvRT_+0xb70>
    929a:	4633      	mov	r3, r6
    929c:	e000      	b.n	92a0 <_ZNK18ArduinoJson691_11011VariantData6acceptINS_14JsonSerializerINS_18StaticStringWriterEEEEEvRT_+0xb70>
    929e:	4633      	mov	r3, r6
    92a0:	2100      	movs	r1, #0
    92a2:	7019      	strb	r1, [r3, #0]
    92a4:	6853      	ldr	r3, [r2, #4]
    92a6:	1b9e      	subs	r6, r3, r6
    92a8:	6863      	ldr	r3, [r4, #4]
    92aa:	4433      	add	r3, r6
    92ac:	6063      	str	r3, [r4, #4]
    92ae:	e121      	b.n	94f4 <_ZNK18ArduinoJson691_11011VariantData6acceptINS_14JsonSerializerINS_18StaticStringWriterEEEEEvRT_+0xdc4>
    92b0:	e9d0 6700 	ldrd	r6, r7, [r0]
    92b4:	6823      	ldr	r3, [r4, #0]
    92b6:	685a      	ldr	r2, [r3, #4]
    92b8:	6819      	ldr	r1, [r3, #0]
    92ba:	428a      	cmp	r2, r1
    92bc:	d208      	bcs.n	92d0 <_ZNK18ArduinoJson691_11011VariantData6acceptINS_14JsonSerializerINS_18StaticStringWriterEEEEEvRT_+0xba0>
    92be:	1c51      	adds	r1, r2, #1
    92c0:	6059      	str	r1, [r3, #4]
    92c2:	212d      	movs	r1, #45	; 0x2d
    92c4:	7011      	strb	r1, [r2, #0]
    92c6:	685b      	ldr	r3, [r3, #4]
    92c8:	2200      	movs	r2, #0
    92ca:	701a      	strb	r2, [r3, #0]
    92cc:	2301      	movs	r3, #1
    92ce:	e000      	b.n	92d2 <_ZNK18ArduinoJson691_11011VariantData6acceptINS_14JsonSerializerINS_18StaticStringWriterEEEEEvRT_+0xba2>
    92d0:	2300      	movs	r3, #0
    92d2:	6862      	ldr	r2, [r4, #4]
    92d4:	4413      	add	r3, r2
    92d6:	6063      	str	r3, [r4, #4]
    92d8:	f10d 051d 	add.w	r5, sp, #29
    92dc:	f8df b080 	ldr.w	fp, [pc, #128]	; 9360 <_ZNK18ArduinoJson691_11011VariantData6acceptINS_14JsonSerializerINS_18StaticStringWriterEEEEEvRT_+0xc30>
    92e0:	f04f 080a 	mov.w	r8, #10
    92e4:	f04f 0900 	mov.w	r9, #0
    92e8:	46aa      	mov	sl, r5
    92ea:	4630      	mov	r0, r6
    92ec:	4639      	mov	r1, r7
    92ee:	4642      	mov	r2, r8
    92f0:	464b      	mov	r3, r9
    92f2:	47d8      	blx	fp
    92f4:	3230      	adds	r2, #48	; 0x30
    92f6:	f805 2901 	strb.w	r2, [r5], #-1
    92fa:	4630      	mov	r0, r6
    92fc:	4639      	mov	r1, r7
    92fe:	4642      	mov	r2, r8
    9300:	464b      	mov	r3, r9
    9302:	47d8      	blx	fp
    9304:	4606      	mov	r6, r0
    9306:	460f      	mov	r7, r1
    9308:	ea56 0007 	orrs.w	r0, r6, r7
    930c:	d1ec      	bne.n	92e8 <_ZNK18ArduinoJson691_11011VariantData6acceptINS_14JsonSerializerINS_18StaticStringWriterEEEEEvRT_+0xbb8>
    930e:	6822      	ldr	r2, [r4, #0]
    9310:	f10d 011e 	add.w	r1, sp, #30
    9314:	ebca 0101 	rsb	r1, sl, r1
    9318:	6855      	ldr	r5, [r2, #4]
    931a:	6813      	ldr	r3, [r2, #0]
    931c:	42ab      	cmp	r3, r5
    931e:	d90e      	bls.n	933e <_ZNK18ArduinoJson691_11011VariantData6acceptINS_14JsonSerializerINS_18StaticStringWriterEEEEEvRT_+0xc0e>
    9320:	b179      	cbz	r1, 9342 <_ZNK18ArduinoJson691_11011VariantData6acceptINS_14JsonSerializerINS_18StaticStringWriterEEEEEvRT_+0xc12>
    9322:	462b      	mov	r3, r5
    9324:	1c58      	adds	r0, r3, #1
    9326:	6050      	str	r0, [r2, #4]
    9328:	f81a 0b01 	ldrb.w	r0, [sl], #1
    932c:	7018      	strb	r0, [r3, #0]
    932e:	3901      	subs	r1, #1
    9330:	6853      	ldr	r3, [r2, #4]
    9332:	6810      	ldr	r0, [r2, #0]
    9334:	4283      	cmp	r3, r0
    9336:	d205      	bcs.n	9344 <_ZNK18ArduinoJson691_11011VariantData6acceptINS_14JsonSerializerINS_18StaticStringWriterEEEEEvRT_+0xc14>
    9338:	2900      	cmp	r1, #0
    933a:	d1f3      	bne.n	9324 <_ZNK18ArduinoJson691_11011VariantData6acceptINS_14JsonSerializerINS_18StaticStringWriterEEEEEvRT_+0xbf4>
    933c:	e002      	b.n	9344 <_ZNK18ArduinoJson691_11011VariantData6acceptINS_14JsonSerializerINS_18StaticStringWriterEEEEEvRT_+0xc14>
    933e:	462b      	mov	r3, r5
    9340:	e000      	b.n	9344 <_ZNK18ArduinoJson691_11011VariantData6acceptINS_14JsonSerializerINS_18StaticStringWriterEEEEEvRT_+0xc14>
    9342:	462b      	mov	r3, r5
    9344:	2100      	movs	r1, #0
    9346:	7019      	strb	r1, [r3, #0]
    9348:	6853      	ldr	r3, [r2, #4]
    934a:	1b5d      	subs	r5, r3, r5
    934c:	6863      	ldr	r3, [r4, #4]
    934e:	442b      	add	r3, r5
    9350:	6063      	str	r3, [r4, #4]
    9352:	e0cf      	b.n	94f4 <_ZNK18ArduinoJson691_11011VariantData6acceptINS_14JsonSerializerINS_18StaticStringWriterEEEEEvRT_+0xdc4>
    9354:	00008731 	.word	0x00008731
    9358:	0001165f 	.word	0x0001165f
    935c:	00011668 	.word	0x00011668
    9360:	0000a989 	.word	0x0000a989
    9364:	e9d0 6700 	ldrd	r6, r7, [r0]
    9368:	f10d 051d 	add.w	r5, sp, #29
    936c:	f8df b19c 	ldr.w	fp, [pc, #412]	; 950c <_ZNK18ArduinoJson691_11011VariantData6acceptINS_14JsonSerializerINS_18StaticStringWriterEEEEEvRT_+0xddc>
    9370:	f04f 080a 	mov.w	r8, #10
    9374:	f04f 0900 	mov.w	r9, #0
    9378:	46aa      	mov	sl, r5
    937a:	4630      	mov	r0, r6
    937c:	4639      	mov	r1, r7
    937e:	4642      	mov	r2, r8
    9380:	464b      	mov	r3, r9
    9382:	47d8      	blx	fp
    9384:	3230      	adds	r2, #48	; 0x30
    9386:	f805 2901 	strb.w	r2, [r5], #-1
    938a:	4630      	mov	r0, r6
    938c:	4639      	mov	r1, r7
    938e:	4642      	mov	r2, r8
    9390:	464b      	mov	r3, r9
    9392:	47d8      	blx	fp
    9394:	4606      	mov	r6, r0
    9396:	460f      	mov	r7, r1
    9398:	ea56 0107 	orrs.w	r1, r6, r7
    939c:	d1ec      	bne.n	9378 <_ZNK18ArduinoJson691_11011VariantData6acceptINS_14JsonSerializerINS_18StaticStringWriterEEEEEvRT_+0xc48>
    939e:	6822      	ldr	r2, [r4, #0]
    93a0:	f10d 011e 	add.w	r1, sp, #30
    93a4:	ebca 0101 	rsb	r1, sl, r1
    93a8:	6855      	ldr	r5, [r2, #4]
    93aa:	6813      	ldr	r3, [r2, #0]
    93ac:	42ab      	cmp	r3, r5
    93ae:	d90e      	bls.n	93ce <_ZNK18ArduinoJson691_11011VariantData6acceptINS_14JsonSerializerINS_18StaticStringWriterEEEEEvRT_+0xc9e>
    93b0:	b179      	cbz	r1, 93d2 <_ZNK18ArduinoJson691_11011VariantData6acceptINS_14JsonSerializerINS_18StaticStringWriterEEEEEvRT_+0xca2>
    93b2:	462b      	mov	r3, r5
    93b4:	1c58      	adds	r0, r3, #1
    93b6:	6050      	str	r0, [r2, #4]
    93b8:	f81a 0b01 	ldrb.w	r0, [sl], #1
    93bc:	7018      	strb	r0, [r3, #0]
    93be:	3901      	subs	r1, #1
    93c0:	6853      	ldr	r3, [r2, #4]
    93c2:	6810      	ldr	r0, [r2, #0]
    93c4:	4283      	cmp	r3, r0
    93c6:	d205      	bcs.n	93d4 <_ZNK18ArduinoJson691_11011VariantData6acceptINS_14JsonSerializerINS_18StaticStringWriterEEEEEvRT_+0xca4>
    93c8:	2900      	cmp	r1, #0
    93ca:	d1f3      	bne.n	93b4 <_ZNK18ArduinoJson691_11011VariantData6acceptINS_14JsonSerializerINS_18StaticStringWriterEEEEEvRT_+0xc84>
    93cc:	e002      	b.n	93d4 <_ZNK18ArduinoJson691_11011VariantData6acceptINS_14JsonSerializerINS_18StaticStringWriterEEEEEvRT_+0xca4>
    93ce:	462b      	mov	r3, r5
    93d0:	e000      	b.n	93d4 <_ZNK18ArduinoJson691_11011VariantData6acceptINS_14JsonSerializerINS_18StaticStringWriterEEEEEvRT_+0xca4>
    93d2:	462b      	mov	r3, r5
    93d4:	2100      	movs	r1, #0
    93d6:	7019      	strb	r1, [r3, #0]
    93d8:	6853      	ldr	r3, [r2, #4]
    93da:	1b5d      	subs	r5, r3, r5
    93dc:	6863      	ldr	r3, [r4, #4]
    93de:	442b      	add	r3, r5
    93e0:	6063      	str	r3, [r4, #4]
    93e2:	e087      	b.n	94f4 <_ZNK18ArduinoJson691_11011VariantData6acceptINS_14JsonSerializerINS_18StaticStringWriterEEEEEvRT_+0xdc4>
    93e4:	e9d0 2300 	ldrd	r2, r3, [r0]
    93e8:	ea52 0703 	orrs.w	r7, r2, r3
    93ec:	d01c      	beq.n	9428 <_ZNK18ArduinoJson691_11011VariantData6acceptINS_14JsonSerializerINS_18StaticStringWriterEEEEEvRT_+0xcf8>
    93ee:	6822      	ldr	r2, [r4, #0]
    93f0:	6855      	ldr	r5, [r2, #4]
    93f2:	6813      	ldr	r3, [r2, #0]
    93f4:	429d      	cmp	r5, r3
    93f6:	d20e      	bcs.n	9416 <_ZNK18ArduinoJson691_11011VariantData6acceptINS_14JsonSerializerINS_18StaticStringWriterEEEEEvRT_+0xce6>
    93f8:	4941      	ldr	r1, [pc, #260]	; (9500 <_ZNK18ArduinoJson691_11011VariantData6acceptINS_14JsonSerializerINS_18StaticStringWriterEEEEEvRT_+0xdd0>)
    93fa:	1d0e      	adds	r6, r1, #4
    93fc:	462b      	mov	r3, r5
    93fe:	1c58      	adds	r0, r3, #1
    9400:	6050      	str	r0, [r2, #4]
    9402:	f811 0f01 	ldrb.w	r0, [r1, #1]!
    9406:	7018      	strb	r0, [r3, #0]
    9408:	6853      	ldr	r3, [r2, #4]
    940a:	6810      	ldr	r0, [r2, #0]
    940c:	4283      	cmp	r3, r0
    940e:	d203      	bcs.n	9418 <_ZNK18ArduinoJson691_11011VariantData6acceptINS_14JsonSerializerINS_18StaticStringWriterEEEEEvRT_+0xce8>
    9410:	42b1      	cmp	r1, r6
    9412:	d1f4      	bne.n	93fe <_ZNK18ArduinoJson691_11011VariantData6acceptINS_14JsonSerializerINS_18StaticStringWriterEEEEEvRT_+0xcce>
    9414:	e000      	b.n	9418 <_ZNK18ArduinoJson691_11011VariantData6acceptINS_14JsonSerializerINS_18StaticStringWriterEEEEEvRT_+0xce8>
    9416:	462b      	mov	r3, r5
    9418:	2100      	movs	r1, #0
    941a:	7019      	strb	r1, [r3, #0]
    941c:	6853      	ldr	r3, [r2, #4]
    941e:	1b5d      	subs	r5, r3, r5
    9420:	6863      	ldr	r3, [r4, #4]
    9422:	442b      	add	r3, r5
    9424:	6063      	str	r3, [r4, #4]
    9426:	e065      	b.n	94f4 <_ZNK18ArduinoJson691_11011VariantData6acceptINS_14JsonSerializerINS_18StaticStringWriterEEEEEvRT_+0xdc4>
    9428:	6822      	ldr	r2, [r4, #0]
    942a:	6856      	ldr	r6, [r2, #4]
    942c:	6813      	ldr	r3, [r2, #0]
    942e:	42b3      	cmp	r3, r6
    9430:	d90e      	bls.n	9450 <_ZNK18ArduinoJson691_11011VariantData6acceptINS_14JsonSerializerINS_18StaticStringWriterEEEEEvRT_+0xd20>
    9432:	4934      	ldr	r1, [pc, #208]	; (9504 <_ZNK18ArduinoJson691_11011VariantData6acceptINS_14JsonSerializerINS_18StaticStringWriterEEEEEvRT_+0xdd4>)
    9434:	1d4d      	adds	r5, r1, #5
    9436:	4633      	mov	r3, r6
    9438:	1c58      	adds	r0, r3, #1
    943a:	6050      	str	r0, [r2, #4]
    943c:	f811 0f01 	ldrb.w	r0, [r1, #1]!
    9440:	7018      	strb	r0, [r3, #0]
    9442:	6853      	ldr	r3, [r2, #4]
    9444:	6810      	ldr	r0, [r2, #0]
    9446:	4283      	cmp	r3, r0
    9448:	d203      	bcs.n	9452 <_ZNK18ArduinoJson691_11011VariantData6acceptINS_14JsonSerializerINS_18StaticStringWriterEEEEEvRT_+0xd22>
    944a:	42a9      	cmp	r1, r5
    944c:	d1f4      	bne.n	9438 <_ZNK18ArduinoJson691_11011VariantData6acceptINS_14JsonSerializerINS_18StaticStringWriterEEEEEvRT_+0xd08>
    944e:	e000      	b.n	9452 <_ZNK18ArduinoJson691_11011VariantData6acceptINS_14JsonSerializerINS_18StaticStringWriterEEEEEvRT_+0xd22>
    9450:	4633      	mov	r3, r6
    9452:	2100      	movs	r1, #0
    9454:	7019      	strb	r1, [r3, #0]
    9456:	6853      	ldr	r3, [r2, #4]
    9458:	1b9e      	subs	r6, r3, r6
    945a:	6863      	ldr	r3, [r4, #4]
    945c:	4433      	add	r3, r6
    945e:	6063      	str	r3, [r4, #4]
    9460:	e048      	b.n	94f4 <_ZNK18ArduinoJson691_11011VariantData6acceptINS_14JsonSerializerINS_18StaticStringWriterEEEEEvRT_+0xdc4>
    9462:	6822      	ldr	r2, [r4, #0]
    9464:	6856      	ldr	r6, [r2, #4]
    9466:	6813      	ldr	r3, [r2, #0]
    9468:	42b3      	cmp	r3, r6
    946a:	d90e      	bls.n	948a <_ZNK18ArduinoJson691_11011VariantData6acceptINS_14JsonSerializerINS_18StaticStringWriterEEEEEvRT_+0xd5a>
    946c:	4926      	ldr	r1, [pc, #152]	; (9508 <_ZNK18ArduinoJson691_11011VariantData6acceptINS_14JsonSerializerINS_18StaticStringWriterEEEEEvRT_+0xdd8>)
    946e:	1d0d      	adds	r5, r1, #4
    9470:	4633      	mov	r3, r6
    9472:	1c58      	adds	r0, r3, #1
    9474:	6050      	str	r0, [r2, #4]
    9476:	f811 0f01 	ldrb.w	r0, [r1, #1]!
    947a:	7018      	strb	r0, [r3, #0]
    947c:	6853      	ldr	r3, [r2, #4]
    947e:	6810      	ldr	r0, [r2, #0]
    9480:	4283      	cmp	r3, r0
    9482:	d203      	bcs.n	948c <_ZNK18ArduinoJson691_11011VariantData6acceptINS_14JsonSerializerINS_18StaticStringWriterEEEEEvRT_+0xd5c>
    9484:	42a9      	cmp	r1, r5
    9486:	d1f4      	bne.n	9472 <_ZNK18ArduinoJson691_11011VariantData6acceptINS_14JsonSerializerINS_18StaticStringWriterEEEEEvRT_+0xd42>
    9488:	e000      	b.n	948c <_ZNK18ArduinoJson691_11011VariantData6acceptINS_14JsonSerializerINS_18StaticStringWriterEEEEEvRT_+0xd5c>
    948a:	4633      	mov	r3, r6
    948c:	2100      	movs	r1, #0
    948e:	7019      	strb	r1, [r3, #0]
    9490:	6853      	ldr	r3, [r2, #4]
    9492:	1b9e      	subs	r6, r3, r6
    9494:	6863      	ldr	r3, [r4, #4]
    9496:	4433      	add	r3, r6
    9498:	6063      	str	r3, [r4, #4]
    949a:	e02b      	b.n	94f4 <_ZNK18ArduinoJson691_11011VariantData6acceptINS_14JsonSerializerINS_18StaticStringWriterEEEEEvRT_+0xdc4>
    949c:	2000      	movs	r0, #0
    949e:	f7ff bbb9 	b.w	8c14 <_ZNK18ArduinoJson691_11011VariantData6acceptINS_14JsonSerializerINS_18StaticStringWriterEEEEEvRT_+0x4e4>
    94a2:	463a      	mov	r2, r7
    94a4:	6863      	ldr	r3, [r4, #4]
    94a6:	4413      	add	r3, r2
    94a8:	6063      	str	r3, [r4, #4]
    94aa:	e544      	b.n	8f36 <_ZNK18ArduinoJson691_11011VariantData6acceptINS_14JsonSerializerINS_18StaticStringWriterEEEEEvRT_+0x806>
    94ac:	6822      	ldr	r2, [r4, #0]
    94ae:	6857      	ldr	r7, [r2, #4]
    94b0:	6813      	ldr	r3, [r2, #0]
    94b2:	429f      	cmp	r7, r3
    94b4:	f4bf adfd 	bcs.w	90b2 <_ZNK18ArduinoJson691_11011VariantData6acceptINS_14JsonSerializerINS_18StaticStringWriterEEEEEvRT_+0x982>
    94b8:	e5f3      	b.n	90a2 <_ZNK18ArduinoJson691_11011VariantData6acceptINS_14JsonSerializerINS_18StaticStringWriterEEEEEvRT_+0x972>
    94ba:	4642      	mov	r2, r8
    94bc:	6827      	ldr	r7, [r4, #0]
    94be:	f8d7 8004 	ldr.w	r8, [r7, #4]
    94c2:	683b      	ldr	r3, [r7, #0]
    94c4:	4598      	cmp	r8, r3
    94c6:	f4bf add4 	bcs.w	9072 <_ZNK18ArduinoJson691_11011VariantData6acceptINS_14JsonSerializerINS_18StaticStringWriterEEEEEvRT_+0x942>
    94ca:	e5c9      	b.n	9060 <_ZNK18ArduinoJson691_11011VariantData6acceptINS_14JsonSerializerINS_18StaticStringWriterEEEEEvRT_+0x930>
    94cc:	2200      	movs	r2, #0
    94ce:	6863      	ldr	r3, [r4, #4]
    94d0:	4413      	add	r3, r2
    94d2:	6063      	str	r3, [r4, #4]
    94d4:	e572      	b.n	8fbc <_ZNK18ArduinoJson691_11011VariantData6acceptINS_14JsonSerializerINS_18StaticStringWriterEEEEEvRT_+0x88c>
    94d6:	4602      	mov	r2, r0
    94d8:	6823      	ldr	r3, [r4, #0]
    94da:	6859      	ldr	r1, [r3, #4]
    94dc:	6818      	ldr	r0, [r3, #0]
    94de:	4281      	cmp	r1, r0
    94e0:	f4bf ae8e 	bcs.w	9200 <_ZNK18ArduinoJson691_11011VariantData6acceptINS_14JsonSerializerINS_18StaticStringWriterEEEEEvRT_+0xad0>
    94e4:	e684      	b.n	91f0 <_ZNK18ArduinoJson691_11011VariantData6acceptINS_14JsonSerializerINS_18StaticStringWriterEEEEEvRT_+0xac0>
    94e6:	6823      	ldr	r3, [r4, #0]
    94e8:	685a      	ldr	r2, [r3, #4]
    94ea:	6819      	ldr	r1, [r3, #0]
    94ec:	428a      	cmp	r2, r1
    94ee:	f4bf aea3 	bcs.w	9238 <_ZNK18ArduinoJson691_11011VariantData6acceptINS_14JsonSerializerINS_18StaticStringWriterEEEEEvRT_+0xb08>
    94f2:	e69a      	b.n	922a <_ZNK18ArduinoJson691_11011VariantData6acceptINS_14JsonSerializerINS_18StaticStringWriterEEEEEvRT_+0xafa>
    94f4:	b009      	add	sp, #36	; 0x24
    94f6:	ecbd 8b10 	vpop	{d8-d15}
    94fa:	e8bd 8ff0 	ldmia.w	sp!, {r4, r5, r6, r7, r8, r9, sl, fp, pc}
    94fe:	bf00      	nop
    9500:	00011677 	.word	0x00011677
    9504:	0001167f 	.word	0x0001167f
    9508:	0001165f 	.word	0x0001165f
    950c:	0000a989 	.word	0x0000a989

00009510 <main>:
    9510:	e92d 4ff0 	stmdb	sp!, {r4, r5, r6, r7, r8, r9, sl, fp, lr}
    9514:	ed2d 8b04 	vpush	{d8-d9}
    9518:	b0cf      	sub	sp, #316	; 0x13c
    951a:	4b4b      	ldr	r3, [pc, #300]	; (9648 <main+0x138>)
    951c:	4798      	blx	r3
    951e:	4c4b      	ldr	r4, [pc, #300]	; (964c <main+0x13c>)
    9520:	f04f 4680 	mov.w	r6, #1073741824	; 0x40000000
    9524:	61a6      	str	r6, [r4, #24]
    9526:	f04f 4500 	mov.w	r5, #2147483648	; 0x80000000
    952a:	61a5      	str	r5, [r4, #24]
    952c:	f8c4 6098 	str.w	r6, [r4, #152]	; 0x98
    9530:	f8c4 5098 	str.w	r5, [r4, #152]	; 0x98
    9534:	f44f 707a 	mov.w	r0, #1000	; 0x3e8
    9538:	4f45      	ldr	r7, [pc, #276]	; (9650 <main+0x140>)
    953a:	47b8      	blx	r7
    953c:	6166      	str	r6, [r4, #20]
    953e:	6165      	str	r5, [r4, #20]
    9540:	f8c4 6094 	str.w	r6, [r4, #148]	; 0x94
    9544:	f8c4 5094 	str.w	r5, [r4, #148]	; 0x94
    9548:	4c42      	ldr	r4, [pc, #264]	; (9654 <main+0x144>)
    954a:	4620      	mov	r0, r4
    954c:	2103      	movs	r1, #3
    954e:	4b42      	ldr	r3, [pc, #264]	; (9658 <main+0x148>)
    9550:	4798      	blx	r3
    9552:	4620      	mov	r0, r4
    9554:	4b41      	ldr	r3, [pc, #260]	; (965c <main+0x14c>)
    9556:	4798      	blx	r3
    9558:	a801      	add	r0, sp, #4
    955a:	4621      	mov	r1, r4
    955c:	2226      	movs	r2, #38	; 0x26
    955e:	4b40      	ldr	r3, [pc, #256]	; (9660 <main+0x150>)
    9560:	4798      	blx	r3
    9562:	a801      	add	r0, sp, #4
    9564:	4b3f      	ldr	r3, [pc, #252]	; (9664 <main+0x154>)
    9566:	4798      	blx	r3
    9568:	a801      	add	r0, sp, #4
    956a:	2108      	movs	r1, #8
    956c:	4b3e      	ldr	r3, [pc, #248]	; (9668 <main+0x158>)
    956e:	4798      	blx	r3
    9570:	a801      	add	r0, sp, #4
    9572:	4b3e      	ldr	r3, [pc, #248]	; (966c <main+0x15c>)
    9574:	4798      	blx	r3
    9576:	4b3e      	ldr	r3, [pc, #248]	; (9670 <main+0x160>)
    9578:	4798      	blx	r3
    957a:	4b3e      	ldr	r3, [pc, #248]	; (9674 <main+0x164>)
    957c:	4798      	blx	r3
    957e:	a822      	add	r0, sp, #136	; 0x88
    9580:	4621      	mov	r1, r4
    9582:	2229      	movs	r2, #41	; 0x29
    9584:	4b3c      	ldr	r3, [pc, #240]	; (9678 <main+0x168>)
    9586:	4798      	blx	r3
    9588:	a816      	add	r0, sp, #88	; 0x58
    958a:	4621      	mov	r1, r4
    958c:	2228      	movs	r2, #40	; 0x28
    958e:	4b3b      	ldr	r3, [pc, #236]	; (967c <main+0x16c>)
    9590:	4798      	blx	r3
    9592:	f44f 707a 	mov.w	r0, #1000	; 0x3e8
    9596:	47b8      	blx	r7
    9598:	ed9f 8b29 	vldr	d8, [pc, #164]	; 9640 <main+0x130>
    959c:	f8df 80fc 	ldr.w	r8, [pc, #252]	; 969c <main+0x18c>
    95a0:	f8df a0f4 	ldr.w	sl, [pc, #244]	; 9698 <main+0x188>
    95a4:	ed9f 9a36 	vldr	s18, [pc, #216]	; 9680 <main+0x170>
    95a8:	2000      	movs	r0, #0
    95aa:	4936      	ldr	r1, [pc, #216]	; (9684 <main+0x174>)
    95ac:	2206      	movs	r2, #6
    95ae:	4b36      	ldr	r3, [pc, #216]	; (9688 <main+0x178>)
    95b0:	4798      	blx	r3
    95b2:	4836      	ldr	r0, [pc, #216]	; (968c <main+0x17c>)
    95b4:	ec53 2b18 	vmov	r2, r3, d8
    95b8:	4935      	ldr	r1, [pc, #212]	; (9690 <main+0x180>)
    95ba:	4788      	blx	r1
    95bc:	f44f 707a 	mov.w	r0, #1000	; 0x3e8
    95c0:	4b23      	ldr	r3, [pc, #140]	; (9650 <main+0x140>)
    95c2:	4798      	blx	r3
    95c4:	f44f 6080 	mov.w	r0, #1024	; 0x400
    95c8:	4b32      	ldr	r3, [pc, #200]	; (9694 <main+0x184>)
    95ca:	4798      	blx	r3
    95cc:	4603      	mov	r3, r0
    95ce:	b110      	cbz	r0, 95d6 <main+0xc6>
    95d0:	f500 6280 	add.w	r2, r0, #1024	; 0x400
    95d4:	e000      	b.n	95d8 <main+0xc8>
    95d6:	2200      	movs	r2, #0
    95d8:	930e      	str	r3, [sp, #56]	; 0x38
    95da:	930f      	str	r3, [sp, #60]	; 0x3c
    95dc:	9210      	str	r2, [sp, #64]	; 0x40
    95de:	9211      	str	r2, [sp, #68]	; 0x44
    95e0:	f89d 3050 	ldrb.w	r3, [sp, #80]	; 0x50
    95e4:	f023 037f 	bic.w	r3, r3, #127	; 0x7f
    95e8:	f043 0320 	orr.w	r3, r3, #32
    95ec:	f88d 3050 	strb.w	r3, [sp, #80]	; 0x50
    95f0:	2200      	movs	r2, #0
    95f2:	9212      	str	r2, [sp, #72]	; 0x48
    95f4:	9213      	str	r2, [sp, #76]	; 0x4c
    95f6:	f013 0f20 	tst.w	r3, #32
    95fa:	d065      	beq.n	96c8 <main+0x1b8>
    95fc:	4614      	mov	r4, r2
    95fe:	e009      	b.n	9614 <main+0x104>
    9600:	68e1      	ldr	r1, [r4, #12]
    9602:	b111      	cbz	r1, 960a <main+0xfa>
    9604:	4650      	mov	r0, sl
    9606:	47c0      	blx	r8
    9608:	b138      	cbz	r0, 961a <main+0x10a>
    960a:	8963      	ldrh	r3, [r4, #10]
    960c:	b13b      	cbz	r3, 961e <main+0x10e>
    960e:	b21b      	sxth	r3, r3
    9610:	eb04 1403 	add.w	r4, r4, r3, lsl #4
    9614:	2c00      	cmp	r4, #0
    9616:	d1f3      	bne.n	9600 <main+0xf0>
    9618:	e001      	b.n	961e <main+0x10e>
    961a:	2c00      	cmp	r4, #0
    961c:	d14c      	bne.n	96b8 <main+0x1a8>
    961e:	9c10      	ldr	r4, [sp, #64]	; 0x40
    9620:	9b0f      	ldr	r3, [sp, #60]	; 0x3c
    9622:	3310      	adds	r3, #16
    9624:	429c      	cmp	r4, r3
    9626:	d34f      	bcc.n	96c8 <main+0x1b8>
    9628:	f1a4 0210 	sub.w	r2, r4, #16
    962c:	9210      	str	r2, [sp, #64]	; 0x40
    962e:	2a00      	cmp	r2, #0
    9630:	d04a      	beq.n	96c8 <main+0x1b8>
    9632:	9b13      	ldr	r3, [sp, #76]	; 0x4c
    9634:	b3a3      	cbz	r3, 96a0 <main+0x190>
    9636:	1ad1      	subs	r1, r2, r3
    9638:	1109      	asrs	r1, r1, #4
    963a:	8159      	strh	r1, [r3, #10]
    963c:	9213      	str	r2, [sp, #76]	; 0x4c
    963e:	e031      	b.n	96a4 <main+0x194>
    9640:	80000000 	.word	0x80000000
    9644:	40682deb 	.word	0x40682deb
    9648:	00007b6d 	.word	0x00007b6d
    964c:	41008000 	.word	0x41008000
    9650:	000043b9 	.word	0x000043b9
    9654:	20000e88 	.word	0x20000e88
    9658:	000045c9 	.word	0x000045c9
    965c:	00004579 	.word	0x00004579
    9660:	00009d35 	.word	0x00009d35
    9664:	00009fa1 	.word	0x00009fa1
    9668:	00009f91 	.word	0x00009f91
    966c:	00009f81 	.word	0x00009f81
    9670:	00008609 	.word	0x00008609
    9674:	00008695 	.word	0x00008695
    9678:	000098b9 	.word	0x000098b9
    967c:	00009a89 	.word	0x00009a89
    9680:	42c80000 	.word	0x42c80000
    9684:	00011688 	.word	0x00011688
    9688:	00009c79 	.word	0x00009c79
    968c:	00011690 	.word	0x00011690
    9690:	0000b6ad 	.word	0x0000b6ad
    9694:	0000af85 	.word	0x0000af85
    9698:	0001169c 	.word	0x0001169c
    969c:	0000b745 	.word	0x0000b745
    96a0:	9212      	str	r2, [sp, #72]	; 0x48
    96a2:	9213      	str	r2, [sp, #76]	; 0x4c
    96a4:	2300      	movs	r3, #0
    96a6:	f824 3c06 	strh.w	r3, [r4, #-6]
    96aa:	f804 3c08 	strb.w	r3, [r4, #-8]
    96ae:	4b60      	ldr	r3, [pc, #384]	; (9830 <main+0x320>)
    96b0:	f844 3c04 	str.w	r3, [r4, #-4]
    96b4:	3c10      	subs	r4, #16
    96b6:	d007      	beq.n	96c8 <main+0x1b8>
    96b8:	7a23      	ldrb	r3, [r4, #8]
    96ba:	f023 037f 	bic.w	r3, r3, #127	; 0x7f
    96be:	f043 0303 	orr.w	r3, r3, #3
    96c2:	7223      	strb	r3, [r4, #8]
    96c4:	4b5b      	ldr	r3, [pc, #364]	; (9834 <main+0x324>)
    96c6:	6023      	str	r3, [r4, #0]
    96c8:	ad06      	add	r5, sp, #24
    96ca:	ac35      	add	r4, sp, #212	; 0xd4
    96cc:	f20d 1337 	addw	r3, sp, #311	; 0x137
    96d0:	9306      	str	r3, [sp, #24]
    96d2:	9407      	str	r4, [sp, #28]
    96d4:	2600      	movs	r6, #0
    96d6:	f88d 60d4 	strb.w	r6, [sp, #212]	; 0xd4
    96da:	9509      	str	r5, [sp, #36]	; 0x24
    96dc:	960a      	str	r6, [sp, #40]	; 0x28
    96de:	a812      	add	r0, sp, #72	; 0x48
    96e0:	a909      	add	r1, sp, #36	; 0x24
    96e2:	4b55      	ldr	r3, [pc, #340]	; (9838 <main+0x328>)
    96e4:	4798      	blx	r3
    96e6:	4630      	mov	r0, r6
    96e8:	4954      	ldr	r1, [pc, #336]	; (983c <main+0x32c>)
    96ea:	2206      	movs	r2, #6
    96ec:	4f54      	ldr	r7, [pc, #336]	; (9840 <main+0x330>)
    96ee:	47b8      	blx	r7
    96f0:	4620      	mov	r0, r4
    96f2:	f8df 9198 	ldr.w	r9, [pc, #408]	; 988c <main+0x37c>
    96f6:	47c8      	blx	r9
    96f8:	4602      	mov	r2, r0
    96fa:	4630      	mov	r0, r6
    96fc:	4621      	mov	r1, r4
    96fe:	47b8      	blx	r7
    9700:	4630      	mov	r0, r6
    9702:	4950      	ldr	r1, [pc, #320]	; (9844 <main+0x334>)
    9704:	2206      	movs	r2, #6
    9706:	47b8      	blx	r7
    9708:	a809      	add	r0, sp, #36	; 0x24
    970a:	a922      	add	r1, sp, #136	; 0x88
    970c:	4b4e      	ldr	r3, [pc, #312]	; (9848 <main+0x338>)
    970e:	4798      	blx	r3
    9710:	f8df b17c 	ldr.w	fp, [pc, #380]	; 9890 <main+0x380>
    9714:	9809      	ldr	r0, [sp, #36]	; 0x24
    9716:	47d8      	blx	fp
    9718:	4602      	mov	r2, r0
    971a:	460b      	mov	r3, r1
    971c:	4620      	mov	r0, r4
    971e:	494b      	ldr	r1, [pc, #300]	; (984c <main+0x33c>)
    9720:	f8df c170 	ldr.w	ip, [pc, #368]	; 9894 <main+0x384>
    9724:	47e0      	blx	ip
    9726:	4620      	mov	r0, r4
    9728:	47c8      	blx	r9
    972a:	4602      	mov	r2, r0
    972c:	4630      	mov	r0, r6
    972e:	4621      	mov	r1, r4
    9730:	47b8      	blx	r7
    9732:	980a      	ldr	r0, [sp, #40]	; 0x28
    9734:	47d8      	blx	fp
    9736:	4602      	mov	r2, r0
    9738:	460b      	mov	r3, r1
    973a:	4620      	mov	r0, r4
    973c:	4944      	ldr	r1, [pc, #272]	; (9850 <main+0x340>)
    973e:	f8df c154 	ldr.w	ip, [pc, #340]	; 9894 <main+0x384>
    9742:	47e0      	blx	ip
    9744:	4620      	mov	r0, r4
    9746:	47c8      	blx	r9
    9748:	4602      	mov	r2, r0
    974a:	4630      	mov	r0, r6
    974c:	4621      	mov	r1, r4
    974e:	47b8      	blx	r7
    9750:	980b      	ldr	r0, [sp, #44]	; 0x2c
    9752:	47d8      	blx	fp
    9754:	4602      	mov	r2, r0
    9756:	460b      	mov	r3, r1
    9758:	4620      	mov	r0, r4
    975a:	493e      	ldr	r1, [pc, #248]	; (9854 <main+0x344>)
    975c:	f8df c134 	ldr.w	ip, [pc, #308]	; 9894 <main+0x384>
    9760:	47e0      	blx	ip
    9762:	4620      	mov	r0, r4
    9764:	47c8      	blx	r9
    9766:	4602      	mov	r2, r0
    9768:	4630      	mov	r0, r6
    976a:	4621      	mov	r1, r4
    976c:	47b8      	blx	r7
    976e:	eddd 7a0d 	vldr	s15, [sp, #52]	; 0x34
    9772:	ee67 7a89 	vmul.f32	s15, s15, s18
    9776:	4838      	ldr	r0, [pc, #224]	; (9858 <main+0x348>)
    9778:	eefd 7ae7 	vcvt.s32.f32	s15, s15
    977c:	ee17 1a90 	vmov	r1, s15
    9780:	4c36      	ldr	r4, [pc, #216]	; (985c <main+0x34c>)
    9782:	47a0      	blx	r4
    9784:	4836      	ldr	r0, [pc, #216]	; (9860 <main+0x350>)
    9786:	990c      	ldr	r1, [sp, #48]	; 0x30
    9788:	47a0      	blx	r4
    978a:	a816      	add	r0, sp, #88	; 0x58
    978c:	4b35      	ldr	r3, [pc, #212]	; (9864 <main+0x354>)
    978e:	4798      	blx	r3
    9790:	ed8d 0a03 	vstr	s0, [sp, #12]
    9794:	edcd 0a04 	vstr	s1, [sp, #16]
    9798:	ed8d 1a05 	vstr	s2, [sp, #20]
    979c:	ee20 0a09 	vmul.f32	s0, s0, s18
    97a0:	4831      	ldr	r0, [pc, #196]	; (9868 <main+0x358>)
    97a2:	eebd 0ac0 	vcvt.s32.f32	s0, s0
    97a6:	ee10 1a10 	vmov	r1, s0
    97aa:	47a0      	blx	r4
    97ac:	eddd 7a04 	vldr	s15, [sp, #16]
    97b0:	ee67 7a89 	vmul.f32	s15, s15, s18
    97b4:	482d      	ldr	r0, [pc, #180]	; (986c <main+0x35c>)
    97b6:	eefd 7ae7 	vcvt.s32.f32	s15, s15
    97ba:	ee17 1a90 	vmov	r1, s15
    97be:	47a0      	blx	r4
    97c0:	eddd 7a05 	vldr	s15, [sp, #20]
    97c4:	ee67 7a89 	vmul.f32	s15, s15, s18
    97c8:	4829      	ldr	r0, [pc, #164]	; (9870 <main+0x360>)
    97ca:	eefd 7ae7 	vcvt.s32.f32	s15, s15
    97ce:	ee17 1a90 	vmov	r1, s15
    97d2:	47a0      	blx	r4
    97d4:	a801      	add	r0, sp, #4
    97d6:	4b27      	ldr	r3, [pc, #156]	; (9874 <main+0x364>)
    97d8:	4798      	blx	r3
    97da:	ed85 0a00 	vstr	s0, [r5]
    97de:	edc5 0a01 	vstr	s1, [r5, #4]
    97e2:	ed85 1a02 	vstr	s2, [r5, #8]
    97e6:	ee20 0a09 	vmul.f32	s0, s0, s18
    97ea:	4823      	ldr	r0, [pc, #140]	; (9878 <main+0x368>)
    97ec:	eebd 0ac0 	vcvt.s32.f32	s0, s0
    97f0:	ee10 1a10 	vmov	r1, s0
    97f4:	47a0      	blx	r4
    97f6:	edd5 7a01 	vldr	s15, [r5, #4]
    97fa:	ee67 7a89 	vmul.f32	s15, s15, s18
    97fe:	481f      	ldr	r0, [pc, #124]	; (987c <main+0x36c>)
    9800:	eefd 7ae7 	vcvt.s32.f32	s15, s15
    9804:	ee17 1a90 	vmov	r1, s15
    9808:	47a0      	blx	r4
    980a:	edd5 7a02 	vldr	s15, [r5, #8]
    980e:	ee67 7a89 	vmul.f32	s15, s15, s18
    9812:	481b      	ldr	r0, [pc, #108]	; (9880 <main+0x370>)
    9814:	eefd 7ae7 	vcvt.s32.f32	s15, s15
    9818:	ee17 1a90 	vmov	r1, s15
    981c:	47a0      	blx	r4
    981e:	f44f 70fa 	mov.w	r0, #500	; 0x1f4
    9822:	4b18      	ldr	r3, [pc, #96]	; (9884 <main+0x374>)
    9824:	4798      	blx	r3
    9826:	980e      	ldr	r0, [sp, #56]	; 0x38
    9828:	4b17      	ldr	r3, [pc, #92]	; (9888 <main+0x378>)
    982a:	4798      	blx	r3
    982c:	e6bc      	b.n	95a8 <main+0x98>
    982e:	bf00      	nop
    9830:	0001169c 	.word	0x0001169c
    9834:	000116a0 	.word	0x000116a0
    9838:	00008731 	.word	0x00008731
    983c:	000116a8 	.word	0x000116a8
    9840:	00009c79 	.word	0x00009c79
    9844:	000116b0 	.word	0x000116b0
    9848:	000099a1 	.word	0x000099a1
    984c:	000116b8 	.word	0x000116b8
    9850:	000116c4 	.word	0x000116c4
    9854:	000116d0 	.word	0x000116d0
    9858:	000116dc 	.word	0x000116dc
    985c:	0000b6ad 	.word	0x0000b6ad
    9860:	000116e8 	.word	0x000116e8
    9864:	00009b6d 	.word	0x00009b6d
    9868:	000116f4 	.word	0x000116f4
    986c:	00011700 	.word	0x00011700
    9870:	0001170c 	.word	0x0001170c
    9874:	00009e09 	.word	0x00009e09
    9878:	00011718 	.word	0x00011718
    987c:	00011724 	.word	0x00011724
    9880:	00011730 	.word	0x00011730
    9884:	000043b9 	.word	0x000043b9
    9888:	0000af95 	.word	0x0000af95
    988c:	0000b961 	.word	0x0000b961
    9890:	0000a2cd 	.word	0x0000a2cd
    9894:	0000b6f9 	.word	0x0000b6f9

00009898 <sd_mmc_stack_init>:
    9898:	b508      	push	{r3, lr}
    989a:	4803      	ldr	r0, [pc, #12]	; (98a8 <sd_mmc_stack_init+0x10>)
    989c:	4903      	ldr	r1, [pc, #12]	; (98ac <sd_mmc_stack_init+0x14>)
    989e:	4a04      	ldr	r2, [pc, #16]	; (98b0 <sd_mmc_stack_init+0x18>)
    98a0:	4b04      	ldr	r3, [pc, #16]	; (98b4 <sd_mmc_stack_init+0x1c>)
    98a2:	4798      	blx	r3
    98a4:	bd08      	pop	{r3, pc}
    98a6:	bf00      	nop
    98a8:	20000e70 	.word	0x20000e70
    98ac:	20000098 	.word	0x20000098
    98b0:	2000009c 	.word	0x2000009c
    98b4:	00006fd9 	.word	0x00006fd9

000098b8 <_ZN11BMI088AccelC1EP21spi_m_sync_descriptorh>:
    98b8:	b410      	push	{r4}
    98ba:	2480      	movs	r4, #128	; 0x80
    98bc:	7204      	strb	r4, [r0, #8]
    98be:	4c05      	ldr	r4, [pc, #20]	; (98d4 <_ZN11BMI088AccelC1EP21spi_m_sync_descriptorh+0x1c>)
    98c0:	60c4      	str	r4, [r0, #12]
    98c2:	4c05      	ldr	r4, [pc, #20]	; (98d8 <_ZN11BMI088AccelC1EP21spi_m_sync_descriptorh+0x20>)
    98c4:	61c4      	str	r4, [r0, #28]
    98c6:	2400      	movs	r4, #0
    98c8:	6384      	str	r4, [r0, #56]	; 0x38
    98ca:	6041      	str	r1, [r0, #4]
    98cc:	7002      	strb	r2, [r0, #0]
    98ce:	f85d 4b04 	ldr.w	r4, [sp], #4
    98d2:	4770      	bx	lr
    98d4:	00989680 	.word	0x00989680
    98d8:	411ce979 	.word	0x411ce979

000098dc <_ZN11BMI088Accel13readRegistersEhhPh>:
    98dc:	e92d 4ff0 	stmdb	sp!, {r4, r5, r6, r7, r8, r9, sl, fp, lr}
    98e0:	b085      	sub	sp, #20
    98e2:	af00      	add	r7, sp, #0
    98e4:	4604      	mov	r4, r0
    98e6:	468b      	mov	fp, r1
    98e8:	4615      	mov	r5, r2
    98ea:	4699      	mov	r9, r3
    98ec:	f102 0309 	add.w	r3, r2, #9
    98f0:	f403 73fc 	and.w	r3, r3, #504	; 0x1f8
    98f4:	ebad 0d03 	sub.w	sp, sp, r3
    98f8:	466e      	mov	r6, sp
    98fa:	ebad 0d03 	sub.w	sp, sp, r3
    98fe:	f102 0802 	add.w	r8, r2, #2
    9902:	4630      	mov	r0, r6
    9904:	2100      	movs	r1, #0
    9906:	4642      	mov	r2, r8
    9908:	f8df a090 	ldr.w	sl, [pc, #144]	; 999c <_ZN11BMI088Accel13readRegistersEhhPh+0xc0>
    990c:	47d0      	blx	sl
    990e:	4668      	mov	r0, sp
    9910:	2100      	movs	r1, #0
    9912:	4642      	mov	r2, r8
    9914:	47d0      	blx	sl
    9916:	7a23      	ldrb	r3, [r4, #8]
    9918:	ea4b 0b03 	orr.w	fp, fp, r3
    991c:	f886 b000 	strb.w	fp, [r6]
    9920:	f8c7 800c 	str.w	r8, [r7, #12]
    9924:	607e      	str	r6, [r7, #4]
    9926:	f8c7 d008 	str.w	sp, [r7, #8]
    992a:	6860      	ldr	r0, [r4, #4]
    992c:	4b15      	ldr	r3, [pc, #84]	; (9984 <_ZN11BMI088Accel13readRegistersEhhPh+0xa8>)
    992e:	4798      	blx	r3
    9930:	6860      	ldr	r0, [r4, #4]
    9932:	2103      	movs	r1, #3
    9934:	4b14      	ldr	r3, [pc, #80]	; (9988 <_ZN11BMI088Accel13readRegistersEhhPh+0xac>)
    9936:	4798      	blx	r3
    9938:	6860      	ldr	r0, [r4, #4]
    993a:	4b14      	ldr	r3, [pc, #80]	; (998c <_ZN11BMI088Accel13readRegistersEhhPh+0xb0>)
    993c:	4798      	blx	r3
    993e:	7823      	ldrb	r3, [r4, #0]
    9940:	f003 021f 	and.w	r2, r3, #31
    9944:	f04f 0801 	mov.w	r8, #1
    9948:	fa08 f202 	lsl.w	r2, r8, r2
    994c:	095b      	lsrs	r3, r3, #5
    994e:	4e10      	ldr	r6, [pc, #64]	; (9990 <_ZN11BMI088Accel13readRegistersEhhPh+0xb4>)
    9950:	eb06 13c3 	add.w	r3, r6, r3, lsl #7
    9954:	615a      	str	r2, [r3, #20]
    9956:	6860      	ldr	r0, [r4, #4]
    9958:	1d39      	adds	r1, r7, #4
    995a:	4b0e      	ldr	r3, [pc, #56]	; (9994 <_ZN11BMI088Accel13readRegistersEhhPh+0xb8>)
    995c:	4798      	blx	r3
    995e:	7823      	ldrb	r3, [r4, #0]
    9960:	f003 021f 	and.w	r2, r3, #31
    9964:	fa08 f202 	lsl.w	r2, r8, r2
    9968:	095b      	lsrs	r3, r3, #5
    996a:	eb06 16c3 	add.w	r6, r6, r3, lsl #7
    996e:	61b2      	str	r2, [r6, #24]
    9970:	4648      	mov	r0, r9
    9972:	f10d 0102 	add.w	r1, sp, #2
    9976:	462a      	mov	r2, r5
    9978:	4b07      	ldr	r3, [pc, #28]	; (9998 <_ZN11BMI088Accel13readRegistersEhhPh+0xbc>)
    997a:	4798      	blx	r3
    997c:	3714      	adds	r7, #20
    997e:	46bd      	mov	sp, r7
    9980:	e8bd 8ff0 	ldmia.w	sp!, {r4, r5, r6, r7, r8, r9, sl, fp, pc}
    9984:	000045a1 	.word	0x000045a1
    9988:	000045c9 	.word	0x000045c9
    998c:	00004579 	.word	0x00004579
    9990:	41008000 	.word	0x41008000
    9994:	000045f5 	.word	0x000045f5
    9998:	0000b4dd 	.word	0x0000b4dd
    999c:	0000b611 	.word	0x0000b611

000099a0 <_ZN11BMI088Accel10readSensorEv>:
    99a0:	b5f8      	push	{r3, r4, r5, r6, r7, lr}
    99a2:	4605      	mov	r5, r0
    99a4:	460c      	mov	r4, r1
    99a6:	f101 0710 	add.w	r7, r1, #16
    99aa:	4608      	mov	r0, r1
    99ac:	2112      	movs	r1, #18
    99ae:	2209      	movs	r2, #9
    99b0:	463b      	mov	r3, r7
    99b2:	4e33      	ldr	r6, [pc, #204]	; (9a80 <_ZN11BMI088Accel10readSensorEv+0xe0>)
    99b4:	47b0      	blx	r6
    99b6:	7ce2      	ldrb	r2, [r4, #19]
    99b8:	7ca3      	ldrb	r3, [r4, #18]
    99ba:	ea43 2202 	orr.w	r2, r3, r2, lsl #8
    99be:	7d61      	ldrb	r1, [r4, #21]
    99c0:	7d23      	ldrb	r3, [r4, #20]
    99c2:	ea43 2301 	orr.w	r3, r3, r1, lsl #8
    99c6:	edd4 7a08 	vldr	s15, [r4, #32]
    99ca:	7c60      	ldrb	r0, [r4, #17]
    99cc:	7c21      	ldrb	r1, [r4, #16]
    99ce:	ea41 2100 	orr.w	r1, r1, r0, lsl #8
    99d2:	b209      	sxth	r1, r1
    99d4:	ee06 1a10 	vmov	s12, r1
    99d8:	eeb8 6ac6 	vcvt.f32.s32	s12, s12
    99dc:	ed9f 7a29 	vldr	s14, [pc, #164]	; 9a84 <_ZN11BMI088Accel10readSensorEv+0xe4>
    99e0:	ee26 6a07 	vmul.f32	s12, s12, s14
    99e4:	ee26 6a27 	vmul.f32	s12, s12, s15
    99e8:	ed84 6a09 	vstr	s12, [r4, #36]	; 0x24
    99ec:	b212      	sxth	r2, r2
    99ee:	ee06 2a90 	vmov	s13, r2
    99f2:	eef8 6ae6 	vcvt.f32.s32	s13, s13
    99f6:	ee66 6a87 	vmul.f32	s13, s13, s14
    99fa:	ee67 6aa6 	vmul.f32	s13, s15, s13
    99fe:	edc4 6a0a 	vstr	s13, [r4, #40]	; 0x28
    9a02:	b21b      	sxth	r3, r3
    9a04:	ee05 3a10 	vmov	s10, r3
    9a08:	eef8 5ac5 	vcvt.f32.s32	s11, s10
    9a0c:	ee25 7a87 	vmul.f32	s14, s11, s14
    9a10:	ee67 7a87 	vmul.f32	s15, s15, s14
    9a14:	edc4 7a0b 	vstr	s15, [r4, #44]	; 0x2c
    9a18:	ed85 6a00 	vstr	s12, [r5]
    9a1c:	edc5 6a01 	vstr	s13, [r5, #4]
    9a20:	edc5 7a02 	vstr	s15, [r5, #8]
    9a24:	7e23      	ldrb	r3, [r4, #24]
    9a26:	7de1      	ldrb	r1, [r4, #23]
    9a28:	0209      	lsls	r1, r1, #8
    9a2a:	ea41 4103 	orr.w	r1, r1, r3, lsl #16
    9a2e:	7da3      	ldrb	r3, [r4, #22]
    9a30:	4319      	orrs	r1, r3
    9a32:	6361      	str	r1, [r4, #52]	; 0x34
    9a34:	6ba2      	ldr	r2, [r4, #56]	; 0x38
    9a36:	1a8a      	subs	r2, r1, r2
    9a38:	2300      	movs	r3, #0
    9a3a:	e9c4 2310 	strd	r2, r3, [r4, #64]	; 0x40
    9a3e:	63a1      	str	r1, [r4, #56]	; 0x38
    9a40:	60e9      	str	r1, [r5, #12]
    9a42:	4620      	mov	r0, r4
    9a44:	2122      	movs	r1, #34	; 0x22
    9a46:	2202      	movs	r2, #2
    9a48:	463b      	mov	r3, r7
    9a4a:	47b0      	blx	r6
    9a4c:	7c62      	ldrb	r2, [r4, #17]
    9a4e:	7c23      	ldrb	r3, [r4, #16]
    9a50:	00db      	lsls	r3, r3, #3
    9a52:	eb03 1352 	add.w	r3, r3, r2, lsr #5
    9a56:	f5b3 6f80 	cmp.w	r3, #1024	; 0x400
    9a5a:	bf28      	it	cs
    9a5c:	f5a3 6300 	subcs.w	r3, r3, #2048	; 0x800
    9a60:	b29b      	uxth	r3, r3
    9a62:	b21b      	sxth	r3, r3
    9a64:	ee07 3a90 	vmov	s15, r3
    9a68:	eefa 7aee 	vcvt.f32.s32	s15, s15, #3
    9a6c:	eeb3 7a07 	vmov.f32	s14, #55	; 0x37
    9a70:	ee77 7a87 	vadd.f32	s15, s15, s14
    9a74:	edc4 7a0c 	vstr	s15, [r4, #48]	; 0x30
    9a78:	edc5 7a04 	vstr	s15, [r5, #16]
    9a7c:	4628      	mov	r0, r5
    9a7e:	bdf8      	pop	{r3, r4, r5, r6, r7, pc}
    9a80:	000098dd 	.word	0x000098dd
    9a84:	38000000 	.word	0x38000000

00009a88 <_ZN10BMI088GyroC1EP21spi_m_sync_descriptorh>:
    9a88:	b410      	push	{r4}
    9a8a:	2480      	movs	r4, #128	; 0x80
    9a8c:	7244      	strb	r4, [r0, #9]
    9a8e:	4c04      	ldr	r4, [pc, #16]	; (9aa0 <_ZN10BMI088GyroC1EP21spi_m_sync_descriptorh+0x18>)
    9a90:	60c4      	str	r4, [r0, #12]
    9a92:	4c04      	ldr	r4, [pc, #16]	; (9aa4 <_ZN10BMI088GyroC1EP21spi_m_sync_descriptorh+0x1c>)
    9a94:	61c4      	str	r4, [r0, #28]
    9a96:	6041      	str	r1, [r0, #4]
    9a98:	7002      	strb	r2, [r0, #0]
    9a9a:	f85d 4b04 	ldr.w	r4, [sp], #4
    9a9e:	4770      	bx	lr
    9aa0:	00989680 	.word	0x00989680
    9aa4:	3c8efa35 	.word	0x3c8efa35

00009aa8 <_ZN10BMI088Gyro13readRegistersEhhPh>:
    9aa8:	e92d 4ff0 	stmdb	sp!, {r4, r5, r6, r7, r8, r9, sl, fp, lr}
    9aac:	b085      	sub	sp, #20
    9aae:	af00      	add	r7, sp, #0
    9ab0:	4604      	mov	r4, r0
    9ab2:	468b      	mov	fp, r1
    9ab4:	4615      	mov	r5, r2
    9ab6:	4699      	mov	r9, r3
    9ab8:	f102 0801 	add.w	r8, r2, #1
    9abc:	f102 0308 	add.w	r3, r2, #8
    9ac0:	f403 73fc 	and.w	r3, r3, #504	; 0x1f8
    9ac4:	ebad 0d03 	sub.w	sp, sp, r3
    9ac8:	466e      	mov	r6, sp
    9aca:	ebad 0d03 	sub.w	sp, sp, r3
    9ace:	4630      	mov	r0, r6
    9ad0:	2100      	movs	r1, #0
    9ad2:	4642      	mov	r2, r8
    9ad4:	f8df a090 	ldr.w	sl, [pc, #144]	; 9b68 <_ZN10BMI088Gyro13readRegistersEhhPh+0xc0>
    9ad8:	47d0      	blx	sl
    9ada:	4668      	mov	r0, sp
    9adc:	2100      	movs	r1, #0
    9ade:	4642      	mov	r2, r8
    9ae0:	47d0      	blx	sl
    9ae2:	7a63      	ldrb	r3, [r4, #9]
    9ae4:	ea4b 0b03 	orr.w	fp, fp, r3
    9ae8:	f886 b000 	strb.w	fp, [r6]
    9aec:	f8c7 800c 	str.w	r8, [r7, #12]
    9af0:	607e      	str	r6, [r7, #4]
    9af2:	f8c7 d008 	str.w	sp, [r7, #8]
    9af6:	6860      	ldr	r0, [r4, #4]
    9af8:	4b15      	ldr	r3, [pc, #84]	; (9b50 <_ZN10BMI088Gyro13readRegistersEhhPh+0xa8>)
    9afa:	4798      	blx	r3
    9afc:	6860      	ldr	r0, [r4, #4]
    9afe:	2103      	movs	r1, #3
    9b00:	4b14      	ldr	r3, [pc, #80]	; (9b54 <_ZN10BMI088Gyro13readRegistersEhhPh+0xac>)
    9b02:	4798      	blx	r3
    9b04:	6860      	ldr	r0, [r4, #4]
    9b06:	4b14      	ldr	r3, [pc, #80]	; (9b58 <_ZN10BMI088Gyro13readRegistersEhhPh+0xb0>)
    9b08:	4798      	blx	r3
    9b0a:	7823      	ldrb	r3, [r4, #0]
    9b0c:	f003 021f 	and.w	r2, r3, #31
    9b10:	f04f 0801 	mov.w	r8, #1
    9b14:	fa08 f202 	lsl.w	r2, r8, r2
    9b18:	095b      	lsrs	r3, r3, #5
    9b1a:	4e10      	ldr	r6, [pc, #64]	; (9b5c <_ZN10BMI088Gyro13readRegistersEhhPh+0xb4>)
    9b1c:	eb06 13c3 	add.w	r3, r6, r3, lsl #7
    9b20:	615a      	str	r2, [r3, #20]
    9b22:	6860      	ldr	r0, [r4, #4]
    9b24:	1d39      	adds	r1, r7, #4
    9b26:	4b0e      	ldr	r3, [pc, #56]	; (9b60 <_ZN10BMI088Gyro13readRegistersEhhPh+0xb8>)
    9b28:	4798      	blx	r3
    9b2a:	7823      	ldrb	r3, [r4, #0]
    9b2c:	f003 021f 	and.w	r2, r3, #31
    9b30:	fa08 f202 	lsl.w	r2, r8, r2
    9b34:	095b      	lsrs	r3, r3, #5
    9b36:	eb06 16c3 	add.w	r6, r6, r3, lsl #7
    9b3a:	61b2      	str	r2, [r6, #24]
    9b3c:	4648      	mov	r0, r9
    9b3e:	eb0d 0108 	add.w	r1, sp, r8
    9b42:	462a      	mov	r2, r5
    9b44:	4b07      	ldr	r3, [pc, #28]	; (9b64 <_ZN10BMI088Gyro13readRegistersEhhPh+0xbc>)
    9b46:	4798      	blx	r3
    9b48:	3714      	adds	r7, #20
    9b4a:	46bd      	mov	sp, r7
    9b4c:	e8bd 8ff0 	ldmia.w	sp!, {r4, r5, r6, r7, r8, r9, sl, fp, pc}
    9b50:	000045a1 	.word	0x000045a1
    9b54:	000045c9 	.word	0x000045c9
    9b58:	00004579 	.word	0x00004579
    9b5c:	41008000 	.word	0x41008000
    9b60:	000045f5 	.word	0x000045f5
    9b64:	0000b4dd 	.word	0x0000b4dd
    9b68:	0000b611 	.word	0x0000b611

00009b6c <_ZN10BMI088Gyro10readSensorEv>:
    9b6c:	b530      	push	{r4, r5, lr}
    9b6e:	b089      	sub	sp, #36	; 0x24
    9b70:	4604      	mov	r4, r0
    9b72:	2102      	movs	r1, #2
    9b74:	2206      	movs	r2, #6
    9b76:	f100 0310 	add.w	r3, r0, #16
    9b7a:	4d1a      	ldr	r5, [pc, #104]	; (9be4 <_ZN10BMI088Gyro10readSensorEv+0x78>)
    9b7c:	47a8      	blx	r5
    9b7e:	7ce2      	ldrb	r2, [r4, #19]
    9b80:	7ca3      	ldrb	r3, [r4, #18]
    9b82:	ea43 2202 	orr.w	r2, r3, r2, lsl #8
    9b86:	7d61      	ldrb	r1, [r4, #21]
    9b88:	7d23      	ldrb	r3, [r4, #20]
    9b8a:	ea43 2301 	orr.w	r3, r3, r1, lsl #8
    9b8e:	edd4 7a08 	vldr	s15, [r4, #32]
    9b92:	7c60      	ldrb	r0, [r4, #17]
    9b94:	7c21      	ldrb	r1, [r4, #16]
    9b96:	ea41 2100 	orr.w	r1, r1, r0, lsl #8
    9b9a:	b209      	sxth	r1, r1
    9b9c:	ee00 1a10 	vmov	s0, r1
    9ba0:	eeb8 0ac0 	vcvt.f32.s32	s0, s0
    9ba4:	ed9f 7a10 	vldr	s14, [pc, #64]	; 9be8 <_ZN10BMI088Gyro10readSensorEv+0x7c>
    9ba8:	ee80 0a07 	vdiv.f32	s0, s0, s14
    9bac:	ee20 0a27 	vmul.f32	s0, s0, s15
    9bb0:	ed84 0a09 	vstr	s0, [r4, #36]	; 0x24
    9bb4:	b212      	sxth	r2, r2
    9bb6:	ee00 2a90 	vmov	s1, r2
    9bba:	eef8 0ae0 	vcvt.f32.s32	s1, s1
    9bbe:	eec0 0a87 	vdiv.f32	s1, s1, s14
    9bc2:	ee67 0aa0 	vmul.f32	s1, s15, s1
    9bc6:	edc4 0a0a 	vstr	s1, [r4, #40]	; 0x28
    9bca:	b21b      	sxth	r3, r3
    9bcc:	ee01 3a10 	vmov	s2, r3
    9bd0:	eeb8 1ac1 	vcvt.f32.s32	s2, s2
    9bd4:	ee81 7a07 	vdiv.f32	s14, s2, s14
    9bd8:	ee27 1a87 	vmul.f32	s2, s15, s14
    9bdc:	ed84 1a0b 	vstr	s2, [r4, #44]	; 0x2c
    9be0:	b009      	add	sp, #36	; 0x24
    9be2:	bd30      	pop	{r4, r5, pc}
    9be4:	00009aa9 	.word	0x00009aa9
    9be8:	46fffe00 	.word	0x46fffe00

00009bec <usb_device_cb_bulk_in>:
    9bec:	4b03      	ldr	r3, [pc, #12]	; (9bfc <usb_device_cb_bulk_in+0x10>)
    9bee:	781b      	ldrb	r3, [r3, #0]
    9bf0:	f083 0301 	eor.w	r3, r3, #1
    9bf4:	2000      	movs	r0, #0
    9bf6:	4a02      	ldr	r2, [pc, #8]	; (9c00 <usb_device_cb_bulk_in+0x14>)
    9bf8:	54d0      	strb	r0, [r2, r3]
    9bfa:	4770      	bx	lr
    9bfc:	20000df4 	.word	0x20000df4
    9c00:	20000df0 	.word	0x20000df0

00009c04 <usb_device_cb_state_c>:
    9c04:	b500      	push	{lr}
    9c06:	b083      	sub	sp, #12
    9c08:	f8ad 0004 	strh.w	r0, [sp, #4]
    9c0c:	f010 0f01 	tst.w	r0, #1
    9c10:	d003      	beq.n	9c1a <usb_device_cb_state_c+0x16>
    9c12:	2001      	movs	r0, #1
    9c14:	4903      	ldr	r1, [pc, #12]	; (9c24 <usb_device_cb_state_c+0x20>)
    9c16:	4b04      	ldr	r3, [pc, #16]	; (9c28 <usb_device_cb_state_c+0x24>)
    9c18:	4798      	blx	r3
    9c1a:	2000      	movs	r0, #0
    9c1c:	b003      	add	sp, #12
    9c1e:	f85d fb04 	ldr.w	pc, [sp], #4
    9c22:	bf00      	nop
    9c24:	00009bed 	.word	0x00009bed
    9c28:	000072e5 	.word	0x000072e5

00009c2c <cdc_device_acm_init>:
    9c2c:	b508      	push	{r3, lr}
    9c2e:	4805      	ldr	r0, [pc, #20]	; (9c44 <cdc_device_acm_init+0x18>)
    9c30:	4b05      	ldr	r3, [pc, #20]	; (9c48 <cdc_device_acm_init+0x1c>)
    9c32:	4798      	blx	r3
    9c34:	4b05      	ldr	r3, [pc, #20]	; (9c4c <cdc_device_acm_init+0x20>)
    9c36:	4798      	blx	r3
    9c38:	4805      	ldr	r0, [pc, #20]	; (9c50 <cdc_device_acm_init+0x24>)
    9c3a:	4b06      	ldr	r3, [pc, #24]	; (9c54 <cdc_device_acm_init+0x28>)
    9c3c:	4798      	blx	r3
    9c3e:	4b06      	ldr	r3, [pc, #24]	; (9c58 <cdc_device_acm_init+0x2c>)
    9c40:	4798      	blx	r3
    9c42:	bd08      	pop	{r3, pc}
    9c44:	20000db0 	.word	0x20000db0
    9c48:	00007941 	.word	0x00007941
    9c4c:	00007275 	.word	0x00007275
    9c50:	200000a0 	.word	0x200000a0
    9c54:	000079c5 	.word	0x000079c5
    9c58:	000079f9 	.word	0x000079f9

00009c5c <usb_init>:
    9c5c:	b508      	push	{r3, lr}
    9c5e:	4b03      	ldr	r3, [pc, #12]	; (9c6c <usb_init+0x10>)
    9c60:	4798      	blx	r3
    9c62:	2003      	movs	r0, #3
    9c64:	4902      	ldr	r1, [pc, #8]	; (9c70 <usb_init+0x14>)
    9c66:	4b03      	ldr	r3, [pc, #12]	; (9c74 <usb_init+0x18>)
    9c68:	4798      	blx	r3
    9c6a:	bd08      	pop	{r3, pc}
    9c6c:	00009c2d 	.word	0x00009c2d
    9c70:	00009c05 	.word	0x00009c05
    9c74:	000072e5 	.word	0x000072e5

00009c78 <_write>:
    9c78:	b570      	push	{r4, r5, r6, lr}
    9c7a:	4614      	mov	r4, r2
    9c7c:	4b22      	ldr	r3, [pc, #136]	; (9d08 <_write+0x90>)
    9c7e:	781b      	ldrb	r3, [r3, #0]
    9c80:	b2db      	uxtb	r3, r3
    9c82:	4a22      	ldr	r2, [pc, #136]	; (9d0c <_write+0x94>)
    9c84:	5cd3      	ldrb	r3, [r2, r3]
    9c86:	4423      	add	r3, r4
    9c88:	2b3e      	cmp	r3, #62	; 0x3e
    9c8a:	dc11      	bgt.n	9cb0 <_write+0x38>
    9c8c:	4e1e      	ldr	r6, [pc, #120]	; (9d08 <_write+0x90>)
    9c8e:	7830      	ldrb	r0, [r6, #0]
    9c90:	7833      	ldrb	r3, [r6, #0]
    9c92:	b2db      	uxtb	r3, r3
    9c94:	4a1e      	ldr	r2, [pc, #120]	; (9d10 <_write+0x98>)
    9c96:	eb02 1080 	add.w	r0, r2, r0, lsl #6
    9c9a:	4d1c      	ldr	r5, [pc, #112]	; (9d0c <_write+0x94>)
    9c9c:	5ceb      	ldrb	r3, [r5, r3]
    9c9e:	4418      	add	r0, r3
    9ca0:	4622      	mov	r2, r4
    9ca2:	4b1c      	ldr	r3, [pc, #112]	; (9d14 <_write+0x9c>)
    9ca4:	4798      	blx	r3
    9ca6:	7833      	ldrb	r3, [r6, #0]
    9ca8:	b2db      	uxtb	r3, r3
    9caa:	5cea      	ldrb	r2, [r5, r3]
    9cac:	4422      	add	r2, r4
    9cae:	54ea      	strb	r2, [r5, r3]
    9cb0:	4b15      	ldr	r3, [pc, #84]	; (9d08 <_write+0x90>)
    9cb2:	781b      	ldrb	r3, [r3, #0]
    9cb4:	f083 0301 	eor.w	r3, r3, #1
    9cb8:	4a17      	ldr	r2, [pc, #92]	; (9d18 <_write+0xa0>)
    9cba:	5cd3      	ldrb	r3, [r2, r3]
    9cbc:	f013 0fff 	tst.w	r3, #255	; 0xff
    9cc0:	d11f      	bne.n	9d02 <_write+0x8a>
    9cc2:	4d11      	ldr	r5, [pc, #68]	; (9d08 <_write+0x90>)
    9cc4:	782b      	ldrb	r3, [r5, #0]
    9cc6:	f083 0301 	eor.w	r3, r3, #1
    9cca:	702b      	strb	r3, [r5, #0]
    9ccc:	2001      	movs	r0, #1
    9cce:	4913      	ldr	r1, [pc, #76]	; (9d1c <_write+0xa4>)
    9cd0:	4b13      	ldr	r3, [pc, #76]	; (9d20 <_write+0xa8>)
    9cd2:	4798      	blx	r3
    9cd4:	7828      	ldrb	r0, [r5, #0]
    9cd6:	782b      	ldrb	r3, [r5, #0]
    9cd8:	f080 0001 	eor.w	r0, r0, #1
    9cdc:	4e0b      	ldr	r6, [pc, #44]	; (9d0c <_write+0x94>)
    9cde:	f083 0301 	eor.w	r3, r3, #1
    9ce2:	4a0b      	ldr	r2, [pc, #44]	; (9d10 <_write+0x98>)
    9ce4:	eb02 1080 	add.w	r0, r2, r0, lsl #6
    9ce8:	5cf1      	ldrb	r1, [r6, r3]
    9cea:	4b0e      	ldr	r3, [pc, #56]	; (9d24 <_write+0xac>)
    9cec:	4798      	blx	r3
    9cee:	782b      	ldrb	r3, [r5, #0]
    9cf0:	f083 0301 	eor.w	r3, r3, #1
    9cf4:	2101      	movs	r1, #1
    9cf6:	4a08      	ldr	r2, [pc, #32]	; (9d18 <_write+0xa0>)
    9cf8:	54d1      	strb	r1, [r2, r3]
    9cfa:	782b      	ldrb	r3, [r5, #0]
    9cfc:	b2db      	uxtb	r3, r3
    9cfe:	2200      	movs	r2, #0
    9d00:	54f2      	strb	r2, [r6, r3]
    9d02:	4620      	mov	r0, r4
    9d04:	bd70      	pop	{r4, r5, r6, pc}
    9d06:	bf00      	nop
    9d08:	20000df4 	.word	0x20000df4
    9d0c:	20000dac 	.word	0x20000dac
    9d10:	20000d2c 	.word	0x20000d2c
    9d14:	0000b4dd 	.word	0x0000b4dd
    9d18:	20000df0 	.word	0x20000df0
    9d1c:	00009bed 	.word	0x00009bed
    9d20:	000072e5 	.word	0x000072e5
    9d24:	000072bd 	.word	0x000072bd

00009d28 <_read>:
    9d28:	3000      	adds	r0, #0
    9d2a:	bf18      	it	ne
    9d2c:	2001      	movne	r0, #1
    9d2e:	4240      	negs	r0, r0
    9d30:	4770      	bx	lr
    9d32:	bf00      	nop

00009d34 <_ZN7ADXL375C1EP21spi_m_sync_descriptorh>:
    9d34:	6001      	str	r1, [r0, #0]
    9d36:	7102      	strb	r2, [r0, #4]
    9d38:	4770      	bx	lr
    9d3a:	bf00      	nop

00009d3c <_ZN7ADXL37518_multiReadRegisterEhPhh>:
    9d3c:	e92d 4ff0 	stmdb	sp!, {r4, r5, r6, r7, r8, r9, sl, fp, lr}
    9d40:	b085      	sub	sp, #20
    9d42:	af00      	add	r7, sp, #0
    9d44:	4604      	mov	r4, r0
    9d46:	4691      	mov	r9, r2
    9d48:	461d      	mov	r5, r3
    9d4a:	2b01      	cmp	r3, #1
    9d4c:	bf94      	ite	ls
    9d4e:	f041 0b80 	orrls.w	fp, r1, #128	; 0x80
    9d52:	f041 0bc0 	orrhi.w	fp, r1, #192	; 0xc0
    9d56:	f103 0801 	add.w	r8, r3, #1
    9d5a:	3308      	adds	r3, #8
    9d5c:	f403 73fc 	and.w	r3, r3, #504	; 0x1f8
    9d60:	ebad 0d03 	sub.w	sp, sp, r3
    9d64:	466e      	mov	r6, sp
    9d66:	ebad 0d03 	sub.w	sp, sp, r3
    9d6a:	4630      	mov	r0, r6
    9d6c:	2100      	movs	r1, #0
    9d6e:	4642      	mov	r2, r8
    9d70:	f8df a08c 	ldr.w	sl, [pc, #140]	; 9e00 <_ZN7ADXL37518_multiReadRegisterEhPhh+0xc4>
    9d74:	47d0      	blx	sl
    9d76:	4668      	mov	r0, sp
    9d78:	2100      	movs	r1, #0
    9d7a:	4642      	mov	r2, r8
    9d7c:	47d0      	blx	sl
    9d7e:	f886 b000 	strb.w	fp, [r6]
    9d82:	f8c7 800c 	str.w	r8, [r7, #12]
    9d86:	607e      	str	r6, [r7, #4]
    9d88:	f8c7 d008 	str.w	sp, [r7, #8]
    9d8c:	6820      	ldr	r0, [r4, #0]
    9d8e:	4b16      	ldr	r3, [pc, #88]	; (9de8 <_ZN7ADXL37518_multiReadRegisterEhPhh+0xac>)
    9d90:	4798      	blx	r3
    9d92:	6820      	ldr	r0, [r4, #0]
    9d94:	2103      	movs	r1, #3
    9d96:	4b15      	ldr	r3, [pc, #84]	; (9dec <_ZN7ADXL37518_multiReadRegisterEhPhh+0xb0>)
    9d98:	4798      	blx	r3
    9d9a:	6820      	ldr	r0, [r4, #0]
    9d9c:	4b14      	ldr	r3, [pc, #80]	; (9df0 <_ZN7ADXL37518_multiReadRegisterEhPhh+0xb4>)
    9d9e:	4798      	blx	r3
    9da0:	7923      	ldrb	r3, [r4, #4]
    9da2:	f003 021f 	and.w	r2, r3, #31
    9da6:	f04f 0801 	mov.w	r8, #1
    9daa:	fa08 f202 	lsl.w	r2, r8, r2
    9dae:	095b      	lsrs	r3, r3, #5
    9db0:	4e10      	ldr	r6, [pc, #64]	; (9df4 <_ZN7ADXL37518_multiReadRegisterEhPhh+0xb8>)
    9db2:	eb06 13c3 	add.w	r3, r6, r3, lsl #7
    9db6:	615a      	str	r2, [r3, #20]
    9db8:	6820      	ldr	r0, [r4, #0]
    9dba:	1d39      	adds	r1, r7, #4
    9dbc:	4b0e      	ldr	r3, [pc, #56]	; (9df8 <_ZN7ADXL37518_multiReadRegisterEhPhh+0xbc>)
    9dbe:	4798      	blx	r3
    9dc0:	7923      	ldrb	r3, [r4, #4]
    9dc2:	f003 021f 	and.w	r2, r3, #31
    9dc6:	fa08 f202 	lsl.w	r2, r8, r2
    9dca:	095b      	lsrs	r3, r3, #5
    9dcc:	eb06 16c3 	add.w	r6, r6, r3, lsl #7
    9dd0:	61b2      	str	r2, [r6, #24]
    9dd2:	4648      	mov	r0, r9
    9dd4:	eb0d 0108 	add.w	r1, sp, r8
    9dd8:	462a      	mov	r2, r5
    9dda:	4b08      	ldr	r3, [pc, #32]	; (9dfc <_ZN7ADXL37518_multiReadRegisterEhPhh+0xc0>)
    9ddc:	4798      	blx	r3
    9dde:	3714      	adds	r7, #20
    9de0:	46bd      	mov	sp, r7
    9de2:	e8bd 8ff0 	ldmia.w	sp!, {r4, r5, r6, r7, r8, r9, sl, fp, pc}
    9de6:	bf00      	nop
    9de8:	000045a1 	.word	0x000045a1
    9dec:	000045c9 	.word	0x000045c9
    9df0:	00004579 	.word	0x00004579
    9df4:	41008000 	.word	0x41008000
    9df8:	000045f5 	.word	0x000045f5
    9dfc:	0000b4dd 	.word	0x0000b4dd
    9e00:	0000b611 	.word	0x0000b611
    9e04:	00000000 	.word	0x00000000

00009e08 <_ZN7ADXL3756getXYZEv>:
    9e08:	e92d 43f0 	stmdb	sp!, {r4, r5, r6, r7, r8, r9, lr}
    9e0c:	ed2d 8b02 	vpush	{d8}
    9e10:	b08b      	sub	sp, #44	; 0x2c
    9e12:	2132      	movs	r1, #50	; 0x32
    9e14:	aa05      	add	r2, sp, #20
    9e16:	2306      	movs	r3, #6
    9e18:	4c31      	ldr	r4, [pc, #196]	; (9ee0 <_ZN7ADXL3756getXYZEv+0xd8>)
    9e1a:	47a0      	blx	r4
    9e1c:	f89d 2017 	ldrb.w	r2, [sp, #23]
    9e20:	f89d 3016 	ldrb.w	r3, [sp, #22]
    9e24:	ea43 2302 	orr.w	r3, r3, r2, lsl #8
    9e28:	b21b      	sxth	r3, r3
    9e2a:	ee07 3a10 	vmov	s14, r3
    9e2e:	eef8 7ac7 	vcvt.f32.s32	s15, s14
    9e32:	ed9f 8a2c 	vldr	s16, [pc, #176]	; 9ee4 <_ZN7ADXL3756getXYZEv+0xdc>
    9e36:	4f2c      	ldr	r7, [pc, #176]	; (9ee8 <_ZN7ADXL3756getXYZEv+0xe0>)
    9e38:	ee67 7a88 	vmul.f32	s15, s15, s16
    9e3c:	ee17 0a90 	vmov	r0, s15
    9e40:	47b8      	blx	r7
    9e42:	4e2a      	ldr	r6, [pc, #168]	; (9eec <_ZN7ADXL3756getXYZEv+0xe4>)
    9e44:	2200      	movs	r2, #0
    9e46:	4b2a      	ldr	r3, [pc, #168]	; (9ef0 <_ZN7ADXL3756getXYZEv+0xe8>)
    9e48:	47b0      	blx	r6
    9e4a:	4d2a      	ldr	r5, [pc, #168]	; (9ef4 <_ZN7ADXL3756getXYZEv+0xec>)
    9e4c:	a322      	add	r3, pc, #136	; (adr r3, 9ed8 <_ZN7ADXL3756getXYZEv+0xd0>)
    9e4e:	e9d3 2300 	ldrd	r2, r3, [r3]
    9e52:	47a8      	blx	r5
    9e54:	4c28      	ldr	r4, [pc, #160]	; (9ef8 <_ZN7ADXL3756getXYZEv+0xf0>)
    9e56:	47a0      	blx	r4
    9e58:	4681      	mov	r9, r0
    9e5a:	f89d 2019 	ldrb.w	r2, [sp, #25]
    9e5e:	f89d 3018 	ldrb.w	r3, [sp, #24]
    9e62:	ea43 2302 	orr.w	r3, r3, r2, lsl #8
    9e66:	b21b      	sxth	r3, r3
    9e68:	ee07 3a10 	vmov	s14, r3
    9e6c:	eef8 7ac7 	vcvt.f32.s32	s15, s14
    9e70:	ee67 7a88 	vmul.f32	s15, s15, s16
    9e74:	ee17 0a90 	vmov	r0, s15
    9e78:	47b8      	blx	r7
    9e7a:	2200      	movs	r2, #0
    9e7c:	4b1c      	ldr	r3, [pc, #112]	; (9ef0 <_ZN7ADXL3756getXYZEv+0xe8>)
    9e7e:	47b0      	blx	r6
    9e80:	a315      	add	r3, pc, #84	; (adr r3, 9ed8 <_ZN7ADXL3756getXYZEv+0xd0>)
    9e82:	e9d3 2300 	ldrd	r2, r3, [r3]
    9e86:	47a8      	blx	r5
    9e88:	47a0      	blx	r4
    9e8a:	4680      	mov	r8, r0
    9e8c:	f89d 2015 	ldrb.w	r2, [sp, #21]
    9e90:	f89d 3014 	ldrb.w	r3, [sp, #20]
    9e94:	ea43 2302 	orr.w	r3, r3, r2, lsl #8
    9e98:	b21b      	sxth	r3, r3
    9e9a:	ee07 3a10 	vmov	s14, r3
    9e9e:	eef8 7ac7 	vcvt.f32.s32	s15, s14
    9ea2:	ee67 7a88 	vmul.f32	s15, s15, s16
    9ea6:	ee17 0a90 	vmov	r0, s15
    9eaa:	47b8      	blx	r7
    9eac:	2200      	movs	r2, #0
    9eae:	4b10      	ldr	r3, [pc, #64]	; (9ef0 <_ZN7ADXL3756getXYZEv+0xe8>)
    9eb0:	47b0      	blx	r6
    9eb2:	a309      	add	r3, pc, #36	; (adr r3, 9ed8 <_ZN7ADXL3756getXYZEv+0xd0>)
    9eb4:	e9d3 2300 	ldrd	r2, r3, [r3]
    9eb8:	47a8      	blx	r5
    9eba:	47a0      	blx	r4
    9ebc:	ee00 0a10 	vmov	s0, r0
    9ec0:	ee00 9a90 	vmov	s1, r9
    9ec4:	ee01 8a10 	vmov	s2, r8
    9ec8:	b00b      	add	sp, #44	; 0x2c
    9eca:	ecbd 8b02 	vpop	{d8}
    9ece:	e8bd 83f0 	ldmia.w	sp!, {r4, r5, r6, r7, r8, r9, pc}
    9ed2:	bf00      	nop
    9ed4:	f3af 8000 	nop.w
    9ed8:	3a92a305 	.word	0x3a92a305
    9edc:	40239d01 	.word	0x40239d01
    9ee0:	00009d3d 	.word	0x00009d3d
    9ee4:	42440000 	.word	0x42440000
    9ee8:	0000a2cd 	.word	0x0000a2cd
    9eec:	0000a5c9 	.word	0x0000a5c9
    9ef0:	408f4000 	.word	0x408f4000
    9ef4:	0000a375 	.word	0x0000a375
    9ef8:	0000a8e9 	.word	0x0000a8e9
    9efc:	f3af 8000 	nop.w

00009f00 <_ZN7ADXL37513writeRegisterEhh>:
    9f00:	b570      	push	{r4, r5, r6, lr}
    9f02:	b086      	sub	sp, #24
    9f04:	4604      	mov	r4, r0
    9f06:	f88d 1004 	strb.w	r1, [sp, #4]
    9f0a:	f88d 2005 	strb.w	r2, [sp, #5]
    9f0e:	2300      	movs	r3, #0
    9f10:	f88d 3008 	strb.w	r3, [sp, #8]
    9f14:	f88d 3009 	strb.w	r3, [sp, #9]
    9f18:	2302      	movs	r3, #2
    9f1a:	9305      	str	r3, [sp, #20]
    9f1c:	ab01      	add	r3, sp, #4
    9f1e:	9303      	str	r3, [sp, #12]
    9f20:	ab02      	add	r3, sp, #8
    9f22:	9304      	str	r3, [sp, #16]
    9f24:	6800      	ldr	r0, [r0, #0]
    9f26:	4b11      	ldr	r3, [pc, #68]	; (9f6c <_ZN7ADXL37513writeRegisterEhh+0x6c>)
    9f28:	4798      	blx	r3
    9f2a:	6820      	ldr	r0, [r4, #0]
    9f2c:	2103      	movs	r1, #3
    9f2e:	4b10      	ldr	r3, [pc, #64]	; (9f70 <_ZN7ADXL37513writeRegisterEhh+0x70>)
    9f30:	4798      	blx	r3
    9f32:	6820      	ldr	r0, [r4, #0]
    9f34:	4b0f      	ldr	r3, [pc, #60]	; (9f74 <_ZN7ADXL37513writeRegisterEhh+0x74>)
    9f36:	4798      	blx	r3
    9f38:	7923      	ldrb	r3, [r4, #4]
    9f3a:	f003 021f 	and.w	r2, r3, #31
    9f3e:	2601      	movs	r6, #1
    9f40:	fa06 f202 	lsl.w	r2, r6, r2
    9f44:	095b      	lsrs	r3, r3, #5
    9f46:	4d0c      	ldr	r5, [pc, #48]	; (9f78 <_ZN7ADXL37513writeRegisterEhh+0x78>)
    9f48:	eb05 13c3 	add.w	r3, r5, r3, lsl #7
    9f4c:	615a      	str	r2, [r3, #20]
    9f4e:	6820      	ldr	r0, [r4, #0]
    9f50:	a903      	add	r1, sp, #12
    9f52:	4b0a      	ldr	r3, [pc, #40]	; (9f7c <_ZN7ADXL37513writeRegisterEhh+0x7c>)
    9f54:	4798      	blx	r3
    9f56:	7923      	ldrb	r3, [r4, #4]
    9f58:	f003 021f 	and.w	r2, r3, #31
    9f5c:	4096      	lsls	r6, r2
    9f5e:	095b      	lsrs	r3, r3, #5
    9f60:	eb05 15c3 	add.w	r5, r5, r3, lsl #7
    9f64:	61ae      	str	r6, [r5, #24]
    9f66:	b006      	add	sp, #24
    9f68:	bd70      	pop	{r4, r5, r6, pc}
    9f6a:	bf00      	nop
    9f6c:	000045a1 	.word	0x000045a1
    9f70:	000045c9 	.word	0x000045c9
    9f74:	00004579 	.word	0x00004579
    9f78:	41008000 	.word	0x41008000
    9f7c:	000045f5 	.word	0x000045f5

00009f80 <_ZN7ADXL37514startMeasuringEv>:
    9f80:	b508      	push	{r3, lr}
    9f82:	212d      	movs	r1, #45	; 0x2d
    9f84:	2208      	movs	r2, #8
    9f86:	4b01      	ldr	r3, [pc, #4]	; (9f8c <_ZN7ADXL37514startMeasuringEv+0xc>)
    9f88:	4798      	blx	r3
    9f8a:	bd08      	pop	{r3, pc}
    9f8c:	00009f01 	.word	0x00009f01

00009f90 <_ZN7ADXL37511setDataRateENS_17ADXL375_BandwidthE>:
    9f90:	b508      	push	{r3, lr}
    9f92:	460a      	mov	r2, r1
    9f94:	212c      	movs	r1, #44	; 0x2c
    9f96:	4b01      	ldr	r3, [pc, #4]	; (9f9c <_ZN7ADXL37511setDataRateENS_17ADXL375_BandwidthE+0xc>)
    9f98:	4798      	blx	r3
    9f9a:	bd08      	pop	{r3, pc}
    9f9c:	00009f01 	.word	0x00009f01

00009fa0 <_ZN7ADXL3754initEv>:
    9fa0:	b508      	push	{r3, lr}
    9fa2:	2108      	movs	r1, #8
    9fa4:	4b01      	ldr	r3, [pc, #4]	; (9fac <_ZN7ADXL3754initEv+0xc>)
    9fa6:	4798      	blx	r3
    9fa8:	bd08      	pop	{r3, pc}
    9faa:	bf00      	nop
    9fac:	00009f91 	.word	0x00009f91

00009fb0 <__fpclassifyd>:
    9fb0:	ec53 2b10 	vmov	r2, r3, d0
    9fb4:	f033 4100 	bics.w	r1, r3, #2147483648	; 0x80000000
    9fb8:	b410      	push	{r4}
    9fba:	d008      	beq.n	9fce <__fpclassifyd+0x1e>
    9fbc:	480f      	ldr	r0, [pc, #60]	; (9ffc <__fpclassifyd+0x4c>)
    9fbe:	f5a1 1480 	sub.w	r4, r1, #1048576	; 0x100000
    9fc2:	4284      	cmp	r4, r0
    9fc4:	d80a      	bhi.n	9fdc <__fpclassifyd+0x2c>
    9fc6:	2004      	movs	r0, #4
    9fc8:	f85d 4b04 	ldr.w	r4, [sp], #4
    9fcc:	4770      	bx	lr
    9fce:	2a00      	cmp	r2, #0
    9fd0:	bf0c      	ite	eq
    9fd2:	2002      	moveq	r0, #2
    9fd4:	2003      	movne	r0, #3
    9fd6:	f85d 4b04 	ldr.w	r4, [sp], #4
    9fda:	4770      	bx	lr
    9fdc:	f5b1 1f80 	cmp.w	r1, #1048576	; 0x100000
    9fe0:	d201      	bcs.n	9fe6 <__fpclassifyd+0x36>
    9fe2:	2003      	movs	r0, #3
    9fe4:	e7f7      	b.n	9fd6 <__fpclassifyd+0x26>
    9fe6:	4806      	ldr	r0, [pc, #24]	; (a000 <__fpclassifyd+0x50>)
    9fe8:	4281      	cmp	r1, r0
    9fea:	d001      	beq.n	9ff0 <__fpclassifyd+0x40>
    9fec:	2000      	movs	r0, #0
    9fee:	e7f2      	b.n	9fd6 <__fpclassifyd+0x26>
    9ff0:	f1d2 0001 	rsbs	r0, r2, #1
    9ff4:	bf38      	it	cc
    9ff6:	2000      	movcc	r0, #0
    9ff8:	e7ed      	b.n	9fd6 <__fpclassifyd+0x26>
    9ffa:	bf00      	nop
    9ffc:	7fdfffff 	.word	0x7fdfffff
    a000:	7ff00000 	.word	0x7ff00000

0000a004 <__aeabi_drsub>:
    a004:	f081 4100 	eor.w	r1, r1, #2147483648	; 0x80000000
    a008:	e002      	b.n	a010 <__adddf3>
    a00a:	bf00      	nop

0000a00c <__aeabi_dsub>:
    a00c:	f083 4300 	eor.w	r3, r3, #2147483648	; 0x80000000

0000a010 <__adddf3>:
    a010:	b530      	push	{r4, r5, lr}
    a012:	ea4f 0441 	mov.w	r4, r1, lsl #1
    a016:	ea4f 0543 	mov.w	r5, r3, lsl #1
    a01a:	ea94 0f05 	teq	r4, r5
    a01e:	bf08      	it	eq
    a020:	ea90 0f02 	teqeq	r0, r2
    a024:	bf1f      	itttt	ne
    a026:	ea54 0c00 	orrsne.w	ip, r4, r0
    a02a:	ea55 0c02 	orrsne.w	ip, r5, r2
    a02e:	ea7f 5c64 	mvnsne.w	ip, r4, asr #21
    a032:	ea7f 5c65 	mvnsne.w	ip, r5, asr #21
    a036:	f000 80e2 	beq.w	a1fe <__adddf3+0x1ee>
    a03a:	ea4f 5454 	mov.w	r4, r4, lsr #21
    a03e:	ebd4 5555 	rsbs	r5, r4, r5, lsr #21
    a042:	bfb8      	it	lt
    a044:	426d      	neglt	r5, r5
    a046:	dd0c      	ble.n	a062 <__adddf3+0x52>
    a048:	442c      	add	r4, r5
    a04a:	ea80 0202 	eor.w	r2, r0, r2
    a04e:	ea81 0303 	eor.w	r3, r1, r3
    a052:	ea82 0000 	eor.w	r0, r2, r0
    a056:	ea83 0101 	eor.w	r1, r3, r1
    a05a:	ea80 0202 	eor.w	r2, r0, r2
    a05e:	ea81 0303 	eor.w	r3, r1, r3
    a062:	2d36      	cmp	r5, #54	; 0x36
    a064:	bf88      	it	hi
    a066:	bd30      	pophi	{r4, r5, pc}
    a068:	f011 4f00 	tst.w	r1, #2147483648	; 0x80000000
    a06c:	ea4f 3101 	mov.w	r1, r1, lsl #12
    a070:	f44f 1c80 	mov.w	ip, #1048576	; 0x100000
    a074:	ea4c 3111 	orr.w	r1, ip, r1, lsr #12
    a078:	d002      	beq.n	a080 <__adddf3+0x70>
    a07a:	4240      	negs	r0, r0
    a07c:	eb61 0141 	sbc.w	r1, r1, r1, lsl #1
    a080:	f013 4f00 	tst.w	r3, #2147483648	; 0x80000000
    a084:	ea4f 3303 	mov.w	r3, r3, lsl #12
    a088:	ea4c 3313 	orr.w	r3, ip, r3, lsr #12
    a08c:	d002      	beq.n	a094 <__adddf3+0x84>
    a08e:	4252      	negs	r2, r2
    a090:	eb63 0343 	sbc.w	r3, r3, r3, lsl #1
    a094:	ea94 0f05 	teq	r4, r5
    a098:	f000 80a7 	beq.w	a1ea <__adddf3+0x1da>
    a09c:	f1a4 0401 	sub.w	r4, r4, #1
    a0a0:	f1d5 0e20 	rsbs	lr, r5, #32
    a0a4:	db0d      	blt.n	a0c2 <__adddf3+0xb2>
    a0a6:	fa02 fc0e 	lsl.w	ip, r2, lr
    a0aa:	fa22 f205 	lsr.w	r2, r2, r5
    a0ae:	1880      	adds	r0, r0, r2
    a0b0:	f141 0100 	adc.w	r1, r1, #0
    a0b4:	fa03 f20e 	lsl.w	r2, r3, lr
    a0b8:	1880      	adds	r0, r0, r2
    a0ba:	fa43 f305 	asr.w	r3, r3, r5
    a0be:	4159      	adcs	r1, r3
    a0c0:	e00e      	b.n	a0e0 <__adddf3+0xd0>
    a0c2:	f1a5 0520 	sub.w	r5, r5, #32
    a0c6:	f10e 0e20 	add.w	lr, lr, #32
    a0ca:	2a01      	cmp	r2, #1
    a0cc:	fa03 fc0e 	lsl.w	ip, r3, lr
    a0d0:	bf28      	it	cs
    a0d2:	f04c 0c02 	orrcs.w	ip, ip, #2
    a0d6:	fa43 f305 	asr.w	r3, r3, r5
    a0da:	18c0      	adds	r0, r0, r3
    a0dc:	eb51 71e3 	adcs.w	r1, r1, r3, asr #31
    a0e0:	f001 4500 	and.w	r5, r1, #2147483648	; 0x80000000
    a0e4:	d507      	bpl.n	a0f6 <__adddf3+0xe6>
    a0e6:	f04f 0e00 	mov.w	lr, #0
    a0ea:	f1dc 0c00 	rsbs	ip, ip, #0
    a0ee:	eb7e 0000 	sbcs.w	r0, lr, r0
    a0f2:	eb6e 0101 	sbc.w	r1, lr, r1
    a0f6:	f5b1 1f80 	cmp.w	r1, #1048576	; 0x100000
    a0fa:	d31b      	bcc.n	a134 <__adddf3+0x124>
    a0fc:	f5b1 1f00 	cmp.w	r1, #2097152	; 0x200000
    a100:	d30c      	bcc.n	a11c <__adddf3+0x10c>
    a102:	0849      	lsrs	r1, r1, #1
    a104:	ea5f 0030 	movs.w	r0, r0, rrx
    a108:	ea4f 0c3c 	mov.w	ip, ip, rrx
    a10c:	f104 0401 	add.w	r4, r4, #1
    a110:	ea4f 5244 	mov.w	r2, r4, lsl #21
    a114:	f512 0f80 	cmn.w	r2, #4194304	; 0x400000
    a118:	f080 809a 	bcs.w	a250 <__adddf3+0x240>
    a11c:	f1bc 4f00 	cmp.w	ip, #2147483648	; 0x80000000
    a120:	bf08      	it	eq
    a122:	ea5f 0c50 	movseq.w	ip, r0, lsr #1
    a126:	f150 0000 	adcs.w	r0, r0, #0
    a12a:	eb41 5104 	adc.w	r1, r1, r4, lsl #20
    a12e:	ea41 0105 	orr.w	r1, r1, r5
    a132:	bd30      	pop	{r4, r5, pc}
    a134:	ea5f 0c4c 	movs.w	ip, ip, lsl #1
    a138:	4140      	adcs	r0, r0
    a13a:	eb41 0101 	adc.w	r1, r1, r1
    a13e:	f411 1f80 	tst.w	r1, #1048576	; 0x100000
    a142:	f1a4 0401 	sub.w	r4, r4, #1
    a146:	d1e9      	bne.n	a11c <__adddf3+0x10c>
    a148:	f091 0f00 	teq	r1, #0
    a14c:	bf04      	itt	eq
    a14e:	4601      	moveq	r1, r0
    a150:	2000      	moveq	r0, #0
    a152:	fab1 f381 	clz	r3, r1
    a156:	bf08      	it	eq
    a158:	3320      	addeq	r3, #32
    a15a:	f1a3 030b 	sub.w	r3, r3, #11
    a15e:	f1b3 0220 	subs.w	r2, r3, #32
    a162:	da0c      	bge.n	a17e <__adddf3+0x16e>
    a164:	320c      	adds	r2, #12
    a166:	dd08      	ble.n	a17a <__adddf3+0x16a>
    a168:	f102 0c14 	add.w	ip, r2, #20
    a16c:	f1c2 020c 	rsb	r2, r2, #12
    a170:	fa01 f00c 	lsl.w	r0, r1, ip
    a174:	fa21 f102 	lsr.w	r1, r1, r2
    a178:	e00c      	b.n	a194 <__adddf3+0x184>
    a17a:	f102 0214 	add.w	r2, r2, #20
    a17e:	bfd8      	it	le
    a180:	f1c2 0c20 	rsble	ip, r2, #32
    a184:	fa01 f102 	lsl.w	r1, r1, r2
    a188:	fa20 fc0c 	lsr.w	ip, r0, ip
    a18c:	bfdc      	itt	le
    a18e:	ea41 010c 	orrle.w	r1, r1, ip
    a192:	4090      	lslle	r0, r2
    a194:	1ae4      	subs	r4, r4, r3
    a196:	bfa2      	ittt	ge
    a198:	eb01 5104 	addge.w	r1, r1, r4, lsl #20
    a19c:	4329      	orrge	r1, r5
    a19e:	bd30      	popge	{r4, r5, pc}
    a1a0:	ea6f 0404 	mvn.w	r4, r4
    a1a4:	3c1f      	subs	r4, #31
    a1a6:	da1c      	bge.n	a1e2 <__adddf3+0x1d2>
    a1a8:	340c      	adds	r4, #12
    a1aa:	dc0e      	bgt.n	a1ca <__adddf3+0x1ba>
    a1ac:	f104 0414 	add.w	r4, r4, #20
    a1b0:	f1c4 0220 	rsb	r2, r4, #32
    a1b4:	fa20 f004 	lsr.w	r0, r0, r4
    a1b8:	fa01 f302 	lsl.w	r3, r1, r2
    a1bc:	ea40 0003 	orr.w	r0, r0, r3
    a1c0:	fa21 f304 	lsr.w	r3, r1, r4
    a1c4:	ea45 0103 	orr.w	r1, r5, r3
    a1c8:	bd30      	pop	{r4, r5, pc}
    a1ca:	f1c4 040c 	rsb	r4, r4, #12
    a1ce:	f1c4 0220 	rsb	r2, r4, #32
    a1d2:	fa20 f002 	lsr.w	r0, r0, r2
    a1d6:	fa01 f304 	lsl.w	r3, r1, r4
    a1da:	ea40 0003 	orr.w	r0, r0, r3
    a1de:	4629      	mov	r1, r5
    a1e0:	bd30      	pop	{r4, r5, pc}
    a1e2:	fa21 f004 	lsr.w	r0, r1, r4
    a1e6:	4629      	mov	r1, r5
    a1e8:	bd30      	pop	{r4, r5, pc}
    a1ea:	f094 0f00 	teq	r4, #0
    a1ee:	f483 1380 	eor.w	r3, r3, #1048576	; 0x100000
    a1f2:	bf06      	itte	eq
    a1f4:	f481 1180 	eoreq.w	r1, r1, #1048576	; 0x100000
    a1f8:	3401      	addeq	r4, #1
    a1fa:	3d01      	subne	r5, #1
    a1fc:	e74e      	b.n	a09c <__adddf3+0x8c>
    a1fe:	ea7f 5c64 	mvns.w	ip, r4, asr #21
    a202:	bf18      	it	ne
    a204:	ea7f 5c65 	mvnsne.w	ip, r5, asr #21
    a208:	d029      	beq.n	a25e <__adddf3+0x24e>
    a20a:	ea94 0f05 	teq	r4, r5
    a20e:	bf08      	it	eq
    a210:	ea90 0f02 	teqeq	r0, r2
    a214:	d005      	beq.n	a222 <__adddf3+0x212>
    a216:	ea54 0c00 	orrs.w	ip, r4, r0
    a21a:	bf04      	itt	eq
    a21c:	4619      	moveq	r1, r3
    a21e:	4610      	moveq	r0, r2
    a220:	bd30      	pop	{r4, r5, pc}
    a222:	ea91 0f03 	teq	r1, r3
    a226:	bf1e      	ittt	ne
    a228:	2100      	movne	r1, #0
    a22a:	2000      	movne	r0, #0
    a22c:	bd30      	popne	{r4, r5, pc}
    a22e:	ea5f 5c54 	movs.w	ip, r4, lsr #21
    a232:	d105      	bne.n	a240 <__adddf3+0x230>
    a234:	0040      	lsls	r0, r0, #1
    a236:	4149      	adcs	r1, r1
    a238:	bf28      	it	cs
    a23a:	f041 4100 	orrcs.w	r1, r1, #2147483648	; 0x80000000
    a23e:	bd30      	pop	{r4, r5, pc}
    a240:	f514 0480 	adds.w	r4, r4, #4194304	; 0x400000
    a244:	bf3c      	itt	cc
    a246:	f501 1180 	addcc.w	r1, r1, #1048576	; 0x100000
    a24a:	bd30      	popcc	{r4, r5, pc}
    a24c:	f001 4500 	and.w	r5, r1, #2147483648	; 0x80000000
    a250:	f045 41fe 	orr.w	r1, r5, #2130706432	; 0x7f000000
    a254:	f441 0170 	orr.w	r1, r1, #15728640	; 0xf00000
    a258:	f04f 0000 	mov.w	r0, #0
    a25c:	bd30      	pop	{r4, r5, pc}
    a25e:	ea7f 5c64 	mvns.w	ip, r4, asr #21
    a262:	bf1a      	itte	ne
    a264:	4619      	movne	r1, r3
    a266:	4610      	movne	r0, r2
    a268:	ea7f 5c65 	mvnseq.w	ip, r5, asr #21
    a26c:	bf1c      	itt	ne
    a26e:	460b      	movne	r3, r1
    a270:	4602      	movne	r2, r0
    a272:	ea50 3401 	orrs.w	r4, r0, r1, lsl #12
    a276:	bf06      	itte	eq
    a278:	ea52 3503 	orrseq.w	r5, r2, r3, lsl #12
    a27c:	ea91 0f03 	teqeq	r1, r3
    a280:	f441 2100 	orrne.w	r1, r1, #524288	; 0x80000
    a284:	bd30      	pop	{r4, r5, pc}
    a286:	bf00      	nop

0000a288 <__aeabi_ui2d>:
    a288:	f090 0f00 	teq	r0, #0
    a28c:	bf04      	itt	eq
    a28e:	2100      	moveq	r1, #0
    a290:	4770      	bxeq	lr
    a292:	b530      	push	{r4, r5, lr}
    a294:	f44f 6480 	mov.w	r4, #1024	; 0x400
    a298:	f104 0432 	add.w	r4, r4, #50	; 0x32
    a29c:	f04f 0500 	mov.w	r5, #0
    a2a0:	f04f 0100 	mov.w	r1, #0
    a2a4:	e750      	b.n	a148 <__adddf3+0x138>
    a2a6:	bf00      	nop

0000a2a8 <__aeabi_i2d>:
    a2a8:	f090 0f00 	teq	r0, #0
    a2ac:	bf04      	itt	eq
    a2ae:	2100      	moveq	r1, #0
    a2b0:	4770      	bxeq	lr
    a2b2:	b530      	push	{r4, r5, lr}
    a2b4:	f44f 6480 	mov.w	r4, #1024	; 0x400
    a2b8:	f104 0432 	add.w	r4, r4, #50	; 0x32
    a2bc:	f010 4500 	ands.w	r5, r0, #2147483648	; 0x80000000
    a2c0:	bf48      	it	mi
    a2c2:	4240      	negmi	r0, r0
    a2c4:	f04f 0100 	mov.w	r1, #0
    a2c8:	e73e      	b.n	a148 <__adddf3+0x138>
    a2ca:	bf00      	nop

0000a2cc <__aeabi_f2d>:
    a2cc:	0042      	lsls	r2, r0, #1
    a2ce:	ea4f 01e2 	mov.w	r1, r2, asr #3
    a2d2:	ea4f 0131 	mov.w	r1, r1, rrx
    a2d6:	ea4f 7002 	mov.w	r0, r2, lsl #28
    a2da:	bf1f      	itttt	ne
    a2dc:	f012 437f 	andsne.w	r3, r2, #4278190080	; 0xff000000
    a2e0:	f093 4f7f 	teqne	r3, #4278190080	; 0xff000000
    a2e4:	f081 5160 	eorne.w	r1, r1, #939524096	; 0x38000000
    a2e8:	4770      	bxne	lr
    a2ea:	f092 0f00 	teq	r2, #0
    a2ee:	bf14      	ite	ne
    a2f0:	f093 4f7f 	teqne	r3, #4278190080	; 0xff000000
    a2f4:	4770      	bxeq	lr
    a2f6:	b530      	push	{r4, r5, lr}
    a2f8:	f44f 7460 	mov.w	r4, #896	; 0x380
    a2fc:	f001 4500 	and.w	r5, r1, #2147483648	; 0x80000000
    a300:	f021 4100 	bic.w	r1, r1, #2147483648	; 0x80000000
    a304:	e720      	b.n	a148 <__adddf3+0x138>
    a306:	bf00      	nop

0000a308 <__aeabi_ul2d>:
    a308:	ea50 0201 	orrs.w	r2, r0, r1
    a30c:	bf08      	it	eq
    a30e:	4770      	bxeq	lr
    a310:	b530      	push	{r4, r5, lr}
    a312:	f04f 0500 	mov.w	r5, #0
    a316:	e00a      	b.n	a32e <__aeabi_l2d+0x16>

0000a318 <__aeabi_l2d>:
    a318:	ea50 0201 	orrs.w	r2, r0, r1
    a31c:	bf08      	it	eq
    a31e:	4770      	bxeq	lr
    a320:	b530      	push	{r4, r5, lr}
    a322:	f011 4500 	ands.w	r5, r1, #2147483648	; 0x80000000
    a326:	d502      	bpl.n	a32e <__aeabi_l2d+0x16>
    a328:	4240      	negs	r0, r0
    a32a:	eb61 0141 	sbc.w	r1, r1, r1, lsl #1
    a32e:	f44f 6480 	mov.w	r4, #1024	; 0x400
    a332:	f104 0432 	add.w	r4, r4, #50	; 0x32
    a336:	ea5f 5c91 	movs.w	ip, r1, lsr #22
    a33a:	f43f aedc 	beq.w	a0f6 <__adddf3+0xe6>
    a33e:	f04f 0203 	mov.w	r2, #3
    a342:	ea5f 0cdc 	movs.w	ip, ip, lsr #3
    a346:	bf18      	it	ne
    a348:	3203      	addne	r2, #3
    a34a:	ea5f 0cdc 	movs.w	ip, ip, lsr #3
    a34e:	bf18      	it	ne
    a350:	3203      	addne	r2, #3
    a352:	eb02 02dc 	add.w	r2, r2, ip, lsr #3
    a356:	f1c2 0320 	rsb	r3, r2, #32
    a35a:	fa00 fc03 	lsl.w	ip, r0, r3
    a35e:	fa20 f002 	lsr.w	r0, r0, r2
    a362:	fa01 fe03 	lsl.w	lr, r1, r3
    a366:	ea40 000e 	orr.w	r0, r0, lr
    a36a:	fa21 f102 	lsr.w	r1, r1, r2
    a36e:	4414      	add	r4, r2
    a370:	e6c1      	b.n	a0f6 <__adddf3+0xe6>
    a372:	bf00      	nop

0000a374 <__aeabi_dmul>:
    a374:	b570      	push	{r4, r5, r6, lr}
    a376:	f04f 0cff 	mov.w	ip, #255	; 0xff
    a37a:	f44c 6ce0 	orr.w	ip, ip, #1792	; 0x700
    a37e:	ea1c 5411 	ands.w	r4, ip, r1, lsr #20
    a382:	bf1d      	ittte	ne
    a384:	ea1c 5513 	andsne.w	r5, ip, r3, lsr #20
    a388:	ea94 0f0c 	teqne	r4, ip
    a38c:	ea95 0f0c 	teqne	r5, ip
    a390:	f000 f8de 	bleq	a550 <__aeabi_dmul+0x1dc>
    a394:	442c      	add	r4, r5
    a396:	ea81 0603 	eor.w	r6, r1, r3
    a39a:	ea21 514c 	bic.w	r1, r1, ip, lsl #21
    a39e:	ea23 534c 	bic.w	r3, r3, ip, lsl #21
    a3a2:	ea50 3501 	orrs.w	r5, r0, r1, lsl #12
    a3a6:	bf18      	it	ne
    a3a8:	ea52 3503 	orrsne.w	r5, r2, r3, lsl #12
    a3ac:	f441 1180 	orr.w	r1, r1, #1048576	; 0x100000
    a3b0:	f443 1380 	orr.w	r3, r3, #1048576	; 0x100000
    a3b4:	d038      	beq.n	a428 <__aeabi_dmul+0xb4>
    a3b6:	fba0 ce02 	umull	ip, lr, r0, r2
    a3ba:	f04f 0500 	mov.w	r5, #0
    a3be:	fbe1 e502 	umlal	lr, r5, r1, r2
    a3c2:	f006 4200 	and.w	r2, r6, #2147483648	; 0x80000000
    a3c6:	fbe0 e503 	umlal	lr, r5, r0, r3
    a3ca:	f04f 0600 	mov.w	r6, #0
    a3ce:	fbe1 5603 	umlal	r5, r6, r1, r3
    a3d2:	f09c 0f00 	teq	ip, #0
    a3d6:	bf18      	it	ne
    a3d8:	f04e 0e01 	orrne.w	lr, lr, #1
    a3dc:	f1a4 04ff 	sub.w	r4, r4, #255	; 0xff
    a3e0:	f5b6 7f00 	cmp.w	r6, #512	; 0x200
    a3e4:	f564 7440 	sbc.w	r4, r4, #768	; 0x300
    a3e8:	d204      	bcs.n	a3f4 <__aeabi_dmul+0x80>
    a3ea:	ea5f 0e4e 	movs.w	lr, lr, lsl #1
    a3ee:	416d      	adcs	r5, r5
    a3f0:	eb46 0606 	adc.w	r6, r6, r6
    a3f4:	ea42 21c6 	orr.w	r1, r2, r6, lsl #11
    a3f8:	ea41 5155 	orr.w	r1, r1, r5, lsr #21
    a3fc:	ea4f 20c5 	mov.w	r0, r5, lsl #11
    a400:	ea40 505e 	orr.w	r0, r0, lr, lsr #21
    a404:	ea4f 2ece 	mov.w	lr, lr, lsl #11
    a408:	f1b4 0cfd 	subs.w	ip, r4, #253	; 0xfd
    a40c:	bf88      	it	hi
    a40e:	f5bc 6fe0 	cmphi.w	ip, #1792	; 0x700
    a412:	d81e      	bhi.n	a452 <__aeabi_dmul+0xde>
    a414:	f1be 4f00 	cmp.w	lr, #2147483648	; 0x80000000
    a418:	bf08      	it	eq
    a41a:	ea5f 0e50 	movseq.w	lr, r0, lsr #1
    a41e:	f150 0000 	adcs.w	r0, r0, #0
    a422:	eb41 5104 	adc.w	r1, r1, r4, lsl #20
    a426:	bd70      	pop	{r4, r5, r6, pc}
    a428:	f006 4600 	and.w	r6, r6, #2147483648	; 0x80000000
    a42c:	ea46 0101 	orr.w	r1, r6, r1
    a430:	ea40 0002 	orr.w	r0, r0, r2
    a434:	ea81 0103 	eor.w	r1, r1, r3
    a438:	ebb4 045c 	subs.w	r4, r4, ip, lsr #1
    a43c:	bfc2      	ittt	gt
    a43e:	ebd4 050c 	rsbsgt	r5, r4, ip
    a442:	ea41 5104 	orrgt.w	r1, r1, r4, lsl #20
    a446:	bd70      	popgt	{r4, r5, r6, pc}
    a448:	f441 1180 	orr.w	r1, r1, #1048576	; 0x100000
    a44c:	f04f 0e00 	mov.w	lr, #0
    a450:	3c01      	subs	r4, #1
    a452:	f300 80ab 	bgt.w	a5ac <__aeabi_dmul+0x238>
    a456:	f114 0f36 	cmn.w	r4, #54	; 0x36
    a45a:	bfde      	ittt	le
    a45c:	2000      	movle	r0, #0
    a45e:	f001 4100 	andle.w	r1, r1, #2147483648	; 0x80000000
    a462:	bd70      	pople	{r4, r5, r6, pc}
    a464:	f1c4 0400 	rsb	r4, r4, #0
    a468:	3c20      	subs	r4, #32
    a46a:	da35      	bge.n	a4d8 <__aeabi_dmul+0x164>
    a46c:	340c      	adds	r4, #12
    a46e:	dc1b      	bgt.n	a4a8 <__aeabi_dmul+0x134>
    a470:	f104 0414 	add.w	r4, r4, #20
    a474:	f1c4 0520 	rsb	r5, r4, #32
    a478:	fa00 f305 	lsl.w	r3, r0, r5
    a47c:	fa20 f004 	lsr.w	r0, r0, r4
    a480:	fa01 f205 	lsl.w	r2, r1, r5
    a484:	ea40 0002 	orr.w	r0, r0, r2
    a488:	f001 4200 	and.w	r2, r1, #2147483648	; 0x80000000
    a48c:	f021 4100 	bic.w	r1, r1, #2147483648	; 0x80000000
    a490:	eb10 70d3 	adds.w	r0, r0, r3, lsr #31
    a494:	fa21 f604 	lsr.w	r6, r1, r4
    a498:	eb42 0106 	adc.w	r1, r2, r6
    a49c:	ea5e 0e43 	orrs.w	lr, lr, r3, lsl #1
    a4a0:	bf08      	it	eq
    a4a2:	ea20 70d3 	biceq.w	r0, r0, r3, lsr #31
    a4a6:	bd70      	pop	{r4, r5, r6, pc}
    a4a8:	f1c4 040c 	rsb	r4, r4, #12
    a4ac:	f1c4 0520 	rsb	r5, r4, #32
    a4b0:	fa00 f304 	lsl.w	r3, r0, r4
    a4b4:	fa20 f005 	lsr.w	r0, r0, r5
    a4b8:	fa01 f204 	lsl.w	r2, r1, r4
    a4bc:	ea40 0002 	orr.w	r0, r0, r2
    a4c0:	f001 4100 	and.w	r1, r1, #2147483648	; 0x80000000
    a4c4:	eb10 70d3 	adds.w	r0, r0, r3, lsr #31
    a4c8:	f141 0100 	adc.w	r1, r1, #0
    a4cc:	ea5e 0e43 	orrs.w	lr, lr, r3, lsl #1
    a4d0:	bf08      	it	eq
    a4d2:	ea20 70d3 	biceq.w	r0, r0, r3, lsr #31
    a4d6:	bd70      	pop	{r4, r5, r6, pc}
    a4d8:	f1c4 0520 	rsb	r5, r4, #32
    a4dc:	fa00 f205 	lsl.w	r2, r0, r5
    a4e0:	ea4e 0e02 	orr.w	lr, lr, r2
    a4e4:	fa20 f304 	lsr.w	r3, r0, r4
    a4e8:	fa01 f205 	lsl.w	r2, r1, r5
    a4ec:	ea43 0302 	orr.w	r3, r3, r2
    a4f0:	fa21 f004 	lsr.w	r0, r1, r4
    a4f4:	f001 4100 	and.w	r1, r1, #2147483648	; 0x80000000
    a4f8:	fa21 f204 	lsr.w	r2, r1, r4
    a4fc:	ea20 0002 	bic.w	r0, r0, r2
    a500:	eb00 70d3 	add.w	r0, r0, r3, lsr #31
    a504:	ea5e 0e43 	orrs.w	lr, lr, r3, lsl #1
    a508:	bf08      	it	eq
    a50a:	ea20 70d3 	biceq.w	r0, r0, r3, lsr #31
    a50e:	bd70      	pop	{r4, r5, r6, pc}
    a510:	f094 0f00 	teq	r4, #0
    a514:	d10f      	bne.n	a536 <__aeabi_dmul+0x1c2>
    a516:	f001 4600 	and.w	r6, r1, #2147483648	; 0x80000000
    a51a:	0040      	lsls	r0, r0, #1
    a51c:	eb41 0101 	adc.w	r1, r1, r1
    a520:	f411 1f80 	tst.w	r1, #1048576	; 0x100000
    a524:	bf08      	it	eq
    a526:	3c01      	subeq	r4, #1
    a528:	d0f7      	beq.n	a51a <__aeabi_dmul+0x1a6>
    a52a:	ea41 0106 	orr.w	r1, r1, r6
    a52e:	f095 0f00 	teq	r5, #0
    a532:	bf18      	it	ne
    a534:	4770      	bxne	lr
    a536:	f003 4600 	and.w	r6, r3, #2147483648	; 0x80000000
    a53a:	0052      	lsls	r2, r2, #1
    a53c:	eb43 0303 	adc.w	r3, r3, r3
    a540:	f413 1f80 	tst.w	r3, #1048576	; 0x100000
    a544:	bf08      	it	eq
    a546:	3d01      	subeq	r5, #1
    a548:	d0f7      	beq.n	a53a <__aeabi_dmul+0x1c6>
    a54a:	ea43 0306 	orr.w	r3, r3, r6
    a54e:	4770      	bx	lr
    a550:	ea94 0f0c 	teq	r4, ip
    a554:	ea0c 5513 	and.w	r5, ip, r3, lsr #20
    a558:	bf18      	it	ne
    a55a:	ea95 0f0c 	teqne	r5, ip
    a55e:	d00c      	beq.n	a57a <__aeabi_dmul+0x206>
    a560:	ea50 0641 	orrs.w	r6, r0, r1, lsl #1
    a564:	bf18      	it	ne
    a566:	ea52 0643 	orrsne.w	r6, r2, r3, lsl #1
    a56a:	d1d1      	bne.n	a510 <__aeabi_dmul+0x19c>
    a56c:	ea81 0103 	eor.w	r1, r1, r3
    a570:	f001 4100 	and.w	r1, r1, #2147483648	; 0x80000000
    a574:	f04f 0000 	mov.w	r0, #0
    a578:	bd70      	pop	{r4, r5, r6, pc}
    a57a:	ea50 0641 	orrs.w	r6, r0, r1, lsl #1
    a57e:	bf06      	itte	eq
    a580:	4610      	moveq	r0, r2
    a582:	4619      	moveq	r1, r3
    a584:	ea52 0643 	orrsne.w	r6, r2, r3, lsl #1
    a588:	d019      	beq.n	a5be <__aeabi_dmul+0x24a>
    a58a:	ea94 0f0c 	teq	r4, ip
    a58e:	d102      	bne.n	a596 <__aeabi_dmul+0x222>
    a590:	ea50 3601 	orrs.w	r6, r0, r1, lsl #12
    a594:	d113      	bne.n	a5be <__aeabi_dmul+0x24a>
    a596:	ea95 0f0c 	teq	r5, ip
    a59a:	d105      	bne.n	a5a8 <__aeabi_dmul+0x234>
    a59c:	ea52 3603 	orrs.w	r6, r2, r3, lsl #12
    a5a0:	bf1c      	itt	ne
    a5a2:	4610      	movne	r0, r2
    a5a4:	4619      	movne	r1, r3
    a5a6:	d10a      	bne.n	a5be <__aeabi_dmul+0x24a>
    a5a8:	ea81 0103 	eor.w	r1, r1, r3
    a5ac:	f001 4100 	and.w	r1, r1, #2147483648	; 0x80000000
    a5b0:	f041 41fe 	orr.w	r1, r1, #2130706432	; 0x7f000000
    a5b4:	f441 0170 	orr.w	r1, r1, #15728640	; 0xf00000
    a5b8:	f04f 0000 	mov.w	r0, #0
    a5bc:	bd70      	pop	{r4, r5, r6, pc}
    a5be:	f041 41fe 	orr.w	r1, r1, #2130706432	; 0x7f000000
    a5c2:	f441 0178 	orr.w	r1, r1, #16252928	; 0xf80000
    a5c6:	bd70      	pop	{r4, r5, r6, pc}

0000a5c8 <__aeabi_ddiv>:
    a5c8:	b570      	push	{r4, r5, r6, lr}
    a5ca:	f04f 0cff 	mov.w	ip, #255	; 0xff
    a5ce:	f44c 6ce0 	orr.w	ip, ip, #1792	; 0x700
    a5d2:	ea1c 5411 	ands.w	r4, ip, r1, lsr #20
    a5d6:	bf1d      	ittte	ne
    a5d8:	ea1c 5513 	andsne.w	r5, ip, r3, lsr #20
    a5dc:	ea94 0f0c 	teqne	r4, ip
    a5e0:	ea95 0f0c 	teqne	r5, ip
    a5e4:	f000 f8a7 	bleq	a736 <__aeabi_ddiv+0x16e>
    a5e8:	eba4 0405 	sub.w	r4, r4, r5
    a5ec:	ea81 0e03 	eor.w	lr, r1, r3
    a5f0:	ea52 3503 	orrs.w	r5, r2, r3, lsl #12
    a5f4:	ea4f 3101 	mov.w	r1, r1, lsl #12
    a5f8:	f000 8088 	beq.w	a70c <__aeabi_ddiv+0x144>
    a5fc:	ea4f 3303 	mov.w	r3, r3, lsl #12
    a600:	f04f 5580 	mov.w	r5, #268435456	; 0x10000000
    a604:	ea45 1313 	orr.w	r3, r5, r3, lsr #4
    a608:	ea43 6312 	orr.w	r3, r3, r2, lsr #24
    a60c:	ea4f 2202 	mov.w	r2, r2, lsl #8
    a610:	ea45 1511 	orr.w	r5, r5, r1, lsr #4
    a614:	ea45 6510 	orr.w	r5, r5, r0, lsr #24
    a618:	ea4f 2600 	mov.w	r6, r0, lsl #8
    a61c:	f00e 4100 	and.w	r1, lr, #2147483648	; 0x80000000
    a620:	429d      	cmp	r5, r3
    a622:	bf08      	it	eq
    a624:	4296      	cmpeq	r6, r2
    a626:	f144 04fd 	adc.w	r4, r4, #253	; 0xfd
    a62a:	f504 7440 	add.w	r4, r4, #768	; 0x300
    a62e:	d202      	bcs.n	a636 <__aeabi_ddiv+0x6e>
    a630:	085b      	lsrs	r3, r3, #1
    a632:	ea4f 0232 	mov.w	r2, r2, rrx
    a636:	1ab6      	subs	r6, r6, r2
    a638:	eb65 0503 	sbc.w	r5, r5, r3
    a63c:	085b      	lsrs	r3, r3, #1
    a63e:	ea4f 0232 	mov.w	r2, r2, rrx
    a642:	f44f 1080 	mov.w	r0, #1048576	; 0x100000
    a646:	f44f 2c00 	mov.w	ip, #524288	; 0x80000
    a64a:	ebb6 0e02 	subs.w	lr, r6, r2
    a64e:	eb75 0e03 	sbcs.w	lr, r5, r3
    a652:	bf22      	ittt	cs
    a654:	1ab6      	subcs	r6, r6, r2
    a656:	4675      	movcs	r5, lr
    a658:	ea40 000c 	orrcs.w	r0, r0, ip
    a65c:	085b      	lsrs	r3, r3, #1
    a65e:	ea4f 0232 	mov.w	r2, r2, rrx
    a662:	ebb6 0e02 	subs.w	lr, r6, r2
    a666:	eb75 0e03 	sbcs.w	lr, r5, r3
    a66a:	bf22      	ittt	cs
    a66c:	1ab6      	subcs	r6, r6, r2
    a66e:	4675      	movcs	r5, lr
    a670:	ea40 005c 	orrcs.w	r0, r0, ip, lsr #1
    a674:	085b      	lsrs	r3, r3, #1
    a676:	ea4f 0232 	mov.w	r2, r2, rrx
    a67a:	ebb6 0e02 	subs.w	lr, r6, r2
    a67e:	eb75 0e03 	sbcs.w	lr, r5, r3
    a682:	bf22      	ittt	cs
    a684:	1ab6      	subcs	r6, r6, r2
    a686:	4675      	movcs	r5, lr
    a688:	ea40 009c 	orrcs.w	r0, r0, ip, lsr #2
    a68c:	085b      	lsrs	r3, r3, #1
    a68e:	ea4f 0232 	mov.w	r2, r2, rrx
    a692:	ebb6 0e02 	subs.w	lr, r6, r2
    a696:	eb75 0e03 	sbcs.w	lr, r5, r3
    a69a:	bf22      	ittt	cs
    a69c:	1ab6      	subcs	r6, r6, r2
    a69e:	4675      	movcs	r5, lr
    a6a0:	ea40 00dc 	orrcs.w	r0, r0, ip, lsr #3
    a6a4:	ea55 0e06 	orrs.w	lr, r5, r6
    a6a8:	d018      	beq.n	a6dc <__aeabi_ddiv+0x114>
    a6aa:	ea4f 1505 	mov.w	r5, r5, lsl #4
    a6ae:	ea45 7516 	orr.w	r5, r5, r6, lsr #28
    a6b2:	ea4f 1606 	mov.w	r6, r6, lsl #4
    a6b6:	ea4f 03c3 	mov.w	r3, r3, lsl #3
    a6ba:	ea43 7352 	orr.w	r3, r3, r2, lsr #29
    a6be:	ea4f 02c2 	mov.w	r2, r2, lsl #3
    a6c2:	ea5f 1c1c 	movs.w	ip, ip, lsr #4
    a6c6:	d1c0      	bne.n	a64a <__aeabi_ddiv+0x82>
    a6c8:	f411 1f80 	tst.w	r1, #1048576	; 0x100000
    a6cc:	d10b      	bne.n	a6e6 <__aeabi_ddiv+0x11e>
    a6ce:	ea41 0100 	orr.w	r1, r1, r0
    a6d2:	f04f 0000 	mov.w	r0, #0
    a6d6:	f04f 4c00 	mov.w	ip, #2147483648	; 0x80000000
    a6da:	e7b6      	b.n	a64a <__aeabi_ddiv+0x82>
    a6dc:	f411 1f80 	tst.w	r1, #1048576	; 0x100000
    a6e0:	bf04      	itt	eq
    a6e2:	4301      	orreq	r1, r0
    a6e4:	2000      	moveq	r0, #0
    a6e6:	f1b4 0cfd 	subs.w	ip, r4, #253	; 0xfd
    a6ea:	bf88      	it	hi
    a6ec:	f5bc 6fe0 	cmphi.w	ip, #1792	; 0x700
    a6f0:	f63f aeaf 	bhi.w	a452 <__aeabi_dmul+0xde>
    a6f4:	ebb5 0c03 	subs.w	ip, r5, r3
    a6f8:	bf04      	itt	eq
    a6fa:	ebb6 0c02 	subseq.w	ip, r6, r2
    a6fe:	ea5f 0c50 	movseq.w	ip, r0, lsr #1
    a702:	f150 0000 	adcs.w	r0, r0, #0
    a706:	eb41 5104 	adc.w	r1, r1, r4, lsl #20
    a70a:	bd70      	pop	{r4, r5, r6, pc}
    a70c:	f00e 4e00 	and.w	lr, lr, #2147483648	; 0x80000000
    a710:	ea4e 3111 	orr.w	r1, lr, r1, lsr #12
    a714:	eb14 045c 	adds.w	r4, r4, ip, lsr #1
    a718:	bfc2      	ittt	gt
    a71a:	ebd4 050c 	rsbsgt	r5, r4, ip
    a71e:	ea41 5104 	orrgt.w	r1, r1, r4, lsl #20
    a722:	bd70      	popgt	{r4, r5, r6, pc}
    a724:	f441 1180 	orr.w	r1, r1, #1048576	; 0x100000
    a728:	f04f 0e00 	mov.w	lr, #0
    a72c:	3c01      	subs	r4, #1
    a72e:	e690      	b.n	a452 <__aeabi_dmul+0xde>
    a730:	ea45 0e06 	orr.w	lr, r5, r6
    a734:	e68d      	b.n	a452 <__aeabi_dmul+0xde>
    a736:	ea0c 5513 	and.w	r5, ip, r3, lsr #20
    a73a:	ea94 0f0c 	teq	r4, ip
    a73e:	bf08      	it	eq
    a740:	ea95 0f0c 	teqeq	r5, ip
    a744:	f43f af3b 	beq.w	a5be <__aeabi_dmul+0x24a>
    a748:	ea94 0f0c 	teq	r4, ip
    a74c:	d10a      	bne.n	a764 <__aeabi_ddiv+0x19c>
    a74e:	ea50 3401 	orrs.w	r4, r0, r1, lsl #12
    a752:	f47f af34 	bne.w	a5be <__aeabi_dmul+0x24a>
    a756:	ea95 0f0c 	teq	r5, ip
    a75a:	f47f af25 	bne.w	a5a8 <__aeabi_dmul+0x234>
    a75e:	4610      	mov	r0, r2
    a760:	4619      	mov	r1, r3
    a762:	e72c      	b.n	a5be <__aeabi_dmul+0x24a>
    a764:	ea95 0f0c 	teq	r5, ip
    a768:	d106      	bne.n	a778 <__aeabi_ddiv+0x1b0>
    a76a:	ea52 3503 	orrs.w	r5, r2, r3, lsl #12
    a76e:	f43f aefd 	beq.w	a56c <__aeabi_dmul+0x1f8>
    a772:	4610      	mov	r0, r2
    a774:	4619      	mov	r1, r3
    a776:	e722      	b.n	a5be <__aeabi_dmul+0x24a>
    a778:	ea50 0641 	orrs.w	r6, r0, r1, lsl #1
    a77c:	bf18      	it	ne
    a77e:	ea52 0643 	orrsne.w	r6, r2, r3, lsl #1
    a782:	f47f aec5 	bne.w	a510 <__aeabi_dmul+0x19c>
    a786:	ea50 0441 	orrs.w	r4, r0, r1, lsl #1
    a78a:	f47f af0d 	bne.w	a5a8 <__aeabi_dmul+0x234>
    a78e:	ea52 0543 	orrs.w	r5, r2, r3, lsl #1
    a792:	f47f aeeb 	bne.w	a56c <__aeabi_dmul+0x1f8>
    a796:	e712      	b.n	a5be <__aeabi_dmul+0x24a>

0000a798 <__gedf2>:
    a798:	f04f 3cff 	mov.w	ip, #4294967295	; 0xffffffff
    a79c:	e006      	b.n	a7ac <__cmpdf2+0x4>
    a79e:	bf00      	nop

0000a7a0 <__ledf2>:
    a7a0:	f04f 0c01 	mov.w	ip, #1
    a7a4:	e002      	b.n	a7ac <__cmpdf2+0x4>
    a7a6:	bf00      	nop

0000a7a8 <__cmpdf2>:
    a7a8:	f04f 0c01 	mov.w	ip, #1
    a7ac:	f84d cd04 	str.w	ip, [sp, #-4]!
    a7b0:	ea4f 0c41 	mov.w	ip, r1, lsl #1
    a7b4:	ea7f 5c6c 	mvns.w	ip, ip, asr #21
    a7b8:	ea4f 0c43 	mov.w	ip, r3, lsl #1
    a7bc:	bf18      	it	ne
    a7be:	ea7f 5c6c 	mvnsne.w	ip, ip, asr #21
    a7c2:	d01b      	beq.n	a7fc <__cmpdf2+0x54>
    a7c4:	b001      	add	sp, #4
    a7c6:	ea50 0c41 	orrs.w	ip, r0, r1, lsl #1
    a7ca:	bf0c      	ite	eq
    a7cc:	ea52 0c43 	orrseq.w	ip, r2, r3, lsl #1
    a7d0:	ea91 0f03 	teqne	r1, r3
    a7d4:	bf02      	ittt	eq
    a7d6:	ea90 0f02 	teqeq	r0, r2
    a7da:	2000      	moveq	r0, #0
    a7dc:	4770      	bxeq	lr
    a7de:	f110 0f00 	cmn.w	r0, #0
    a7e2:	ea91 0f03 	teq	r1, r3
    a7e6:	bf58      	it	pl
    a7e8:	4299      	cmppl	r1, r3
    a7ea:	bf08      	it	eq
    a7ec:	4290      	cmpeq	r0, r2
    a7ee:	bf2c      	ite	cs
    a7f0:	17d8      	asrcs	r0, r3, #31
    a7f2:	ea6f 70e3 	mvncc.w	r0, r3, asr #31
    a7f6:	f040 0001 	orr.w	r0, r0, #1
    a7fa:	4770      	bx	lr
    a7fc:	ea4f 0c41 	mov.w	ip, r1, lsl #1
    a800:	ea7f 5c6c 	mvns.w	ip, ip, asr #21
    a804:	d102      	bne.n	a80c <__cmpdf2+0x64>
    a806:	ea50 3c01 	orrs.w	ip, r0, r1, lsl #12
    a80a:	d107      	bne.n	a81c <__cmpdf2+0x74>
    a80c:	ea4f 0c43 	mov.w	ip, r3, lsl #1
    a810:	ea7f 5c6c 	mvns.w	ip, ip, asr #21
    a814:	d1d6      	bne.n	a7c4 <__cmpdf2+0x1c>
    a816:	ea52 3c03 	orrs.w	ip, r2, r3, lsl #12
    a81a:	d0d3      	beq.n	a7c4 <__cmpdf2+0x1c>
    a81c:	f85d 0b04 	ldr.w	r0, [sp], #4
    a820:	4770      	bx	lr
    a822:	bf00      	nop

0000a824 <__aeabi_cdrcmple>:
    a824:	4684      	mov	ip, r0
    a826:	4610      	mov	r0, r2
    a828:	4662      	mov	r2, ip
    a82a:	468c      	mov	ip, r1
    a82c:	4619      	mov	r1, r3
    a82e:	4663      	mov	r3, ip
    a830:	e000      	b.n	a834 <__aeabi_cdcmpeq>
    a832:	bf00      	nop

0000a834 <__aeabi_cdcmpeq>:
    a834:	b501      	push	{r0, lr}
    a836:	f7ff ffb7 	bl	a7a8 <__cmpdf2>
    a83a:	2800      	cmp	r0, #0
    a83c:	bf48      	it	mi
    a83e:	f110 0f00 	cmnmi.w	r0, #0
    a842:	bd01      	pop	{r0, pc}

0000a844 <__aeabi_dcmpeq>:
    a844:	f84d ed08 	str.w	lr, [sp, #-8]!
    a848:	f7ff fff4 	bl	a834 <__aeabi_cdcmpeq>
    a84c:	bf0c      	ite	eq
    a84e:	2001      	moveq	r0, #1
    a850:	2000      	movne	r0, #0
    a852:	f85d fb08 	ldr.w	pc, [sp], #8
    a856:	bf00      	nop

0000a858 <__aeabi_dcmplt>:
    a858:	f84d ed08 	str.w	lr, [sp, #-8]!
    a85c:	f7ff ffea 	bl	a834 <__aeabi_cdcmpeq>
    a860:	bf34      	ite	cc
    a862:	2001      	movcc	r0, #1
    a864:	2000      	movcs	r0, #0
    a866:	f85d fb08 	ldr.w	pc, [sp], #8
    a86a:	bf00      	nop

0000a86c <__aeabi_dcmple>:
    a86c:	f84d ed08 	str.w	lr, [sp, #-8]!
    a870:	f7ff ffe0 	bl	a834 <__aeabi_cdcmpeq>
    a874:	bf94      	ite	ls
    a876:	2001      	movls	r0, #1
    a878:	2000      	movhi	r0, #0
    a87a:	f85d fb08 	ldr.w	pc, [sp], #8
    a87e:	bf00      	nop

0000a880 <__aeabi_dcmpge>:
    a880:	f84d ed08 	str.w	lr, [sp, #-8]!
    a884:	f7ff ffce 	bl	a824 <__aeabi_cdrcmple>
    a888:	bf94      	ite	ls
    a88a:	2001      	movls	r0, #1
    a88c:	2000      	movhi	r0, #0
    a88e:	f85d fb08 	ldr.w	pc, [sp], #8
    a892:	bf00      	nop

0000a894 <__aeabi_dcmpgt>:
    a894:	f84d ed08 	str.w	lr, [sp, #-8]!
    a898:	f7ff ffc4 	bl	a824 <__aeabi_cdrcmple>
    a89c:	bf34      	ite	cc
    a89e:	2001      	movcc	r0, #1
    a8a0:	2000      	movcs	r0, #0
    a8a2:	f85d fb08 	ldr.w	pc, [sp], #8
    a8a6:	bf00      	nop

0000a8a8 <__aeabi_d2uiz>:
    a8a8:	004a      	lsls	r2, r1, #1
    a8aa:	d211      	bcs.n	a8d0 <__aeabi_d2uiz+0x28>
    a8ac:	f512 1200 	adds.w	r2, r2, #2097152	; 0x200000
    a8b0:	d211      	bcs.n	a8d6 <__aeabi_d2uiz+0x2e>
    a8b2:	d50d      	bpl.n	a8d0 <__aeabi_d2uiz+0x28>
    a8b4:	f46f 7378 	mvn.w	r3, #992	; 0x3e0
    a8b8:	ebb3 5262 	subs.w	r2, r3, r2, asr #21
    a8bc:	d40e      	bmi.n	a8dc <__aeabi_d2uiz+0x34>
    a8be:	ea4f 23c1 	mov.w	r3, r1, lsl #11
    a8c2:	f043 4300 	orr.w	r3, r3, #2147483648	; 0x80000000
    a8c6:	ea43 5350 	orr.w	r3, r3, r0, lsr #21
    a8ca:	fa23 f002 	lsr.w	r0, r3, r2
    a8ce:	4770      	bx	lr
    a8d0:	f04f 0000 	mov.w	r0, #0
    a8d4:	4770      	bx	lr
    a8d6:	ea50 3001 	orrs.w	r0, r0, r1, lsl #12
    a8da:	d102      	bne.n	a8e2 <__aeabi_d2uiz+0x3a>
    a8dc:	f04f 30ff 	mov.w	r0, #4294967295	; 0xffffffff
    a8e0:	4770      	bx	lr
    a8e2:	f04f 0000 	mov.w	r0, #0
    a8e6:	4770      	bx	lr

0000a8e8 <__aeabi_d2f>:
    a8e8:	ea4f 0241 	mov.w	r2, r1, lsl #1
    a8ec:	f1b2 43e0 	subs.w	r3, r2, #1879048192	; 0x70000000
    a8f0:	bf24      	itt	cs
    a8f2:	f5b3 1c00 	subscs.w	ip, r3, #2097152	; 0x200000
    a8f6:	f1dc 5cfe 	rsbscs	ip, ip, #532676608	; 0x1fc00000
    a8fa:	d90d      	bls.n	a918 <__aeabi_d2f+0x30>
    a8fc:	f001 4c00 	and.w	ip, r1, #2147483648	; 0x80000000
    a900:	ea4f 02c0 	mov.w	r2, r0, lsl #3
    a904:	ea4c 7050 	orr.w	r0, ip, r0, lsr #29
    a908:	f1b2 4f00 	cmp.w	r2, #2147483648	; 0x80000000
    a90c:	eb40 0083 	adc.w	r0, r0, r3, lsl #2
    a910:	bf08      	it	eq
    a912:	f020 0001 	biceq.w	r0, r0, #1
    a916:	4770      	bx	lr
    a918:	f011 4f80 	tst.w	r1, #1073741824	; 0x40000000
    a91c:	d121      	bne.n	a962 <__aeabi_d2f+0x7a>
    a91e:	f113 7238 	adds.w	r2, r3, #48234496	; 0x2e00000
    a922:	bfbc      	itt	lt
    a924:	f001 4000 	andlt.w	r0, r1, #2147483648	; 0x80000000
    a928:	4770      	bxlt	lr
    a92a:	f441 1180 	orr.w	r1, r1, #1048576	; 0x100000
    a92e:	ea4f 5252 	mov.w	r2, r2, lsr #21
    a932:	f1c2 0218 	rsb	r2, r2, #24
    a936:	f1c2 0c20 	rsb	ip, r2, #32
    a93a:	fa10 f30c 	lsls.w	r3, r0, ip
    a93e:	fa20 f002 	lsr.w	r0, r0, r2
    a942:	bf18      	it	ne
    a944:	f040 0001 	orrne.w	r0, r0, #1
    a948:	ea4f 23c1 	mov.w	r3, r1, lsl #11
    a94c:	ea4f 23d3 	mov.w	r3, r3, lsr #11
    a950:	fa03 fc0c 	lsl.w	ip, r3, ip
    a954:	ea40 000c 	orr.w	r0, r0, ip
    a958:	fa23 f302 	lsr.w	r3, r3, r2
    a95c:	ea4f 0343 	mov.w	r3, r3, lsl #1
    a960:	e7cc      	b.n	a8fc <__aeabi_d2f+0x14>
    a962:	ea7f 5362 	mvns.w	r3, r2, asr #21
    a966:	d107      	bne.n	a978 <__aeabi_d2f+0x90>
    a968:	ea50 3301 	orrs.w	r3, r0, r1, lsl #12
    a96c:	bf1e      	ittt	ne
    a96e:	f04f 40fe 	movne.w	r0, #2130706432	; 0x7f000000
    a972:	f440 0040 	orrne.w	r0, r0, #12582912	; 0xc00000
    a976:	4770      	bxne	lr
    a978:	f001 4000 	and.w	r0, r1, #2147483648	; 0x80000000
    a97c:	f040 40fe 	orr.w	r0, r0, #2130706432	; 0x7f000000
    a980:	f440 0000 	orr.w	r0, r0, #8388608	; 0x800000
    a984:	4770      	bx	lr
    a986:	bf00      	nop

0000a988 <__aeabi_uldivmod>:
    a988:	b94b      	cbnz	r3, a99e <__aeabi_uldivmod+0x16>
    a98a:	b942      	cbnz	r2, a99e <__aeabi_uldivmod+0x16>
    a98c:	2900      	cmp	r1, #0
    a98e:	bf08      	it	eq
    a990:	2800      	cmpeq	r0, #0
    a992:	d002      	beq.n	a99a <__aeabi_uldivmod+0x12>
    a994:	f04f 31ff 	mov.w	r1, #4294967295	; 0xffffffff
    a998:	4608      	mov	r0, r1
    a99a:	f000 b83b 	b.w	aa14 <__aeabi_idiv0>
    a99e:	b082      	sub	sp, #8
    a9a0:	46ec      	mov	ip, sp
    a9a2:	e92d 5000 	stmdb	sp!, {ip, lr}
    a9a6:	f000 f81d 	bl	a9e4 <__gnu_uldivmod_helper>
    a9aa:	f8dd e004 	ldr.w	lr, [sp, #4]
    a9ae:	b002      	add	sp, #8
    a9b0:	bc0c      	pop	{r2, r3}
    a9b2:	4770      	bx	lr

0000a9b4 <__gnu_ldivmod_helper>:
    a9b4:	e92d 4370 	stmdb	sp!, {r4, r5, r6, r8, r9, lr}
    a9b8:	9e06      	ldr	r6, [sp, #24]
    a9ba:	4614      	mov	r4, r2
    a9bc:	461d      	mov	r5, r3
    a9be:	4680      	mov	r8, r0
    a9c0:	4689      	mov	r9, r1
    a9c2:	f000 f829 	bl	aa18 <__divdi3>
    a9c6:	fb04 f301 	mul.w	r3, r4, r1
    a9ca:	fb00 3305 	mla	r3, r0, r5, r3
    a9ce:	fba4 4500 	umull	r4, r5, r4, r0
    a9d2:	441d      	add	r5, r3
    a9d4:	ebb8 0404 	subs.w	r4, r8, r4
    a9d8:	eb69 0505 	sbc.w	r5, r9, r5
    a9dc:	e9c6 4500 	strd	r4, r5, [r6]
    a9e0:	e8bd 8370 	ldmia.w	sp!, {r4, r5, r6, r8, r9, pc}

0000a9e4 <__gnu_uldivmod_helper>:
    a9e4:	e92d 4370 	stmdb	sp!, {r4, r5, r6, r8, r9, lr}
    a9e8:	9e06      	ldr	r6, [sp, #24]
    a9ea:	4614      	mov	r4, r2
    a9ec:	4680      	mov	r8, r0
    a9ee:	4689      	mov	r9, r1
    a9f0:	461d      	mov	r5, r3
    a9f2:	f000 f95d 	bl	acb0 <__udivdi3>
    a9f6:	fb00 f505 	mul.w	r5, r0, r5
    a9fa:	fb04 5301 	mla	r3, r4, r1, r5
    a9fe:	fba0 4504 	umull	r4, r5, r0, r4
    aa02:	441d      	add	r5, r3
    aa04:	ebb8 0404 	subs.w	r4, r8, r4
    aa08:	eb69 0505 	sbc.w	r5, r9, r5
    aa0c:	e9c6 4500 	strd	r4, r5, [r6]
    aa10:	e8bd 8370 	ldmia.w	sp!, {r4, r5, r6, r8, r9, pc}

0000aa14 <__aeabi_idiv0>:
    aa14:	4770      	bx	lr
    aa16:	bf00      	nop

0000aa18 <__divdi3>:
    aa18:	2900      	cmp	r1, #0
    aa1a:	e92d 0ff0 	stmdb	sp!, {r4, r5, r6, r7, r8, r9, sl, fp}
    aa1e:	f2c0 809f 	blt.w	ab60 <__divdi3+0x148>
    aa22:	2400      	movs	r4, #0
    aa24:	2b00      	cmp	r3, #0
    aa26:	f2c0 8096 	blt.w	ab56 <__divdi3+0x13e>
    aa2a:	4615      	mov	r5, r2
    aa2c:	4606      	mov	r6, r0
    aa2e:	460f      	mov	r7, r1
    aa30:	2b00      	cmp	r3, #0
    aa32:	d13e      	bne.n	aab2 <__divdi3+0x9a>
    aa34:	428a      	cmp	r2, r1
    aa36:	d957      	bls.n	aae8 <__divdi3+0xd0>
    aa38:	fab2 f382 	clz	r3, r2
    aa3c:	b14b      	cbz	r3, aa52 <__divdi3+0x3a>
    aa3e:	f1c3 0220 	rsb	r2, r3, #32
    aa42:	fa01 f703 	lsl.w	r7, r1, r3
    aa46:	fa20 f202 	lsr.w	r2, r0, r2
    aa4a:	409d      	lsls	r5, r3
    aa4c:	4317      	orrs	r7, r2
    aa4e:	fa00 f603 	lsl.w	r6, r0, r3
    aa52:	0c29      	lsrs	r1, r5, #16
    aa54:	fbb7 f2f1 	udiv	r2, r7, r1
    aa58:	0c33      	lsrs	r3, r6, #16
    aa5a:	fb01 7c12 	mls	ip, r1, r2, r7
    aa5e:	b2a8      	uxth	r0, r5
    aa60:	ea43 470c 	orr.w	r7, r3, ip, lsl #16
    aa64:	fb00 f302 	mul.w	r3, r0, r2
    aa68:	42bb      	cmp	r3, r7
    aa6a:	d909      	bls.n	aa80 <__divdi3+0x68>
    aa6c:	197f      	adds	r7, r7, r5
    aa6e:	f102 3cff 	add.w	ip, r2, #4294967295	; 0xffffffff
    aa72:	f080 8101 	bcs.w	ac78 <__divdi3+0x260>
    aa76:	42bb      	cmp	r3, r7
    aa78:	f240 80fe 	bls.w	ac78 <__divdi3+0x260>
    aa7c:	3a02      	subs	r2, #2
    aa7e:	442f      	add	r7, r5
    aa80:	1aff      	subs	r7, r7, r3
    aa82:	fbb7 f3f1 	udiv	r3, r7, r1
    aa86:	b2b6      	uxth	r6, r6
    aa88:	fb01 7113 	mls	r1, r1, r3, r7
    aa8c:	ea46 4101 	orr.w	r1, r6, r1, lsl #16
    aa90:	fb00 f003 	mul.w	r0, r0, r3
    aa94:	4288      	cmp	r0, r1
    aa96:	d908      	bls.n	aaaa <__divdi3+0x92>
    aa98:	1949      	adds	r1, r1, r5
    aa9a:	f103 37ff 	add.w	r7, r3, #4294967295	; 0xffffffff
    aa9e:	f080 80ed 	bcs.w	ac7c <__divdi3+0x264>
    aaa2:	4288      	cmp	r0, r1
    aaa4:	f240 80ea 	bls.w	ac7c <__divdi3+0x264>
    aaa8:	3b02      	subs	r3, #2
    aaaa:	ea43 4202 	orr.w	r2, r3, r2, lsl #16
    aaae:	2300      	movs	r3, #0
    aab0:	e003      	b.n	aaba <__divdi3+0xa2>
    aab2:	428b      	cmp	r3, r1
    aab4:	d90a      	bls.n	aacc <__divdi3+0xb4>
    aab6:	2300      	movs	r3, #0
    aab8:	461a      	mov	r2, r3
    aaba:	4610      	mov	r0, r2
    aabc:	4619      	mov	r1, r3
    aabe:	b114      	cbz	r4, aac6 <__divdi3+0xae>
    aac0:	4240      	negs	r0, r0
    aac2:	eb61 0141 	sbc.w	r1, r1, r1, lsl #1
    aac6:	e8bd 0ff0 	ldmia.w	sp!, {r4, r5, r6, r7, r8, r9, sl, fp}
    aaca:	4770      	bx	lr
    aacc:	fab3 f883 	clz	r8, r3
    aad0:	f1b8 0f00 	cmp.w	r8, #0
    aad4:	f040 8084 	bne.w	abe0 <__divdi3+0x1c8>
    aad8:	428b      	cmp	r3, r1
    aada:	d302      	bcc.n	aae2 <__divdi3+0xca>
    aadc:	4282      	cmp	r2, r0
    aade:	f200 80de 	bhi.w	ac9e <__divdi3+0x286>
    aae2:	2300      	movs	r3, #0
    aae4:	2201      	movs	r2, #1
    aae6:	e7e8      	b.n	aaba <__divdi3+0xa2>
    aae8:	b912      	cbnz	r2, aaf0 <__divdi3+0xd8>
    aaea:	2301      	movs	r3, #1
    aaec:	fbb3 f5f2 	udiv	r5, r3, r2
    aaf0:	fab5 f285 	clz	r2, r5
    aaf4:	2a00      	cmp	r2, #0
    aaf6:	d139      	bne.n	ab6c <__divdi3+0x154>
    aaf8:	1b7f      	subs	r7, r7, r5
    aafa:	0c28      	lsrs	r0, r5, #16
    aafc:	fa1f fc85 	uxth.w	ip, r5
    ab00:	2301      	movs	r3, #1
    ab02:	fbb7 f1f0 	udiv	r1, r7, r0
    ab06:	0c32      	lsrs	r2, r6, #16
    ab08:	fb00 7711 	mls	r7, r0, r1, r7
    ab0c:	ea42 4707 	orr.w	r7, r2, r7, lsl #16
    ab10:	fb0c f201 	mul.w	r2, ip, r1
    ab14:	42ba      	cmp	r2, r7
    ab16:	d907      	bls.n	ab28 <__divdi3+0x110>
    ab18:	197f      	adds	r7, r7, r5
    ab1a:	f101 38ff 	add.w	r8, r1, #4294967295	; 0xffffffff
    ab1e:	d202      	bcs.n	ab26 <__divdi3+0x10e>
    ab20:	42ba      	cmp	r2, r7
    ab22:	f200 80c1 	bhi.w	aca8 <__divdi3+0x290>
    ab26:	4641      	mov	r1, r8
    ab28:	1abf      	subs	r7, r7, r2
    ab2a:	fbb7 f2f0 	udiv	r2, r7, r0
    ab2e:	b2b6      	uxth	r6, r6
    ab30:	fb00 7012 	mls	r0, r0, r2, r7
    ab34:	ea46 4000 	orr.w	r0, r6, r0, lsl #16
    ab38:	fb0c fc02 	mul.w	ip, ip, r2
    ab3c:	4584      	cmp	ip, r0
    ab3e:	d907      	bls.n	ab50 <__divdi3+0x138>
    ab40:	1940      	adds	r0, r0, r5
    ab42:	f102 37ff 	add.w	r7, r2, #4294967295	; 0xffffffff
    ab46:	d202      	bcs.n	ab4e <__divdi3+0x136>
    ab48:	4584      	cmp	ip, r0
    ab4a:	f200 80ab 	bhi.w	aca4 <__divdi3+0x28c>
    ab4e:	463a      	mov	r2, r7
    ab50:	ea42 4201 	orr.w	r2, r2, r1, lsl #16
    ab54:	e7b1      	b.n	aaba <__divdi3+0xa2>
    ab56:	43e4      	mvns	r4, r4
    ab58:	4252      	negs	r2, r2
    ab5a:	eb63 0343 	sbc.w	r3, r3, r3, lsl #1
    ab5e:	e764      	b.n	aa2a <__divdi3+0x12>
    ab60:	4240      	negs	r0, r0
    ab62:	eb61 0141 	sbc.w	r1, r1, r1, lsl #1
    ab66:	f04f 34ff 	mov.w	r4, #4294967295	; 0xffffffff
    ab6a:	e75b      	b.n	aa24 <__divdi3+0xc>
    ab6c:	4095      	lsls	r5, r2
    ab6e:	f1c2 0320 	rsb	r3, r2, #32
    ab72:	fa27 f103 	lsr.w	r1, r7, r3
    ab76:	0c28      	lsrs	r0, r5, #16
    ab78:	fa26 f303 	lsr.w	r3, r6, r3
    ab7c:	4097      	lsls	r7, r2
    ab7e:	fbb1 f8f0 	udiv	r8, r1, r0
    ab82:	431f      	orrs	r7, r3
    ab84:	0c3b      	lsrs	r3, r7, #16
    ab86:	fb00 1118 	mls	r1, r0, r8, r1
    ab8a:	fa1f fc85 	uxth.w	ip, r5
    ab8e:	ea43 4101 	orr.w	r1, r3, r1, lsl #16
    ab92:	fb0c f308 	mul.w	r3, ip, r8
    ab96:	428b      	cmp	r3, r1
    ab98:	fa06 f602 	lsl.w	r6, r6, r2
    ab9c:	d908      	bls.n	abb0 <__divdi3+0x198>
    ab9e:	1949      	adds	r1, r1, r5
    aba0:	f108 32ff 	add.w	r2, r8, #4294967295	; 0xffffffff
    aba4:	d279      	bcs.n	ac9a <__divdi3+0x282>
    aba6:	428b      	cmp	r3, r1
    aba8:	d977      	bls.n	ac9a <__divdi3+0x282>
    abaa:	f1a8 0802 	sub.w	r8, r8, #2
    abae:	4429      	add	r1, r5
    abb0:	1ac9      	subs	r1, r1, r3
    abb2:	fbb1 f3f0 	udiv	r3, r1, r0
    abb6:	b2bf      	uxth	r7, r7
    abb8:	fb00 1113 	mls	r1, r0, r3, r1
    abbc:	ea47 4701 	orr.w	r7, r7, r1, lsl #16
    abc0:	fb0c f203 	mul.w	r2, ip, r3
    abc4:	42ba      	cmp	r2, r7
    abc6:	d907      	bls.n	abd8 <__divdi3+0x1c0>
    abc8:	197f      	adds	r7, r7, r5
    abca:	f103 31ff 	add.w	r1, r3, #4294967295	; 0xffffffff
    abce:	d260      	bcs.n	ac92 <__divdi3+0x27a>
    abd0:	42ba      	cmp	r2, r7
    abd2:	d95e      	bls.n	ac92 <__divdi3+0x27a>
    abd4:	3b02      	subs	r3, #2
    abd6:	442f      	add	r7, r5
    abd8:	1abf      	subs	r7, r7, r2
    abda:	ea43 4308 	orr.w	r3, r3, r8, lsl #16
    abde:	e790      	b.n	ab02 <__divdi3+0xea>
    abe0:	f1c8 0220 	rsb	r2, r8, #32
    abe4:	fa03 fc08 	lsl.w	ip, r3, r8
    abe8:	fa25 f302 	lsr.w	r3, r5, r2
    abec:	ea43 0c0c 	orr.w	ip, r3, ip
    abf0:	ea4f 491c 	mov.w	r9, ip, lsr #16
    abf4:	fa21 f302 	lsr.w	r3, r1, r2
    abf8:	fa01 f708 	lsl.w	r7, r1, r8
    abfc:	fa20 f202 	lsr.w	r2, r0, r2
    ac00:	fbb3 f1f9 	udiv	r1, r3, r9
    ac04:	4317      	orrs	r7, r2
    ac06:	fb09 3311 	mls	r3, r9, r1, r3
    ac0a:	0c3a      	lsrs	r2, r7, #16
    ac0c:	fa1f fb8c 	uxth.w	fp, ip
    ac10:	ea42 4303 	orr.w	r3, r2, r3, lsl #16
    ac14:	fb0b fa01 	mul.w	sl, fp, r1
    ac18:	459a      	cmp	sl, r3
    ac1a:	fa05 f008 	lsl.w	r0, r5, r8
    ac1e:	d908      	bls.n	ac32 <__divdi3+0x21a>
    ac20:	eb13 030c 	adds.w	r3, r3, ip
    ac24:	f101 32ff 	add.w	r2, r1, #4294967295	; 0xffffffff
    ac28:	d235      	bcs.n	ac96 <__divdi3+0x27e>
    ac2a:	459a      	cmp	sl, r3
    ac2c:	d933      	bls.n	ac96 <__divdi3+0x27e>
    ac2e:	3902      	subs	r1, #2
    ac30:	4463      	add	r3, ip
    ac32:	ebca 0303 	rsb	r3, sl, r3
    ac36:	fbb3 f2f9 	udiv	r2, r3, r9
    ac3a:	fb09 3312 	mls	r3, r9, r2, r3
    ac3e:	b2bf      	uxth	r7, r7
    ac40:	ea47 4703 	orr.w	r7, r7, r3, lsl #16
    ac44:	fb0b f902 	mul.w	r9, fp, r2
    ac48:	45b9      	cmp	r9, r7
    ac4a:	d908      	bls.n	ac5e <__divdi3+0x246>
    ac4c:	eb17 070c 	adds.w	r7, r7, ip
    ac50:	f102 33ff 	add.w	r3, r2, #4294967295	; 0xffffffff
    ac54:	d21b      	bcs.n	ac8e <__divdi3+0x276>
    ac56:	45b9      	cmp	r9, r7
    ac58:	d919      	bls.n	ac8e <__divdi3+0x276>
    ac5a:	3a02      	subs	r2, #2
    ac5c:	4467      	add	r7, ip
    ac5e:	ea42 4501 	orr.w	r5, r2, r1, lsl #16
    ac62:	fba5 0100 	umull	r0, r1, r5, r0
    ac66:	ebc9 0707 	rsb	r7, r9, r7
    ac6a:	428f      	cmp	r7, r1
    ac6c:	f04f 0300 	mov.w	r3, #0
    ac70:	d30a      	bcc.n	ac88 <__divdi3+0x270>
    ac72:	d005      	beq.n	ac80 <__divdi3+0x268>
    ac74:	462a      	mov	r2, r5
    ac76:	e720      	b.n	aaba <__divdi3+0xa2>
    ac78:	4662      	mov	r2, ip
    ac7a:	e701      	b.n	aa80 <__divdi3+0x68>
    ac7c:	463b      	mov	r3, r7
    ac7e:	e714      	b.n	aaaa <__divdi3+0x92>
    ac80:	fa06 f608 	lsl.w	r6, r6, r8
    ac84:	4286      	cmp	r6, r0
    ac86:	d2f5      	bcs.n	ac74 <__divdi3+0x25c>
    ac88:	1e6a      	subs	r2, r5, #1
    ac8a:	2300      	movs	r3, #0
    ac8c:	e715      	b.n	aaba <__divdi3+0xa2>
    ac8e:	461a      	mov	r2, r3
    ac90:	e7e5      	b.n	ac5e <__divdi3+0x246>
    ac92:	460b      	mov	r3, r1
    ac94:	e7a0      	b.n	abd8 <__divdi3+0x1c0>
    ac96:	4611      	mov	r1, r2
    ac98:	e7cb      	b.n	ac32 <__divdi3+0x21a>
    ac9a:	4690      	mov	r8, r2
    ac9c:	e788      	b.n	abb0 <__divdi3+0x198>
    ac9e:	4643      	mov	r3, r8
    aca0:	4642      	mov	r2, r8
    aca2:	e70a      	b.n	aaba <__divdi3+0xa2>
    aca4:	3a02      	subs	r2, #2
    aca6:	e753      	b.n	ab50 <__divdi3+0x138>
    aca8:	3902      	subs	r1, #2
    acaa:	442f      	add	r7, r5
    acac:	e73c      	b.n	ab28 <__divdi3+0x110>
    acae:	bf00      	nop

0000acb0 <__udivdi3>:
    acb0:	e92d 0ff0 	stmdb	sp!, {r4, r5, r6, r7, r8, r9, sl, fp}
    acb4:	4614      	mov	r4, r2
    acb6:	4605      	mov	r5, r0
    acb8:	460e      	mov	r6, r1
    acba:	2b00      	cmp	r3, #0
    acbc:	d143      	bne.n	ad46 <__udivdi3+0x96>
    acbe:	428a      	cmp	r2, r1
    acc0:	d953      	bls.n	ad6a <__udivdi3+0xba>
    acc2:	fab2 f782 	clz	r7, r2
    acc6:	b157      	cbz	r7, acde <__udivdi3+0x2e>
    acc8:	f1c7 0620 	rsb	r6, r7, #32
    accc:	fa20 f606 	lsr.w	r6, r0, r6
    acd0:	fa01 f307 	lsl.w	r3, r1, r7
    acd4:	fa02 f407 	lsl.w	r4, r2, r7
    acd8:	431e      	orrs	r6, r3
    acda:	fa00 f507 	lsl.w	r5, r0, r7
    acde:	0c21      	lsrs	r1, r4, #16
    ace0:	fbb6 f2f1 	udiv	r2, r6, r1
    ace4:	0c2b      	lsrs	r3, r5, #16
    ace6:	fb01 6712 	mls	r7, r1, r2, r6
    acea:	b2a0      	uxth	r0, r4
    acec:	ea43 4607 	orr.w	r6, r3, r7, lsl #16
    acf0:	fb00 f302 	mul.w	r3, r0, r2
    acf4:	42b3      	cmp	r3, r6
    acf6:	d909      	bls.n	ad0c <__udivdi3+0x5c>
    acf8:	1936      	adds	r6, r6, r4
    acfa:	f102 37ff 	add.w	r7, r2, #4294967295	; 0xffffffff
    acfe:	f080 80f6 	bcs.w	aeee <__udivdi3+0x23e>
    ad02:	42b3      	cmp	r3, r6
    ad04:	f240 80f3 	bls.w	aeee <__udivdi3+0x23e>
    ad08:	3a02      	subs	r2, #2
    ad0a:	4426      	add	r6, r4
    ad0c:	1af6      	subs	r6, r6, r3
    ad0e:	fbb6 f3f1 	udiv	r3, r6, r1
    ad12:	b2ad      	uxth	r5, r5
    ad14:	fb01 6113 	mls	r1, r1, r3, r6
    ad18:	ea45 4101 	orr.w	r1, r5, r1, lsl #16
    ad1c:	fb00 f003 	mul.w	r0, r0, r3
    ad20:	4288      	cmp	r0, r1
    ad22:	d908      	bls.n	ad36 <__udivdi3+0x86>
    ad24:	1909      	adds	r1, r1, r4
    ad26:	f103 36ff 	add.w	r6, r3, #4294967295	; 0xffffffff
    ad2a:	f080 80e2 	bcs.w	aef2 <__udivdi3+0x242>
    ad2e:	4288      	cmp	r0, r1
    ad30:	f240 80df 	bls.w	aef2 <__udivdi3+0x242>
    ad34:	3b02      	subs	r3, #2
    ad36:	ea43 4202 	orr.w	r2, r3, r2, lsl #16
    ad3a:	2300      	movs	r3, #0
    ad3c:	4610      	mov	r0, r2
    ad3e:	4619      	mov	r1, r3
    ad40:	e8bd 0ff0 	ldmia.w	sp!, {r4, r5, r6, r7, r8, r9, sl, fp}
    ad44:	4770      	bx	lr
    ad46:	428b      	cmp	r3, r1
    ad48:	d84a      	bhi.n	ade0 <__udivdi3+0x130>
    ad4a:	fab3 f683 	clz	r6, r3
    ad4e:	2e00      	cmp	r6, #0
    ad50:	d14d      	bne.n	adee <__udivdi3+0x13e>
    ad52:	428b      	cmp	r3, r1
    ad54:	d302      	bcc.n	ad5c <__udivdi3+0xac>
    ad56:	4282      	cmp	r2, r0
    ad58:	f200 80d6 	bhi.w	af08 <__udivdi3+0x258>
    ad5c:	2300      	movs	r3, #0
    ad5e:	2201      	movs	r2, #1
    ad60:	4610      	mov	r0, r2
    ad62:	4619      	mov	r1, r3
    ad64:	e8bd 0ff0 	ldmia.w	sp!, {r4, r5, r6, r7, r8, r9, sl, fp}
    ad68:	4770      	bx	lr
    ad6a:	b912      	cbnz	r2, ad72 <__udivdi3+0xc2>
    ad6c:	2401      	movs	r4, #1
    ad6e:	fbb4 f4f2 	udiv	r4, r4, r2
    ad72:	fab4 f284 	clz	r2, r4
    ad76:	2a00      	cmp	r2, #0
    ad78:	d17c      	bne.n	ae74 <__udivdi3+0x1c4>
    ad7a:	1b09      	subs	r1, r1, r4
    ad7c:	0c26      	lsrs	r6, r4, #16
    ad7e:	b2a7      	uxth	r7, r4
    ad80:	2301      	movs	r3, #1
    ad82:	fbb1 f0f6 	udiv	r0, r1, r6
    ad86:	0c2a      	lsrs	r2, r5, #16
    ad88:	fb06 1110 	mls	r1, r6, r0, r1
    ad8c:	ea42 4101 	orr.w	r1, r2, r1, lsl #16
    ad90:	fb07 f200 	mul.w	r2, r7, r0
    ad94:	428a      	cmp	r2, r1
    ad96:	d907      	bls.n	ada8 <__udivdi3+0xf8>
    ad98:	1909      	adds	r1, r1, r4
    ad9a:	f100 3cff 	add.w	ip, r0, #4294967295	; 0xffffffff
    ad9e:	d202      	bcs.n	ada6 <__udivdi3+0xf6>
    ada0:	428a      	cmp	r2, r1
    ada2:	f200 80c3 	bhi.w	af2c <__udivdi3+0x27c>
    ada6:	4660      	mov	r0, ip
    ada8:	1a89      	subs	r1, r1, r2
    adaa:	fbb1 f2f6 	udiv	r2, r1, r6
    adae:	b2ad      	uxth	r5, r5
    adb0:	fb06 1112 	mls	r1, r6, r2, r1
    adb4:	ea45 4501 	orr.w	r5, r5, r1, lsl #16
    adb8:	fb07 f702 	mul.w	r7, r7, r2
    adbc:	42af      	cmp	r7, r5
    adbe:	d908      	bls.n	add2 <__udivdi3+0x122>
    adc0:	192c      	adds	r4, r5, r4
    adc2:	f102 31ff 	add.w	r1, r2, #4294967295	; 0xffffffff
    adc6:	f080 8096 	bcs.w	aef6 <__udivdi3+0x246>
    adca:	42a7      	cmp	r7, r4
    adcc:	f240 8093 	bls.w	aef6 <__udivdi3+0x246>
    add0:	3a02      	subs	r2, #2
    add2:	ea42 4200 	orr.w	r2, r2, r0, lsl #16
    add6:	4610      	mov	r0, r2
    add8:	4619      	mov	r1, r3
    adda:	e8bd 0ff0 	ldmia.w	sp!, {r4, r5, r6, r7, r8, r9, sl, fp}
    adde:	4770      	bx	lr
    ade0:	2300      	movs	r3, #0
    ade2:	461a      	mov	r2, r3
    ade4:	4610      	mov	r0, r2
    ade6:	4619      	mov	r1, r3
    ade8:	e8bd 0ff0 	ldmia.w	sp!, {r4, r5, r6, r7, r8, r9, sl, fp}
    adec:	4770      	bx	lr
    adee:	f1c6 0520 	rsb	r5, r6, #32
    adf2:	fa22 f405 	lsr.w	r4, r2, r5
    adf6:	40b3      	lsls	r3, r6
    adf8:	431c      	orrs	r4, r3
    adfa:	ea4f 4814 	mov.w	r8, r4, lsr #16
    adfe:	fa21 f305 	lsr.w	r3, r1, r5
    ae02:	fa01 f706 	lsl.w	r7, r1, r6
    ae06:	fa20 f505 	lsr.w	r5, r0, r5
    ae0a:	fbb3 fcf8 	udiv	ip, r3, r8
    ae0e:	432f      	orrs	r7, r5
    ae10:	fb08 331c 	mls	r3, r8, ip, r3
    ae14:	0c3d      	lsrs	r5, r7, #16
    ae16:	fa1f fa84 	uxth.w	sl, r4
    ae1a:	ea45 4303 	orr.w	r3, r5, r3, lsl #16
    ae1e:	fb0a f90c 	mul.w	r9, sl, ip
    ae22:	4599      	cmp	r9, r3
    ae24:	fa02 fb06 	lsl.w	fp, r2, r6
    ae28:	d904      	bls.n	ae34 <__udivdi3+0x184>
    ae2a:	191b      	adds	r3, r3, r4
    ae2c:	f10c 32ff 	add.w	r2, ip, #4294967295	; 0xffffffff
    ae30:	d36d      	bcc.n	af0e <__udivdi3+0x25e>
    ae32:	4694      	mov	ip, r2
    ae34:	ebc9 0303 	rsb	r3, r9, r3
    ae38:	fbb3 f5f8 	udiv	r5, r3, r8
    ae3c:	fb08 3315 	mls	r3, r8, r5, r3
    ae40:	b2bf      	uxth	r7, r7
    ae42:	ea47 4703 	orr.w	r7, r7, r3, lsl #16
    ae46:	fb0a f805 	mul.w	r8, sl, r5
    ae4a:	45b8      	cmp	r8, r7
    ae4c:	d904      	bls.n	ae58 <__udivdi3+0x1a8>
    ae4e:	193f      	adds	r7, r7, r4
    ae50:	f105 33ff 	add.w	r3, r5, #4294967295	; 0xffffffff
    ae54:	d361      	bcc.n	af1a <__udivdi3+0x26a>
    ae56:	461d      	mov	r5, r3
    ae58:	ea45 4c0c 	orr.w	ip, r5, ip, lsl #16
    ae5c:	fbac 230b 	umull	r2, r3, ip, fp
    ae60:	ebc8 0707 	rsb	r7, r8, r7
    ae64:	429f      	cmp	r7, r3
    ae66:	f04f 0500 	mov.w	r5, #0
    ae6a:	d349      	bcc.n	af00 <__udivdi3+0x250>
    ae6c:	d045      	beq.n	aefa <__udivdi3+0x24a>
    ae6e:	4662      	mov	r2, ip
    ae70:	462b      	mov	r3, r5
    ae72:	e763      	b.n	ad3c <__udivdi3+0x8c>
    ae74:	4094      	lsls	r4, r2
    ae76:	f1c2 0320 	rsb	r3, r2, #32
    ae7a:	fa21 fc03 	lsr.w	ip, r1, r3
    ae7e:	0c26      	lsrs	r6, r4, #16
    ae80:	fa20 f303 	lsr.w	r3, r0, r3
    ae84:	fa01 f502 	lsl.w	r5, r1, r2
    ae88:	fbbc f8f6 	udiv	r8, ip, r6
    ae8c:	ea43 0105 	orr.w	r1, r3, r5
    ae90:	0c0b      	lsrs	r3, r1, #16
    ae92:	fb06 cc18 	mls	ip, r6, r8, ip
    ae96:	b2a7      	uxth	r7, r4
    ae98:	ea43 4c0c 	orr.w	ip, r3, ip, lsl #16
    ae9c:	fb07 f308 	mul.w	r3, r7, r8
    aea0:	4563      	cmp	r3, ip
    aea2:	fa00 f502 	lsl.w	r5, r0, r2
    aea6:	d909      	bls.n	aebc <__udivdi3+0x20c>
    aea8:	eb1c 0c04 	adds.w	ip, ip, r4
    aeac:	f108 32ff 	add.w	r2, r8, #4294967295	; 0xffffffff
    aeb0:	d23a      	bcs.n	af28 <__udivdi3+0x278>
    aeb2:	4563      	cmp	r3, ip
    aeb4:	d938      	bls.n	af28 <__udivdi3+0x278>
    aeb6:	f1a8 0802 	sub.w	r8, r8, #2
    aeba:	44a4      	add	ip, r4
    aebc:	ebc3 0c0c 	rsb	ip, r3, ip
    aec0:	fbbc f3f6 	udiv	r3, ip, r6
    aec4:	b289      	uxth	r1, r1
    aec6:	fb06 cc13 	mls	ip, r6, r3, ip
    aeca:	ea41 410c 	orr.w	r1, r1, ip, lsl #16
    aece:	fb07 f203 	mul.w	r2, r7, r3
    aed2:	428a      	cmp	r2, r1
    aed4:	d907      	bls.n	aee6 <__udivdi3+0x236>
    aed6:	1909      	adds	r1, r1, r4
    aed8:	f103 30ff 	add.w	r0, r3, #4294967295	; 0xffffffff
    aedc:	d222      	bcs.n	af24 <__udivdi3+0x274>
    aede:	428a      	cmp	r2, r1
    aee0:	d920      	bls.n	af24 <__udivdi3+0x274>
    aee2:	3b02      	subs	r3, #2
    aee4:	4421      	add	r1, r4
    aee6:	1a89      	subs	r1, r1, r2
    aee8:	ea43 4308 	orr.w	r3, r3, r8, lsl #16
    aeec:	e749      	b.n	ad82 <__udivdi3+0xd2>
    aeee:	463a      	mov	r2, r7
    aef0:	e70c      	b.n	ad0c <__udivdi3+0x5c>
    aef2:	4633      	mov	r3, r6
    aef4:	e71f      	b.n	ad36 <__udivdi3+0x86>
    aef6:	460a      	mov	r2, r1
    aef8:	e76b      	b.n	add2 <__udivdi3+0x122>
    aefa:	40b0      	lsls	r0, r6
    aefc:	4290      	cmp	r0, r2
    aefe:	d2b6      	bcs.n	ae6e <__udivdi3+0x1be>
    af00:	f10c 32ff 	add.w	r2, ip, #4294967295	; 0xffffffff
    af04:	2300      	movs	r3, #0
    af06:	e719      	b.n	ad3c <__udivdi3+0x8c>
    af08:	4633      	mov	r3, r6
    af0a:	4632      	mov	r2, r6
    af0c:	e716      	b.n	ad3c <__udivdi3+0x8c>
    af0e:	4599      	cmp	r9, r3
    af10:	d98f      	bls.n	ae32 <__udivdi3+0x182>
    af12:	f1ac 0c02 	sub.w	ip, ip, #2
    af16:	4423      	add	r3, r4
    af18:	e78c      	b.n	ae34 <__udivdi3+0x184>
    af1a:	45b8      	cmp	r8, r7
    af1c:	d99b      	bls.n	ae56 <__udivdi3+0x1a6>
    af1e:	3d02      	subs	r5, #2
    af20:	4427      	add	r7, r4
    af22:	e799      	b.n	ae58 <__udivdi3+0x1a8>
    af24:	4603      	mov	r3, r0
    af26:	e7de      	b.n	aee6 <__udivdi3+0x236>
    af28:	4690      	mov	r8, r2
    af2a:	e7c7      	b.n	aebc <__udivdi3+0x20c>
    af2c:	3802      	subs	r0, #2
    af2e:	4421      	add	r1, r4
    af30:	e73a      	b.n	ada8 <__udivdi3+0xf8>
    af32:	bf00      	nop

0000af34 <__libc_init_array>:
    af34:	b570      	push	{r4, r5, r6, lr}
    af36:	4e0f      	ldr	r6, [pc, #60]	; (af74 <__libc_init_array+0x40>)
    af38:	4d0f      	ldr	r5, [pc, #60]	; (af78 <__libc_init_array+0x44>)
    af3a:	1b76      	subs	r6, r6, r5
    af3c:	10b6      	asrs	r6, r6, #2
    af3e:	d007      	beq.n	af50 <__libc_init_array+0x1c>
    af40:	3d04      	subs	r5, #4
    af42:	2400      	movs	r4, #0
    af44:	3401      	adds	r4, #1
    af46:	f855 3f04 	ldr.w	r3, [r5, #4]!
    af4a:	4798      	blx	r3
    af4c:	42a6      	cmp	r6, r4
    af4e:	d1f9      	bne.n	af44 <__libc_init_array+0x10>
    af50:	4e0a      	ldr	r6, [pc, #40]	; (af7c <__libc_init_array+0x48>)
    af52:	4d0b      	ldr	r5, [pc, #44]	; (af80 <__libc_init_array+0x4c>)
    af54:	1b76      	subs	r6, r6, r5
    af56:	f006 fcbd 	bl	118d4 <_init>
    af5a:	10b6      	asrs	r6, r6, #2
    af5c:	d008      	beq.n	af70 <__libc_init_array+0x3c>
    af5e:	3d04      	subs	r5, #4
    af60:	2400      	movs	r4, #0
    af62:	3401      	adds	r4, #1
    af64:	f855 3f04 	ldr.w	r3, [r5, #4]!
    af68:	4798      	blx	r3
    af6a:	42a6      	cmp	r6, r4
    af6c:	d1f9      	bne.n	af62 <__libc_init_array+0x2e>
    af6e:	bd70      	pop	{r4, r5, r6, pc}
    af70:	bd70      	pop	{r4, r5, r6, pc}
    af72:	bf00      	nop
    af74:	000118e0 	.word	0x000118e0
    af78:	000118e0 	.word	0x000118e0
    af7c:	000118e8 	.word	0x000118e8
    af80:	000118e0 	.word	0x000118e0

0000af84 <malloc>:
    af84:	4b02      	ldr	r3, [pc, #8]	; (af90 <malloc+0xc>)
    af86:	4601      	mov	r1, r0
    af88:	6818      	ldr	r0, [r3, #0]
    af8a:	f000 b80b 	b.w	afa4 <_malloc_r>
    af8e:	bf00      	nop
    af90:	20000528 	.word	0x20000528

0000af94 <free>:
    af94:	4b02      	ldr	r3, [pc, #8]	; (afa0 <free+0xc>)
    af96:	4601      	mov	r1, r0
    af98:	6818      	ldr	r0, [r3, #0]
    af9a:	f004 bc47 	b.w	f82c <_free_r>
    af9e:	bf00      	nop
    afa0:	20000528 	.word	0x20000528

0000afa4 <_malloc_r>:
    afa4:	e92d 4ff0 	stmdb	sp!, {r4, r5, r6, r7, r8, r9, sl, fp, lr}
    afa8:	f101 050b 	add.w	r5, r1, #11
    afac:	2d16      	cmp	r5, #22
    afae:	b083      	sub	sp, #12
    afb0:	4606      	mov	r6, r0
    afb2:	d927      	bls.n	b004 <_malloc_r+0x60>
    afb4:	f035 0507 	bics.w	r5, r5, #7
    afb8:	d427      	bmi.n	b00a <_malloc_r+0x66>
    afba:	42a9      	cmp	r1, r5
    afbc:	d825      	bhi.n	b00a <_malloc_r+0x66>
    afbe:	4630      	mov	r0, r6
    afc0:	f000 fb70 	bl	b6a4 <__malloc_lock>
    afc4:	f5b5 7ffc 	cmp.w	r5, #504	; 0x1f8
    afc8:	d226      	bcs.n	b018 <_malloc_r+0x74>
    afca:	4fc1      	ldr	r7, [pc, #772]	; (b2d0 <_malloc_r+0x32c>)
    afcc:	ea4f 0cd5 	mov.w	ip, r5, lsr #3
    afd0:	eb07 03cc 	add.w	r3, r7, ip, lsl #3
    afd4:	68dc      	ldr	r4, [r3, #12]
    afd6:	429c      	cmp	r4, r3
    afd8:	f000 81d2 	beq.w	b380 <_malloc_r+0x3dc>
    afdc:	6863      	ldr	r3, [r4, #4]
    afde:	68e2      	ldr	r2, [r4, #12]
    afe0:	68a1      	ldr	r1, [r4, #8]
    afe2:	f023 0303 	bic.w	r3, r3, #3
    afe6:	4423      	add	r3, r4
    afe8:	4630      	mov	r0, r6
    afea:	685d      	ldr	r5, [r3, #4]
    afec:	60ca      	str	r2, [r1, #12]
    afee:	f045 0501 	orr.w	r5, r5, #1
    aff2:	6091      	str	r1, [r2, #8]
    aff4:	605d      	str	r5, [r3, #4]
    aff6:	f000 fb57 	bl	b6a8 <__malloc_unlock>
    affa:	3408      	adds	r4, #8
    affc:	4620      	mov	r0, r4
    affe:	b003      	add	sp, #12
    b000:	e8bd 8ff0 	ldmia.w	sp!, {r4, r5, r6, r7, r8, r9, sl, fp, pc}
    b004:	2510      	movs	r5, #16
    b006:	42a9      	cmp	r1, r5
    b008:	d9d9      	bls.n	afbe <_malloc_r+0x1a>
    b00a:	2400      	movs	r4, #0
    b00c:	230c      	movs	r3, #12
    b00e:	4620      	mov	r0, r4
    b010:	6033      	str	r3, [r6, #0]
    b012:	b003      	add	sp, #12
    b014:	e8bd 8ff0 	ldmia.w	sp!, {r4, r5, r6, r7, r8, r9, sl, fp, pc}
    b018:	ea5f 2c55 	movs.w	ip, r5, lsr #9
    b01c:	f000 808a 	beq.w	b134 <_malloc_r+0x190>
    b020:	f1bc 0f04 	cmp.w	ip, #4
    b024:	f200 8160 	bhi.w	b2e8 <_malloc_r+0x344>
    b028:	ea4f 1c95 	mov.w	ip, r5, lsr #6
    b02c:	f10c 0c38 	add.w	ip, ip, #56	; 0x38
    b030:	ea4f 014c 	mov.w	r1, ip, lsl #1
    b034:	4fa6      	ldr	r7, [pc, #664]	; (b2d0 <_malloc_r+0x32c>)
    b036:	eb07 0181 	add.w	r1, r7, r1, lsl #2
    b03a:	68cc      	ldr	r4, [r1, #12]
    b03c:	42a1      	cmp	r1, r4
    b03e:	d105      	bne.n	b04c <_malloc_r+0xa8>
    b040:	e00c      	b.n	b05c <_malloc_r+0xb8>
    b042:	2b00      	cmp	r3, #0
    b044:	da7a      	bge.n	b13c <_malloc_r+0x198>
    b046:	68e4      	ldr	r4, [r4, #12]
    b048:	42a1      	cmp	r1, r4
    b04a:	d007      	beq.n	b05c <_malloc_r+0xb8>
    b04c:	6862      	ldr	r2, [r4, #4]
    b04e:	f022 0203 	bic.w	r2, r2, #3
    b052:	1b53      	subs	r3, r2, r5
    b054:	2b0f      	cmp	r3, #15
    b056:	ddf4      	ble.n	b042 <_malloc_r+0x9e>
    b058:	f10c 3cff 	add.w	ip, ip, #4294967295	; 0xffffffff
    b05c:	f10c 0c01 	add.w	ip, ip, #1
    b060:	4b9b      	ldr	r3, [pc, #620]	; (b2d0 <_malloc_r+0x32c>)
    b062:	693c      	ldr	r4, [r7, #16]
    b064:	f103 0e08 	add.w	lr, r3, #8
    b068:	4574      	cmp	r4, lr
    b06a:	f000 817e 	beq.w	b36a <_malloc_r+0x3c6>
    b06e:	6861      	ldr	r1, [r4, #4]
    b070:	f021 0103 	bic.w	r1, r1, #3
    b074:	1b4a      	subs	r2, r1, r5
    b076:	2a0f      	cmp	r2, #15
    b078:	f300 8164 	bgt.w	b344 <_malloc_r+0x3a0>
    b07c:	2a00      	cmp	r2, #0
    b07e:	f8c3 e014 	str.w	lr, [r3, #20]
    b082:	f8c3 e010 	str.w	lr, [r3, #16]
    b086:	da6a      	bge.n	b15e <_malloc_r+0x1ba>
    b088:	f5b1 7f00 	cmp.w	r1, #512	; 0x200
    b08c:	f080 813a 	bcs.w	b304 <_malloc_r+0x360>
    b090:	08c9      	lsrs	r1, r1, #3
    b092:	eb03 00c1 	add.w	r0, r3, r1, lsl #3
    b096:	ea4f 08a1 	mov.w	r8, r1, asr #2
    b09a:	685a      	ldr	r2, [r3, #4]
    b09c:	6881      	ldr	r1, [r0, #8]
    b09e:	60a1      	str	r1, [r4, #8]
    b0a0:	f04f 0901 	mov.w	r9, #1
    b0a4:	fa09 f808 	lsl.w	r8, r9, r8
    b0a8:	ea48 0202 	orr.w	r2, r8, r2
    b0ac:	60e0      	str	r0, [r4, #12]
    b0ae:	605a      	str	r2, [r3, #4]
    b0b0:	6084      	str	r4, [r0, #8]
    b0b2:	60cc      	str	r4, [r1, #12]
    b0b4:	ea4f 03ac 	mov.w	r3, ip, asr #2
    b0b8:	2001      	movs	r0, #1
    b0ba:	4098      	lsls	r0, r3
    b0bc:	4290      	cmp	r0, r2
    b0be:	d85b      	bhi.n	b178 <_malloc_r+0x1d4>
    b0c0:	4202      	tst	r2, r0
    b0c2:	d106      	bne.n	b0d2 <_malloc_r+0x12e>
    b0c4:	f02c 0c03 	bic.w	ip, ip, #3
    b0c8:	0040      	lsls	r0, r0, #1
    b0ca:	4202      	tst	r2, r0
    b0cc:	f10c 0c04 	add.w	ip, ip, #4
    b0d0:	d0fa      	beq.n	b0c8 <_malloc_r+0x124>
    b0d2:	eb07 08cc 	add.w	r8, r7, ip, lsl #3
    b0d6:	4644      	mov	r4, r8
    b0d8:	46e1      	mov	r9, ip
    b0da:	68e3      	ldr	r3, [r4, #12]
    b0dc:	429c      	cmp	r4, r3
    b0de:	d107      	bne.n	b0f0 <_malloc_r+0x14c>
    b0e0:	e145      	b.n	b36e <_malloc_r+0x3ca>
    b0e2:	2a00      	cmp	r2, #0
    b0e4:	f280 8156 	bge.w	b394 <_malloc_r+0x3f0>
    b0e8:	68db      	ldr	r3, [r3, #12]
    b0ea:	429c      	cmp	r4, r3
    b0ec:	f000 813f 	beq.w	b36e <_malloc_r+0x3ca>
    b0f0:	6859      	ldr	r1, [r3, #4]
    b0f2:	f021 0103 	bic.w	r1, r1, #3
    b0f6:	1b4a      	subs	r2, r1, r5
    b0f8:	2a0f      	cmp	r2, #15
    b0fa:	ddf2      	ble.n	b0e2 <_malloc_r+0x13e>
    b0fc:	461c      	mov	r4, r3
    b0fe:	f8d3 c00c 	ldr.w	ip, [r3, #12]
    b102:	f854 8f08 	ldr.w	r8, [r4, #8]!
    b106:	1959      	adds	r1, r3, r5
    b108:	f045 0901 	orr.w	r9, r5, #1
    b10c:	f042 0501 	orr.w	r5, r2, #1
    b110:	f8c3 9004 	str.w	r9, [r3, #4]
    b114:	4630      	mov	r0, r6
    b116:	f8c8 c00c 	str.w	ip, [r8, #12]
    b11a:	f8cc 8008 	str.w	r8, [ip, #8]
    b11e:	6179      	str	r1, [r7, #20]
    b120:	6139      	str	r1, [r7, #16]
    b122:	f8c1 e00c 	str.w	lr, [r1, #12]
    b126:	f8c1 e008 	str.w	lr, [r1, #8]
    b12a:	604d      	str	r5, [r1, #4]
    b12c:	508a      	str	r2, [r1, r2]
    b12e:	f000 fabb 	bl	b6a8 <__malloc_unlock>
    b132:	e763      	b.n	affc <_malloc_r+0x58>
    b134:	217e      	movs	r1, #126	; 0x7e
    b136:	f04f 0c3f 	mov.w	ip, #63	; 0x3f
    b13a:	e77b      	b.n	b034 <_malloc_r+0x90>
    b13c:	4422      	add	r2, r4
    b13e:	68e3      	ldr	r3, [r4, #12]
    b140:	6850      	ldr	r0, [r2, #4]
    b142:	68a1      	ldr	r1, [r4, #8]
    b144:	f040 0501 	orr.w	r5, r0, #1
    b148:	60cb      	str	r3, [r1, #12]
    b14a:	4630      	mov	r0, r6
    b14c:	6099      	str	r1, [r3, #8]
    b14e:	6055      	str	r5, [r2, #4]
    b150:	f000 faaa 	bl	b6a8 <__malloc_unlock>
    b154:	3408      	adds	r4, #8
    b156:	4620      	mov	r0, r4
    b158:	b003      	add	sp, #12
    b15a:	e8bd 8ff0 	ldmia.w	sp!, {r4, r5, r6, r7, r8, r9, sl, fp, pc}
    b15e:	4421      	add	r1, r4
    b160:	4630      	mov	r0, r6
    b162:	684b      	ldr	r3, [r1, #4]
    b164:	f043 0301 	orr.w	r3, r3, #1
    b168:	604b      	str	r3, [r1, #4]
    b16a:	f000 fa9d 	bl	b6a8 <__malloc_unlock>
    b16e:	3408      	adds	r4, #8
    b170:	4620      	mov	r0, r4
    b172:	b003      	add	sp, #12
    b174:	e8bd 8ff0 	ldmia.w	sp!, {r4, r5, r6, r7, r8, r9, sl, fp, pc}
    b178:	68bc      	ldr	r4, [r7, #8]
    b17a:	6863      	ldr	r3, [r4, #4]
    b17c:	f023 0903 	bic.w	r9, r3, #3
    b180:	45a9      	cmp	r9, r5
    b182:	d304      	bcc.n	b18e <_malloc_r+0x1ea>
    b184:	ebc5 0309 	rsb	r3, r5, r9
    b188:	2b0f      	cmp	r3, #15
    b18a:	f300 8091 	bgt.w	b2b0 <_malloc_r+0x30c>
    b18e:	4b51      	ldr	r3, [pc, #324]	; (b2d4 <_malloc_r+0x330>)
    b190:	4a51      	ldr	r2, [pc, #324]	; (b2d8 <_malloc_r+0x334>)
    b192:	6819      	ldr	r1, [r3, #0]
    b194:	6813      	ldr	r3, [r2, #0]
    b196:	3301      	adds	r3, #1
    b198:	eb05 0a01 	add.w	sl, r5, r1
    b19c:	eb04 0b09 	add.w	fp, r4, r9
    b1a0:	f000 8161 	beq.w	b466 <_malloc_r+0x4c2>
    b1a4:	f50a 5a80 	add.w	sl, sl, #4096	; 0x1000
    b1a8:	f10a 0a0f 	add.w	sl, sl, #15
    b1ac:	f42a 6a7f 	bic.w	sl, sl, #4080	; 0xff0
    b1b0:	f02a 0a0f 	bic.w	sl, sl, #15
    b1b4:	4630      	mov	r0, r6
    b1b6:	4651      	mov	r1, sl
    b1b8:	9201      	str	r2, [sp, #4]
    b1ba:	f000 fa8b 	bl	b6d4 <_sbrk_r>
    b1be:	f1b0 3fff 	cmp.w	r0, #4294967295	; 0xffffffff
    b1c2:	4680      	mov	r8, r0
    b1c4:	9a01      	ldr	r2, [sp, #4]
    b1c6:	f000 8100 	beq.w	b3ca <_malloc_r+0x426>
    b1ca:	4583      	cmp	fp, r0
    b1cc:	f200 80fa 	bhi.w	b3c4 <_malloc_r+0x420>
    b1d0:	f8df c110 	ldr.w	ip, [pc, #272]	; b2e4 <_malloc_r+0x340>
    b1d4:	f8dc 3000 	ldr.w	r3, [ip]
    b1d8:	45c3      	cmp	fp, r8
    b1da:	4453      	add	r3, sl
    b1dc:	f8cc 3000 	str.w	r3, [ip]
    b1e0:	f000 814a 	beq.w	b478 <_malloc_r+0x4d4>
    b1e4:	6812      	ldr	r2, [r2, #0]
    b1e6:	493c      	ldr	r1, [pc, #240]	; (b2d8 <_malloc_r+0x334>)
    b1e8:	3201      	adds	r2, #1
    b1ea:	bf1b      	ittet	ne
    b1ec:	ebcb 0b08 	rsbne	fp, fp, r8
    b1f0:	445b      	addne	r3, fp
    b1f2:	f8c1 8000 	streq.w	r8, [r1]
    b1f6:	f8cc 3000 	strne.w	r3, [ip]
    b1fa:	f018 0307 	ands.w	r3, r8, #7
    b1fe:	f000 8113 	beq.w	b428 <_malloc_r+0x484>
    b202:	f1c3 0208 	rsb	r2, r3, #8
    b206:	f5c3 5380 	rsb	r3, r3, #4096	; 0x1000
    b20a:	4490      	add	r8, r2
    b20c:	3308      	adds	r3, #8
    b20e:	44c2      	add	sl, r8
    b210:	f3ca 0a0b 	ubfx	sl, sl, #0, #12
    b214:	ebca 0a03 	rsb	sl, sl, r3
    b218:	4651      	mov	r1, sl
    b21a:	4630      	mov	r0, r6
    b21c:	f8cd c004 	str.w	ip, [sp, #4]
    b220:	f000 fa58 	bl	b6d4 <_sbrk_r>
    b224:	1c43      	adds	r3, r0, #1
    b226:	f8dd c004 	ldr.w	ip, [sp, #4]
    b22a:	f000 8135 	beq.w	b498 <_malloc_r+0x4f4>
    b22e:	ebc8 0200 	rsb	r2, r8, r0
    b232:	4452      	add	r2, sl
    b234:	f042 0201 	orr.w	r2, r2, #1
    b238:	f8dc 3000 	ldr.w	r3, [ip]
    b23c:	f8c7 8008 	str.w	r8, [r7, #8]
    b240:	4453      	add	r3, sl
    b242:	42bc      	cmp	r4, r7
    b244:	f8c8 2004 	str.w	r2, [r8, #4]
    b248:	f8cc 3000 	str.w	r3, [ip]
    b24c:	f8df a094 	ldr.w	sl, [pc, #148]	; b2e4 <_malloc_r+0x340>
    b250:	d015      	beq.n	b27e <_malloc_r+0x2da>
    b252:	f1b9 0f0f 	cmp.w	r9, #15
    b256:	f240 80ea 	bls.w	b42e <_malloc_r+0x48a>
    b25a:	6861      	ldr	r1, [r4, #4]
    b25c:	f1a9 020c 	sub.w	r2, r9, #12
    b260:	f022 0207 	bic.w	r2, r2, #7
    b264:	f001 0e01 	and.w	lr, r1, #1
    b268:	18a1      	adds	r1, r4, r2
    b26a:	2005      	movs	r0, #5
    b26c:	ea42 0e0e 	orr.w	lr, r2, lr
    b270:	2a0f      	cmp	r2, #15
    b272:	f8c4 e004 	str.w	lr, [r4, #4]
    b276:	6048      	str	r0, [r1, #4]
    b278:	6088      	str	r0, [r1, #8]
    b27a:	f200 8111 	bhi.w	b4a0 <_malloc_r+0x4fc>
    b27e:	4a17      	ldr	r2, [pc, #92]	; (b2dc <_malloc_r+0x338>)
    b280:	68bc      	ldr	r4, [r7, #8]
    b282:	6811      	ldr	r1, [r2, #0]
    b284:	428b      	cmp	r3, r1
    b286:	bf88      	it	hi
    b288:	6013      	strhi	r3, [r2, #0]
    b28a:	4a15      	ldr	r2, [pc, #84]	; (b2e0 <_malloc_r+0x33c>)
    b28c:	6811      	ldr	r1, [r2, #0]
    b28e:	428b      	cmp	r3, r1
    b290:	bf88      	it	hi
    b292:	6013      	strhi	r3, [r2, #0]
    b294:	6862      	ldr	r2, [r4, #4]
    b296:	f022 0203 	bic.w	r2, r2, #3
    b29a:	4295      	cmp	r5, r2
    b29c:	ebc5 0302 	rsb	r3, r5, r2
    b2a0:	d801      	bhi.n	b2a6 <_malloc_r+0x302>
    b2a2:	2b0f      	cmp	r3, #15
    b2a4:	dc04      	bgt.n	b2b0 <_malloc_r+0x30c>
    b2a6:	4630      	mov	r0, r6
    b2a8:	f000 f9fe 	bl	b6a8 <__malloc_unlock>
    b2ac:	2400      	movs	r4, #0
    b2ae:	e6a5      	b.n	affc <_malloc_r+0x58>
    b2b0:	1962      	adds	r2, r4, r5
    b2b2:	f043 0301 	orr.w	r3, r3, #1
    b2b6:	f045 0501 	orr.w	r5, r5, #1
    b2ba:	6065      	str	r5, [r4, #4]
    b2bc:	4630      	mov	r0, r6
    b2be:	60ba      	str	r2, [r7, #8]
    b2c0:	6053      	str	r3, [r2, #4]
    b2c2:	f000 f9f1 	bl	b6a8 <__malloc_unlock>
    b2c6:	3408      	adds	r4, #8
    b2c8:	4620      	mov	r0, r4
    b2ca:	b003      	add	sp, #12
    b2cc:	e8bd 8ff0 	ldmia.w	sp!, {r4, r5, r6, r7, r8, r9, sl, fp, pc}
    b2d0:	2000052c 	.word	0x2000052c
    b2d4:	20000e00 	.word	0x20000e00
    b2d8:	20000938 	.word	0x20000938
    b2dc:	20000dfc 	.word	0x20000dfc
    b2e0:	20000df8 	.word	0x20000df8
    b2e4:	20000e04 	.word	0x20000e04
    b2e8:	f1bc 0f14 	cmp.w	ip, #20
    b2ec:	d961      	bls.n	b3b2 <_malloc_r+0x40e>
    b2ee:	f1bc 0f54 	cmp.w	ip, #84	; 0x54
    b2f2:	f200 808f 	bhi.w	b414 <_malloc_r+0x470>
    b2f6:	ea4f 3c15 	mov.w	ip, r5, lsr #12
    b2fa:	f10c 0c6e 	add.w	ip, ip, #110	; 0x6e
    b2fe:	ea4f 014c 	mov.w	r1, ip, lsl #1
    b302:	e697      	b.n	b034 <_malloc_r+0x90>
    b304:	0a4b      	lsrs	r3, r1, #9
    b306:	2b04      	cmp	r3, #4
    b308:	d958      	bls.n	b3bc <_malloc_r+0x418>
    b30a:	2b14      	cmp	r3, #20
    b30c:	f200 80ae 	bhi.w	b46c <_malloc_r+0x4c8>
    b310:	f103 025b 	add.w	r2, r3, #91	; 0x5b
    b314:	0050      	lsls	r0, r2, #1
    b316:	eb07 0080 	add.w	r0, r7, r0, lsl #2
    b31a:	f8df 81bc 	ldr.w	r8, [pc, #444]	; b4d8 <_malloc_r+0x534>
    b31e:	6883      	ldr	r3, [r0, #8]
    b320:	4283      	cmp	r3, r0
    b322:	f000 808a 	beq.w	b43a <_malloc_r+0x496>
    b326:	685a      	ldr	r2, [r3, #4]
    b328:	f022 0203 	bic.w	r2, r2, #3
    b32c:	4291      	cmp	r1, r2
    b32e:	d202      	bcs.n	b336 <_malloc_r+0x392>
    b330:	689b      	ldr	r3, [r3, #8]
    b332:	4298      	cmp	r0, r3
    b334:	d1f7      	bne.n	b326 <_malloc_r+0x382>
    b336:	68d9      	ldr	r1, [r3, #12]
    b338:	687a      	ldr	r2, [r7, #4]
    b33a:	60e1      	str	r1, [r4, #12]
    b33c:	60a3      	str	r3, [r4, #8]
    b33e:	608c      	str	r4, [r1, #8]
    b340:	60dc      	str	r4, [r3, #12]
    b342:	e6b7      	b.n	b0b4 <_malloc_r+0x110>
    b344:	1961      	adds	r1, r4, r5
    b346:	f042 0701 	orr.w	r7, r2, #1
    b34a:	f045 0501 	orr.w	r5, r5, #1
    b34e:	6065      	str	r5, [r4, #4]
    b350:	4630      	mov	r0, r6
    b352:	6159      	str	r1, [r3, #20]
    b354:	6119      	str	r1, [r3, #16]
    b356:	f8c1 e00c 	str.w	lr, [r1, #12]
    b35a:	f8c1 e008 	str.w	lr, [r1, #8]
    b35e:	604f      	str	r7, [r1, #4]
    b360:	508a      	str	r2, [r1, r2]
    b362:	3408      	adds	r4, #8
    b364:	f000 f9a0 	bl	b6a8 <__malloc_unlock>
    b368:	e648      	b.n	affc <_malloc_r+0x58>
    b36a:	685a      	ldr	r2, [r3, #4]
    b36c:	e6a2      	b.n	b0b4 <_malloc_r+0x110>
    b36e:	f109 0901 	add.w	r9, r9, #1
    b372:	f019 0f03 	tst.w	r9, #3
    b376:	f104 0408 	add.w	r4, r4, #8
    b37a:	f47f aeae 	bne.w	b0da <_malloc_r+0x136>
    b37e:	e02d      	b.n	b3dc <_malloc_r+0x438>
    b380:	f104 0308 	add.w	r3, r4, #8
    b384:	6964      	ldr	r4, [r4, #20]
    b386:	42a3      	cmp	r3, r4
    b388:	bf08      	it	eq
    b38a:	f10c 0c02 	addeq.w	ip, ip, #2
    b38e:	f43f ae67 	beq.w	b060 <_malloc_r+0xbc>
    b392:	e623      	b.n	afdc <_malloc_r+0x38>
    b394:	4419      	add	r1, r3
    b396:	461c      	mov	r4, r3
    b398:	6848      	ldr	r0, [r1, #4]
    b39a:	68db      	ldr	r3, [r3, #12]
    b39c:	f854 2f08 	ldr.w	r2, [r4, #8]!
    b3a0:	f040 0501 	orr.w	r5, r0, #1
    b3a4:	604d      	str	r5, [r1, #4]
    b3a6:	4630      	mov	r0, r6
    b3a8:	60d3      	str	r3, [r2, #12]
    b3aa:	609a      	str	r2, [r3, #8]
    b3ac:	f000 f97c 	bl	b6a8 <__malloc_unlock>
    b3b0:	e624      	b.n	affc <_malloc_r+0x58>
    b3b2:	f10c 0c5b 	add.w	ip, ip, #91	; 0x5b
    b3b6:	ea4f 014c 	mov.w	r1, ip, lsl #1
    b3ba:	e63b      	b.n	b034 <_malloc_r+0x90>
    b3bc:	098a      	lsrs	r2, r1, #6
    b3be:	3238      	adds	r2, #56	; 0x38
    b3c0:	0050      	lsls	r0, r2, #1
    b3c2:	e7a8      	b.n	b316 <_malloc_r+0x372>
    b3c4:	42bc      	cmp	r4, r7
    b3c6:	f43f af03 	beq.w	b1d0 <_malloc_r+0x22c>
    b3ca:	68bc      	ldr	r4, [r7, #8]
    b3cc:	6862      	ldr	r2, [r4, #4]
    b3ce:	f022 0203 	bic.w	r2, r2, #3
    b3d2:	e762      	b.n	b29a <_malloc_r+0x2f6>
    b3d4:	f8d8 8000 	ldr.w	r8, [r8]
    b3d8:	4598      	cmp	r8, r3
    b3da:	d17b      	bne.n	b4d4 <_malloc_r+0x530>
    b3dc:	f01c 0f03 	tst.w	ip, #3
    b3e0:	f1a8 0308 	sub.w	r3, r8, #8
    b3e4:	f10c 3cff 	add.w	ip, ip, #4294967295	; 0xffffffff
    b3e8:	d1f4      	bne.n	b3d4 <_malloc_r+0x430>
    b3ea:	687b      	ldr	r3, [r7, #4]
    b3ec:	ea23 0300 	bic.w	r3, r3, r0
    b3f0:	607b      	str	r3, [r7, #4]
    b3f2:	0040      	lsls	r0, r0, #1
    b3f4:	4298      	cmp	r0, r3
    b3f6:	f63f aebf 	bhi.w	b178 <_malloc_r+0x1d4>
    b3fa:	2800      	cmp	r0, #0
    b3fc:	f43f aebc 	beq.w	b178 <_malloc_r+0x1d4>
    b400:	4203      	tst	r3, r0
    b402:	46cc      	mov	ip, r9
    b404:	f47f ae65 	bne.w	b0d2 <_malloc_r+0x12e>
    b408:	0040      	lsls	r0, r0, #1
    b40a:	4203      	tst	r3, r0
    b40c:	f10c 0c04 	add.w	ip, ip, #4
    b410:	d0fa      	beq.n	b408 <_malloc_r+0x464>
    b412:	e65e      	b.n	b0d2 <_malloc_r+0x12e>
    b414:	f5bc 7faa 	cmp.w	ip, #340	; 0x154
    b418:	d81a      	bhi.n	b450 <_malloc_r+0x4ac>
    b41a:	ea4f 3cd5 	mov.w	ip, r5, lsr #15
    b41e:	f10c 0c77 	add.w	ip, ip, #119	; 0x77
    b422:	ea4f 014c 	mov.w	r1, ip, lsl #1
    b426:	e605      	b.n	b034 <_malloc_r+0x90>
    b428:	f44f 5380 	mov.w	r3, #4096	; 0x1000
    b42c:	e6ef      	b.n	b20e <_malloc_r+0x26a>
    b42e:	2301      	movs	r3, #1
    b430:	f8c8 3004 	str.w	r3, [r8, #4]
    b434:	4644      	mov	r4, r8
    b436:	2200      	movs	r2, #0
    b438:	e72f      	b.n	b29a <_malloc_r+0x2f6>
    b43a:	1091      	asrs	r1, r2, #2
    b43c:	2001      	movs	r0, #1
    b43e:	f8d8 2004 	ldr.w	r2, [r8, #4]
    b442:	fa00 f101 	lsl.w	r1, r0, r1
    b446:	430a      	orrs	r2, r1
    b448:	f8c8 2004 	str.w	r2, [r8, #4]
    b44c:	4619      	mov	r1, r3
    b44e:	e774      	b.n	b33a <_malloc_r+0x396>
    b450:	f240 5354 	movw	r3, #1364	; 0x554
    b454:	459c      	cmp	ip, r3
    b456:	d81b      	bhi.n	b490 <_malloc_r+0x4ec>
    b458:	ea4f 4c95 	mov.w	ip, r5, lsr #18
    b45c:	f10c 0c7c 	add.w	ip, ip, #124	; 0x7c
    b460:	ea4f 014c 	mov.w	r1, ip, lsl #1
    b464:	e5e6      	b.n	b034 <_malloc_r+0x90>
    b466:	f10a 0a10 	add.w	sl, sl, #16
    b46a:	e6a3      	b.n	b1b4 <_malloc_r+0x210>
    b46c:	2b54      	cmp	r3, #84	; 0x54
    b46e:	d81f      	bhi.n	b4b0 <_malloc_r+0x50c>
    b470:	0b0a      	lsrs	r2, r1, #12
    b472:	326e      	adds	r2, #110	; 0x6e
    b474:	0050      	lsls	r0, r2, #1
    b476:	e74e      	b.n	b316 <_malloc_r+0x372>
    b478:	f3cb 010b 	ubfx	r1, fp, #0, #12
    b47c:	2900      	cmp	r1, #0
    b47e:	f47f aeb1 	bne.w	b1e4 <_malloc_r+0x240>
    b482:	eb0a 0109 	add.w	r1, sl, r9
    b486:	68ba      	ldr	r2, [r7, #8]
    b488:	f041 0101 	orr.w	r1, r1, #1
    b48c:	6051      	str	r1, [r2, #4]
    b48e:	e6f6      	b.n	b27e <_malloc_r+0x2da>
    b490:	21fc      	movs	r1, #252	; 0xfc
    b492:	f04f 0c7e 	mov.w	ip, #126	; 0x7e
    b496:	e5cd      	b.n	b034 <_malloc_r+0x90>
    b498:	2201      	movs	r2, #1
    b49a:	f04f 0a00 	mov.w	sl, #0
    b49e:	e6cb      	b.n	b238 <_malloc_r+0x294>
    b4a0:	f104 0108 	add.w	r1, r4, #8
    b4a4:	4630      	mov	r0, r6
    b4a6:	f004 f9c1 	bl	f82c <_free_r>
    b4aa:	f8da 3000 	ldr.w	r3, [sl]
    b4ae:	e6e6      	b.n	b27e <_malloc_r+0x2da>
    b4b0:	f5b3 7faa 	cmp.w	r3, #340	; 0x154
    b4b4:	d803      	bhi.n	b4be <_malloc_r+0x51a>
    b4b6:	0bca      	lsrs	r2, r1, #15
    b4b8:	3277      	adds	r2, #119	; 0x77
    b4ba:	0050      	lsls	r0, r2, #1
    b4bc:	e72b      	b.n	b316 <_malloc_r+0x372>
    b4be:	f240 5254 	movw	r2, #1364	; 0x554
    b4c2:	4293      	cmp	r3, r2
    b4c4:	d803      	bhi.n	b4ce <_malloc_r+0x52a>
    b4c6:	0c8a      	lsrs	r2, r1, #18
    b4c8:	327c      	adds	r2, #124	; 0x7c
    b4ca:	0050      	lsls	r0, r2, #1
    b4cc:	e723      	b.n	b316 <_malloc_r+0x372>
    b4ce:	20fc      	movs	r0, #252	; 0xfc
    b4d0:	227e      	movs	r2, #126	; 0x7e
    b4d2:	e720      	b.n	b316 <_malloc_r+0x372>
    b4d4:	687b      	ldr	r3, [r7, #4]
    b4d6:	e78c      	b.n	b3f2 <_malloc_r+0x44e>
    b4d8:	2000052c 	.word	0x2000052c

0000b4dc <memcpy>:
    b4dc:	4684      	mov	ip, r0
    b4de:	ea41 0300 	orr.w	r3, r1, r0
    b4e2:	f013 0303 	ands.w	r3, r3, #3
    b4e6:	d16d      	bne.n	b5c4 <memcpy+0xe8>
    b4e8:	3a40      	subs	r2, #64	; 0x40
    b4ea:	d341      	bcc.n	b570 <memcpy+0x94>
    b4ec:	f851 3b04 	ldr.w	r3, [r1], #4
    b4f0:	f840 3b04 	str.w	r3, [r0], #4
    b4f4:	f851 3b04 	ldr.w	r3, [r1], #4
    b4f8:	f840 3b04 	str.w	r3, [r0], #4
    b4fc:	f851 3b04 	ldr.w	r3, [r1], #4
    b500:	f840 3b04 	str.w	r3, [r0], #4
    b504:	f851 3b04 	ldr.w	r3, [r1], #4
    b508:	f840 3b04 	str.w	r3, [r0], #4
    b50c:	f851 3b04 	ldr.w	r3, [r1], #4
    b510:	f840 3b04 	str.w	r3, [r0], #4
    b514:	f851 3b04 	ldr.w	r3, [r1], #4
    b518:	f840 3b04 	str.w	r3, [r0], #4
    b51c:	f851 3b04 	ldr.w	r3, [r1], #4
    b520:	f840 3b04 	str.w	r3, [r0], #4
    b524:	f851 3b04 	ldr.w	r3, [r1], #4
    b528:	f840 3b04 	str.w	r3, [r0], #4
    b52c:	f851 3b04 	ldr.w	r3, [r1], #4
    b530:	f840 3b04 	str.w	r3, [r0], #4
    b534:	f851 3b04 	ldr.w	r3, [r1], #4
    b538:	f840 3b04 	str.w	r3, [r0], #4
    b53c:	f851 3b04 	ldr.w	r3, [r1], #4
    b540:	f840 3b04 	str.w	r3, [r0], #4
    b544:	f851 3b04 	ldr.w	r3, [r1], #4
    b548:	f840 3b04 	str.w	r3, [r0], #4
    b54c:	f851 3b04 	ldr.w	r3, [r1], #4
    b550:	f840 3b04 	str.w	r3, [r0], #4
    b554:	f851 3b04 	ldr.w	r3, [r1], #4
    b558:	f840 3b04 	str.w	r3, [r0], #4
    b55c:	f851 3b04 	ldr.w	r3, [r1], #4
    b560:	f840 3b04 	str.w	r3, [r0], #4
    b564:	f851 3b04 	ldr.w	r3, [r1], #4
    b568:	f840 3b04 	str.w	r3, [r0], #4
    b56c:	3a40      	subs	r2, #64	; 0x40
    b56e:	d2bd      	bcs.n	b4ec <memcpy+0x10>
    b570:	3230      	adds	r2, #48	; 0x30
    b572:	d311      	bcc.n	b598 <memcpy+0xbc>
    b574:	f851 3b04 	ldr.w	r3, [r1], #4
    b578:	f840 3b04 	str.w	r3, [r0], #4
    b57c:	f851 3b04 	ldr.w	r3, [r1], #4
    b580:	f840 3b04 	str.w	r3, [r0], #4
    b584:	f851 3b04 	ldr.w	r3, [r1], #4
    b588:	f840 3b04 	str.w	r3, [r0], #4
    b58c:	f851 3b04 	ldr.w	r3, [r1], #4
    b590:	f840 3b04 	str.w	r3, [r0], #4
    b594:	3a10      	subs	r2, #16
    b596:	d2ed      	bcs.n	b574 <memcpy+0x98>
    b598:	320c      	adds	r2, #12
    b59a:	d305      	bcc.n	b5a8 <memcpy+0xcc>
    b59c:	f851 3b04 	ldr.w	r3, [r1], #4
    b5a0:	f840 3b04 	str.w	r3, [r0], #4
    b5a4:	3a04      	subs	r2, #4
    b5a6:	d2f9      	bcs.n	b59c <memcpy+0xc0>
    b5a8:	3204      	adds	r2, #4
    b5aa:	d008      	beq.n	b5be <memcpy+0xe2>
    b5ac:	07d2      	lsls	r2, r2, #31
    b5ae:	bf1c      	itt	ne
    b5b0:	f811 3b01 	ldrbne.w	r3, [r1], #1
    b5b4:	f800 3b01 	strbne.w	r3, [r0], #1
    b5b8:	d301      	bcc.n	b5be <memcpy+0xe2>
    b5ba:	880b      	ldrh	r3, [r1, #0]
    b5bc:	8003      	strh	r3, [r0, #0]
    b5be:	4660      	mov	r0, ip
    b5c0:	4770      	bx	lr
    b5c2:	bf00      	nop
    b5c4:	2a08      	cmp	r2, #8
    b5c6:	d313      	bcc.n	b5f0 <memcpy+0x114>
    b5c8:	078b      	lsls	r3, r1, #30
    b5ca:	d08d      	beq.n	b4e8 <memcpy+0xc>
    b5cc:	f010 0303 	ands.w	r3, r0, #3
    b5d0:	d08a      	beq.n	b4e8 <memcpy+0xc>
    b5d2:	f1c3 0304 	rsb	r3, r3, #4
    b5d6:	1ad2      	subs	r2, r2, r3
    b5d8:	07db      	lsls	r3, r3, #31
    b5da:	bf1c      	itt	ne
    b5dc:	f811 3b01 	ldrbne.w	r3, [r1], #1
    b5e0:	f800 3b01 	strbne.w	r3, [r0], #1
    b5e4:	d380      	bcc.n	b4e8 <memcpy+0xc>
    b5e6:	f831 3b02 	ldrh.w	r3, [r1], #2
    b5ea:	f820 3b02 	strh.w	r3, [r0], #2
    b5ee:	e77b      	b.n	b4e8 <memcpy+0xc>
    b5f0:	3a04      	subs	r2, #4
    b5f2:	d3d9      	bcc.n	b5a8 <memcpy+0xcc>
    b5f4:	3a01      	subs	r2, #1
    b5f6:	f811 3b01 	ldrb.w	r3, [r1], #1
    b5fa:	f800 3b01 	strb.w	r3, [r0], #1
    b5fe:	d2f9      	bcs.n	b5f4 <memcpy+0x118>
    b600:	780b      	ldrb	r3, [r1, #0]
    b602:	7003      	strb	r3, [r0, #0]
    b604:	784b      	ldrb	r3, [r1, #1]
    b606:	7043      	strb	r3, [r0, #1]
    b608:	788b      	ldrb	r3, [r1, #2]
    b60a:	7083      	strb	r3, [r0, #2]
    b60c:	4660      	mov	r0, ip
    b60e:	4770      	bx	lr

0000b610 <memset>:
    b610:	b4f0      	push	{r4, r5, r6, r7}
    b612:	0784      	lsls	r4, r0, #30
    b614:	d043      	beq.n	b69e <memset+0x8e>
    b616:	1e54      	subs	r4, r2, #1
    b618:	2a00      	cmp	r2, #0
    b61a:	d03e      	beq.n	b69a <memset+0x8a>
    b61c:	b2cd      	uxtb	r5, r1
    b61e:	4603      	mov	r3, r0
    b620:	e003      	b.n	b62a <memset+0x1a>
    b622:	1e62      	subs	r2, r4, #1
    b624:	2c00      	cmp	r4, #0
    b626:	d038      	beq.n	b69a <memset+0x8a>
    b628:	4614      	mov	r4, r2
    b62a:	f803 5b01 	strb.w	r5, [r3], #1
    b62e:	079a      	lsls	r2, r3, #30
    b630:	d1f7      	bne.n	b622 <memset+0x12>
    b632:	2c03      	cmp	r4, #3
    b634:	d92a      	bls.n	b68c <memset+0x7c>
    b636:	b2cd      	uxtb	r5, r1
    b638:	ea45 2505 	orr.w	r5, r5, r5, lsl #8
    b63c:	2c0f      	cmp	r4, #15
    b63e:	ea45 4505 	orr.w	r5, r5, r5, lsl #16
    b642:	d915      	bls.n	b670 <memset+0x60>
    b644:	f1a4 0710 	sub.w	r7, r4, #16
    b648:	093f      	lsrs	r7, r7, #4
    b64a:	f103 0610 	add.w	r6, r3, #16
    b64e:	eb06 1607 	add.w	r6, r6, r7, lsl #4
    b652:	461a      	mov	r2, r3
    b654:	6015      	str	r5, [r2, #0]
    b656:	6055      	str	r5, [r2, #4]
    b658:	6095      	str	r5, [r2, #8]
    b65a:	60d5      	str	r5, [r2, #12]
    b65c:	3210      	adds	r2, #16
    b65e:	42b2      	cmp	r2, r6
    b660:	d1f8      	bne.n	b654 <memset+0x44>
    b662:	f004 040f 	and.w	r4, r4, #15
    b666:	3701      	adds	r7, #1
    b668:	2c03      	cmp	r4, #3
    b66a:	eb03 1307 	add.w	r3, r3, r7, lsl #4
    b66e:	d90d      	bls.n	b68c <memset+0x7c>
    b670:	461e      	mov	r6, r3
    b672:	4622      	mov	r2, r4
    b674:	3a04      	subs	r2, #4
    b676:	2a03      	cmp	r2, #3
    b678:	f846 5b04 	str.w	r5, [r6], #4
    b67c:	d8fa      	bhi.n	b674 <memset+0x64>
    b67e:	1f22      	subs	r2, r4, #4
    b680:	f022 0203 	bic.w	r2, r2, #3
    b684:	3204      	adds	r2, #4
    b686:	4413      	add	r3, r2
    b688:	f004 0403 	and.w	r4, r4, #3
    b68c:	b12c      	cbz	r4, b69a <memset+0x8a>
    b68e:	b2c9      	uxtb	r1, r1
    b690:	441c      	add	r4, r3
    b692:	f803 1b01 	strb.w	r1, [r3], #1
    b696:	42a3      	cmp	r3, r4
    b698:	d1fb      	bne.n	b692 <memset+0x82>
    b69a:	bcf0      	pop	{r4, r5, r6, r7}
    b69c:	4770      	bx	lr
    b69e:	4614      	mov	r4, r2
    b6a0:	4603      	mov	r3, r0
    b6a2:	e7c6      	b.n	b632 <memset+0x22>

0000b6a4 <__malloc_lock>:
    b6a4:	4770      	bx	lr
    b6a6:	bf00      	nop

0000b6a8 <__malloc_unlock>:
    b6a8:	4770      	bx	lr
    b6aa:	bf00      	nop

0000b6ac <printf>:
    b6ac:	b40f      	push	{r0, r1, r2, r3}
    b6ae:	b500      	push	{lr}
    b6b0:	4a07      	ldr	r2, [pc, #28]	; (b6d0 <printf+0x24>)
    b6b2:	b083      	sub	sp, #12
    b6b4:	ab04      	add	r3, sp, #16
    b6b6:	6810      	ldr	r0, [r2, #0]
    b6b8:	f853 2b04 	ldr.w	r2, [r3], #4
    b6bc:	6881      	ldr	r1, [r0, #8]
    b6be:	9301      	str	r3, [sp, #4]
    b6c0:	f001 fbf6 	bl	ceb0 <_vfprintf_r>
    b6c4:	b003      	add	sp, #12
    b6c6:	f85d eb04 	ldr.w	lr, [sp], #4
    b6ca:	b004      	add	sp, #16
    b6cc:	4770      	bx	lr
    b6ce:	bf00      	nop
    b6d0:	20000528 	.word	0x20000528

0000b6d4 <_sbrk_r>:
    b6d4:	b538      	push	{r3, r4, r5, lr}
    b6d6:	4c07      	ldr	r4, [pc, #28]	; (b6f4 <_sbrk_r+0x20>)
    b6d8:	2300      	movs	r3, #0
    b6da:	4605      	mov	r5, r0
    b6dc:	4608      	mov	r0, r1
    b6de:	6023      	str	r3, [r4, #0]
    b6e0:	f7f9 fb40 	bl	4d64 <_sbrk>
    b6e4:	1c43      	adds	r3, r0, #1
    b6e6:	d000      	beq.n	b6ea <_sbrk_r+0x16>
    b6e8:	bd38      	pop	{r3, r4, r5, pc}
    b6ea:	6823      	ldr	r3, [r4, #0]
    b6ec:	2b00      	cmp	r3, #0
    b6ee:	d0fb      	beq.n	b6e8 <_sbrk_r+0x14>
    b6f0:	602b      	str	r3, [r5, #0]
    b6f2:	bd38      	pop	{r3, r4, r5, pc}
    b6f4:	20000eb0 	.word	0x20000eb0

0000b6f8 <sprintf>:
    b6f8:	b40e      	push	{r1, r2, r3}
    b6fa:	b5f0      	push	{r4, r5, r6, r7, lr}
    b6fc:	b09c      	sub	sp, #112	; 0x70
    b6fe:	ab21      	add	r3, sp, #132	; 0x84
    b700:	490f      	ldr	r1, [pc, #60]	; (b740 <sprintf+0x48>)
    b702:	f853 2b04 	ldr.w	r2, [r3], #4
    b706:	9301      	str	r3, [sp, #4]
    b708:	4605      	mov	r5, r0
    b70a:	f06f 4400 	mvn.w	r4, #2147483648	; 0x80000000
    b70e:	6808      	ldr	r0, [r1, #0]
    b710:	9502      	str	r5, [sp, #8]
    b712:	f44f 7702 	mov.w	r7, #520	; 0x208
    b716:	f64f 76ff 	movw	r6, #65535	; 0xffff
    b71a:	a902      	add	r1, sp, #8
    b71c:	9506      	str	r5, [sp, #24]
    b71e:	f8ad 7014 	strh.w	r7, [sp, #20]
    b722:	9404      	str	r4, [sp, #16]
    b724:	9407      	str	r4, [sp, #28]
    b726:	f8ad 6016 	strh.w	r6, [sp, #22]
    b72a:	f000 f949 	bl	b9c0 <_svfprintf_r>
    b72e:	9b02      	ldr	r3, [sp, #8]
    b730:	2200      	movs	r2, #0
    b732:	701a      	strb	r2, [r3, #0]
    b734:	b01c      	add	sp, #112	; 0x70
    b736:	e8bd 40f0 	ldmia.w	sp!, {r4, r5, r6, r7, lr}
    b73a:	b003      	add	sp, #12
    b73c:	4770      	bx	lr
    b73e:	bf00      	nop
    b740:	20000528 	.word	0x20000528

0000b744 <strcmp>:
    b744:	ea40 0c01 	orr.w	ip, r0, r1
    b748:	f01c 0f07 	tst.w	ip, #7
    b74c:	d123      	bne.n	b796 <strcmp+0x52>
    b74e:	f1bd 0d10 	subs.w	sp, sp, #16
    b752:	e9cd 4502 	strd	r4, r5, [sp, #8]
    b756:	e9cd 6700 	strd	r6, r7, [sp]
    b75a:	f06f 0600 	mvn.w	r6, #0
    b75e:	f04f 0700 	mov.w	r7, #0
    b762:	bf00      	nop
    b764:	e8f0 2302 	ldrd	r2, r3, [r0], #8
    b768:	e8f1 4502 	ldrd	r4, r5, [r1], #8
    b76c:	42a2      	cmp	r2, r4
    b76e:	fa82 fc46 	uadd8	ip, r2, r6
    b772:	faa7 fc86 	sel	ip, r7, r6
    b776:	bf08      	it	eq
    b778:	f1bc 0f00 	cmpeq.w	ip, #0
    b77c:	f040 80d7 	bne.w	b92e <strcmp+0x1ea>
    b780:	42ab      	cmp	r3, r5
    b782:	fa83 fc46 	uadd8	ip, r3, r6
    b786:	faa7 fc86 	sel	ip, r7, r6
    b78a:	bf08      	it	eq
    b78c:	f1bc 0f00 	cmpeq.w	ip, #0
    b790:	f040 80ca 	bne.w	b928 <strcmp+0x1e4>
    b794:	e7e6      	b.n	b764 <strcmp+0x20>
    b796:	f010 0c03 	ands.w	ip, r0, #3
    b79a:	d021      	beq.n	b7e0 <strcmp+0x9c>
    b79c:	f020 0003 	bic.w	r0, r0, #3
    b7a0:	f850 2b04 	ldr.w	r2, [r0], #4
    b7a4:	ea5f 7ccc 	movs.w	ip, ip, lsl #31
    b7a8:	d008      	beq.n	b7bc <strcmp+0x78>
    b7aa:	d20f      	bcs.n	b7cc <strcmp+0x88>
    b7ac:	f811 cb01 	ldrb.w	ip, [r1], #1
    b7b0:	fa5f f392 	uxtb.w	r3, r2, ror #8
    b7b4:	ebb3 0c0c 	subs.w	ip, r3, ip
    b7b8:	d110      	bne.n	b7dc <strcmp+0x98>
    b7ba:	b17b      	cbz	r3, b7dc <strcmp+0x98>
    b7bc:	f811 cb01 	ldrb.w	ip, [r1], #1
    b7c0:	fa5f f3a2 	uxtb.w	r3, r2, ror #16
    b7c4:	ebb3 0c0c 	subs.w	ip, r3, ip
    b7c8:	d108      	bne.n	b7dc <strcmp+0x98>
    b7ca:	b13b      	cbz	r3, b7dc <strcmp+0x98>
    b7cc:	f811 cb01 	ldrb.w	ip, [r1], #1
    b7d0:	fa5f f3b2 	uxtb.w	r3, r2, ror #24
    b7d4:	ebb3 0c0c 	subs.w	ip, r3, ip
    b7d8:	d100      	bne.n	b7dc <strcmp+0x98>
    b7da:	b90b      	cbnz	r3, b7e0 <strcmp+0x9c>
    b7dc:	4660      	mov	r0, ip
    b7de:	4770      	bx	lr
    b7e0:	f1bd 0d10 	subs.w	sp, sp, #16
    b7e4:	e9cd 4502 	strd	r4, r5, [sp, #8]
    b7e8:	e9cd 6700 	strd	r6, r7, [sp]
    b7ec:	f06f 0600 	mvn.w	r6, #0
    b7f0:	f04f 0700 	mov.w	r7, #0
    b7f4:	f011 0c03 	ands.w	ip, r1, #3
    b7f8:	d12d      	bne.n	b856 <strcmp+0x112>
    b7fa:	f010 0f04 	tst.w	r0, #4
    b7fe:	d00d      	beq.n	b81c <strcmp+0xd8>
    b800:	f850 2b04 	ldr.w	r2, [r0], #4
    b804:	f851 4b04 	ldr.w	r4, [r1], #4
    b808:	42a2      	cmp	r2, r4
    b80a:	fa82 fc46 	uadd8	ip, r2, r6
    b80e:	faa7 fc86 	sel	ip, r7, r6
    b812:	bf08      	it	eq
    b814:	f1bc 0f00 	cmpeq.w	ip, #0
    b818:	f040 8089 	bne.w	b92e <strcmp+0x1ea>
    b81c:	f011 0f04 	tst.w	r1, #4
    b820:	d09f      	beq.n	b762 <strcmp+0x1e>
    b822:	f851 5b04 	ldr.w	r5, [r1], #4
    b826:	bf00      	nop
    b828:	e8f0 2302 	ldrd	r2, r3, [r0], #8
    b82c:	42aa      	cmp	r2, r5
    b82e:	fa82 fc46 	uadd8	ip, r2, r6
    b832:	faa7 fc86 	sel	ip, r7, r6
    b836:	bf08      	it	eq
    b838:	f1bc 0f00 	cmpeq.w	ip, #0
    b83c:	d171      	bne.n	b922 <strcmp+0x1de>
    b83e:	e8f1 4502 	ldrd	r4, r5, [r1], #8
    b842:	42a3      	cmp	r3, r4
    b844:	fa83 fc46 	uadd8	ip, r3, r6
    b848:	faa7 fc86 	sel	ip, r7, r6
    b84c:	bf08      	it	eq
    b84e:	f1bc 0f00 	cmpeq.w	ip, #0
    b852:	d163      	bne.n	b91c <strcmp+0x1d8>
    b854:	e7e8      	b.n	b828 <strcmp+0xe4>
    b856:	f021 0103 	bic.w	r1, r1, #3
    b85a:	f1bc 0f02 	cmp.w	ip, #2
    b85e:	d01e      	beq.n	b89e <strcmp+0x15a>
    b860:	da3b      	bge.n	b8da <strcmp+0x196>
    b862:	f851 5b04 	ldr.w	r5, [r1], #4
    b866:	bf00      	nop
    b868:	f850 3b04 	ldr.w	r3, [r0], #4
    b86c:	ea4f 2515 	mov.w	r5, r5, lsr #8
    b870:	fa83 fc46 	uadd8	ip, r3, r6
    b874:	faa7 fc86 	sel	ip, r7, r6
    b878:	ebb7 2f0c 	cmp.w	r7, ip, lsl #8
    b87c:	ea03 2216 	and.w	r2, r3, r6, lsr #8
    b880:	bf08      	it	eq
    b882:	42aa      	cmpeq	r2, r5
    b884:	d14d      	bne.n	b922 <strcmp+0x1de>
    b886:	f851 5b04 	ldr.w	r5, [r1], #4
    b88a:	f1bc 0f00 	cmp.w	ip, #0
    b88e:	ea82 0303 	eor.w	r3, r2, r3
    b892:	ea4f 6205 	mov.w	r2, r5, lsl #24
    b896:	bf08      	it	eq
    b898:	4293      	cmpeq	r3, r2
    b89a:	d13c      	bne.n	b916 <strcmp+0x1d2>
    b89c:	e7e4      	b.n	b868 <strcmp+0x124>
    b89e:	f851 5b04 	ldr.w	r5, [r1], #4
    b8a2:	bf00      	nop
    b8a4:	f850 3b04 	ldr.w	r3, [r0], #4
    b8a8:	ea4f 4515 	mov.w	r5, r5, lsr #16
    b8ac:	fa83 fc46 	uadd8	ip, r3, r6
    b8b0:	faa7 fc86 	sel	ip, r7, r6
    b8b4:	ebb7 4f0c 	cmp.w	r7, ip, lsl #16
    b8b8:	ea03 4216 	and.w	r2, r3, r6, lsr #16
    b8bc:	bf08      	it	eq
    b8be:	42aa      	cmpeq	r2, r5
    b8c0:	d12f      	bne.n	b922 <strcmp+0x1de>
    b8c2:	f851 5b04 	ldr.w	r5, [r1], #4
    b8c6:	f1bc 0f00 	cmp.w	ip, #0
    b8ca:	ea82 0303 	eor.w	r3, r2, r3
    b8ce:	ea4f 4205 	mov.w	r2, r5, lsl #16
    b8d2:	bf08      	it	eq
    b8d4:	4293      	cmpeq	r3, r2
    b8d6:	d11e      	bne.n	b916 <strcmp+0x1d2>
    b8d8:	e7e4      	b.n	b8a4 <strcmp+0x160>
    b8da:	f851 5b04 	ldr.w	r5, [r1], #4
    b8de:	bf00      	nop
    b8e0:	f850 3b04 	ldr.w	r3, [r0], #4
    b8e4:	ea4f 6515 	mov.w	r5, r5, lsr #24
    b8e8:	fa83 fc46 	uadd8	ip, r3, r6
    b8ec:	faa7 fc86 	sel	ip, r7, r6
    b8f0:	ebb7 6f0c 	cmp.w	r7, ip, lsl #24
    b8f4:	ea03 6216 	and.w	r2, r3, r6, lsr #24
    b8f8:	bf08      	it	eq
    b8fa:	42aa      	cmpeq	r2, r5
    b8fc:	d111      	bne.n	b922 <strcmp+0x1de>
    b8fe:	f851 5b04 	ldr.w	r5, [r1], #4
    b902:	f1bc 0f00 	cmp.w	ip, #0
    b906:	ea82 0303 	eor.w	r3, r2, r3
    b90a:	ea4f 2205 	mov.w	r2, r5, lsl #8
    b90e:	bf08      	it	eq
    b910:	4293      	cmpeq	r3, r2
    b912:	d100      	bne.n	b916 <strcmp+0x1d2>
    b914:	e7e4      	b.n	b8e0 <strcmp+0x19c>
    b916:	ba19      	rev	r1, r3
    b918:	ba12      	rev	r2, r2
    b91a:	e00a      	b.n	b932 <strcmp+0x1ee>
    b91c:	ba19      	rev	r1, r3
    b91e:	ba22      	rev	r2, r4
    b920:	e007      	b.n	b932 <strcmp+0x1ee>
    b922:	ba11      	rev	r1, r2
    b924:	ba2a      	rev	r2, r5
    b926:	e004      	b.n	b932 <strcmp+0x1ee>
    b928:	ba19      	rev	r1, r3
    b92a:	ba2a      	rev	r2, r5
    b92c:	e001      	b.n	b932 <strcmp+0x1ee>
    b92e:	ba11      	rev	r1, r2
    b930:	ba22      	rev	r2, r4
    b932:	fa9c f08c 	rev.w	r0, ip
    b936:	e9dd 6700 	ldrd	r6, r7, [sp]
    b93a:	e9dd 4502 	ldrd	r4, r5, [sp, #8]
    b93e:	f11d 0d10 	adds.w	sp, sp, #16
    b942:	b138      	cbz	r0, b954 <strcmp+0x210>
    b944:	fab0 f080 	clz	r0, r0
    b948:	f1c0 0018 	rsb	r0, r0, #24
    b94c:	fa21 f100 	lsr.w	r1, r1, r0
    b950:	fa22 f200 	lsr.w	r2, r2, r0
    b954:	2001      	movs	r0, #1
    b956:	4291      	cmp	r1, r2
    b958:	bf98      	it	ls
    b95a:	4180      	sbcls	r0, r0
    b95c:	4770      	bx	lr
    b95e:	bf00      	nop

0000b960 <strlen>:
    b960:	f020 0103 	bic.w	r1, r0, #3
    b964:	f010 0003 	ands.w	r0, r0, #3
    b968:	f1c0 0000 	rsb	r0, r0, #0
    b96c:	f851 3b04 	ldr.w	r3, [r1], #4
    b970:	f100 0c04 	add.w	ip, r0, #4
    b974:	ea4f 0ccc 	mov.w	ip, ip, lsl #3
    b978:	f06f 0200 	mvn.w	r2, #0
    b97c:	bf1c      	itt	ne
    b97e:	fa22 f20c 	lsrne.w	r2, r2, ip
    b982:	4313      	orrne	r3, r2
    b984:	f04f 0c01 	mov.w	ip, #1
    b988:	ea4c 2c0c 	orr.w	ip, ip, ip, lsl #8
    b98c:	ea4c 4c0c 	orr.w	ip, ip, ip, lsl #16
    b990:	eba3 020c 	sub.w	r2, r3, ip
    b994:	ea22 0203 	bic.w	r2, r2, r3
    b998:	ea12 12cc 	ands.w	r2, r2, ip, lsl #7
    b99c:	bf04      	itt	eq
    b99e:	f851 3b04 	ldreq.w	r3, [r1], #4
    b9a2:	3004      	addeq	r0, #4
    b9a4:	d0f4      	beq.n	b990 <strlen+0x30>
    b9a6:	f013 0fff 	tst.w	r3, #255	; 0xff
    b9aa:	bf1f      	itttt	ne
    b9ac:	3001      	addne	r0, #1
    b9ae:	f413 4f7f 	tstne.w	r3, #65280	; 0xff00
    b9b2:	3001      	addne	r0, #1
    b9b4:	f413 0f7f 	tstne.w	r3, #16711680	; 0xff0000
    b9b8:	bf18      	it	ne
    b9ba:	3001      	addne	r0, #1
    b9bc:	4770      	bx	lr
    b9be:	bf00      	nop

0000b9c0 <_svfprintf_r>:
    b9c0:	e92d 4ff0 	stmdb	sp!, {r4, r5, r6, r7, r8, r9, sl, fp, lr}
    b9c4:	b0c5      	sub	sp, #276	; 0x114
    b9c6:	4691      	mov	r9, r2
    b9c8:	930c      	str	r3, [sp, #48]	; 0x30
    b9ca:	9108      	str	r1, [sp, #32]
    b9cc:	9009      	str	r0, [sp, #36]	; 0x24
    b9ce:	f004 f9b7 	bl	fd40 <_localeconv_r>
    b9d2:	6800      	ldr	r0, [r0, #0]
    b9d4:	9011      	str	r0, [sp, #68]	; 0x44
    b9d6:	f7ff ffc3 	bl	b960 <strlen>
    b9da:	9c08      	ldr	r4, [sp, #32]
    b9dc:	9014      	str	r0, [sp, #80]	; 0x50
    b9de:	89a3      	ldrh	r3, [r4, #12]
    b9e0:	061a      	lsls	r2, r3, #24
    b9e2:	d503      	bpl.n	b9ec <_svfprintf_r+0x2c>
    b9e4:	6923      	ldr	r3, [r4, #16]
    b9e6:	2b00      	cmp	r3, #0
    b9e8:	f001 8092 	beq.w	cb10 <_svfprintf_r+0x1150>
    b9ec:	ed9f 7b96 	vldr	d7, [pc, #600]	; bc48 <_svfprintf_r+0x288>
    b9f0:	ed8d 7b12 	vstr	d7, [sp, #72]	; 0x48
    b9f4:	2300      	movs	r3, #0
    b9f6:	ac34      	add	r4, sp, #208	; 0xd0
    b9f8:	930d      	str	r3, [sp, #52]	; 0x34
    b9fa:	9404      	str	r4, [sp, #16]
    b9fc:	9329      	str	r3, [sp, #164]	; 0xa4
    b9fe:	9328      	str	r3, [sp, #160]	; 0xa0
    ba00:	9316      	str	r3, [sp, #88]	; 0x58
    ba02:	9315      	str	r3, [sp, #84]	; 0x54
    ba04:	930a      	str	r3, [sp, #40]	; 0x28
    ba06:	9427      	str	r4, [sp, #156]	; 0x9c
    ba08:	4626      	mov	r6, r4
    ba0a:	f899 3000 	ldrb.w	r3, [r9]
    ba0e:	2b00      	cmp	r3, #0
    ba10:	f000 80f8 	beq.w	bc04 <_svfprintf_r+0x244>
    ba14:	2b25      	cmp	r3, #37	; 0x25
    ba16:	f000 80f5 	beq.w	bc04 <_svfprintf_r+0x244>
    ba1a:	f109 0201 	add.w	r2, r9, #1
    ba1e:	e001      	b.n	ba24 <_svfprintf_r+0x64>
    ba20:	2b25      	cmp	r3, #37	; 0x25
    ba22:	d004      	beq.n	ba2e <_svfprintf_r+0x6e>
    ba24:	4614      	mov	r4, r2
    ba26:	3201      	adds	r2, #1
    ba28:	7823      	ldrb	r3, [r4, #0]
    ba2a:	2b00      	cmp	r3, #0
    ba2c:	d1f8      	bne.n	ba20 <_svfprintf_r+0x60>
    ba2e:	ebc9 0504 	rsb	r5, r9, r4
    ba32:	b17d      	cbz	r5, ba54 <_svfprintf_r+0x94>
    ba34:	9b28      	ldr	r3, [sp, #160]	; 0xa0
    ba36:	9a29      	ldr	r2, [sp, #164]	; 0xa4
    ba38:	f8c6 9000 	str.w	r9, [r6]
    ba3c:	3301      	adds	r3, #1
    ba3e:	442a      	add	r2, r5
    ba40:	2b07      	cmp	r3, #7
    ba42:	6075      	str	r5, [r6, #4]
    ba44:	9229      	str	r2, [sp, #164]	; 0xa4
    ba46:	9328      	str	r3, [sp, #160]	; 0xa0
    ba48:	f300 80c2 	bgt.w	bbd0 <_svfprintf_r+0x210>
    ba4c:	3608      	adds	r6, #8
    ba4e:	980a      	ldr	r0, [sp, #40]	; 0x28
    ba50:	4428      	add	r0, r5
    ba52:	900a      	str	r0, [sp, #40]	; 0x28
    ba54:	7823      	ldrb	r3, [r4, #0]
    ba56:	2b00      	cmp	r3, #0
    ba58:	f000 80c2 	beq.w	bbe0 <_svfprintf_r+0x220>
    ba5c:	2300      	movs	r3, #0
    ba5e:	f894 8001 	ldrb.w	r8, [r4, #1]
    ba62:	f88d 307f 	strb.w	r3, [sp, #127]	; 0x7f
    ba66:	461a      	mov	r2, r3
    ba68:	930b      	str	r3, [sp, #44]	; 0x2c
    ba6a:	9305      	str	r3, [sp, #20]
    ba6c:	f104 0901 	add.w	r9, r4, #1
    ba70:	f04f 34ff 	mov.w	r4, #4294967295	; 0xffffffff
    ba74:	9406      	str	r4, [sp, #24]
    ba76:	f109 0901 	add.w	r9, r9, #1
    ba7a:	f1a8 0320 	sub.w	r3, r8, #32
    ba7e:	2b58      	cmp	r3, #88	; 0x58
    ba80:	f200 83cc 	bhi.w	c21c <_svfprintf_r+0x85c>
    ba84:	e8df f013 	tbh	[pc, r3, lsl #1]
    ba88:	03ca026f 	.word	0x03ca026f
    ba8c:	027603ca 	.word	0x027603ca
    ba90:	03ca03ca 	.word	0x03ca03ca
    ba94:	03ca03ca 	.word	0x03ca03ca
    ba98:	03ca03ca 	.word	0x03ca03ca
    ba9c:	03690319 	.word	0x03690319
    baa0:	009d03ca 	.word	0x009d03ca
    baa4:	03ca00c0 	.word	0x03ca00c0
    baa8:	0284027d 	.word	0x0284027d
    baac:	02840284 	.word	0x02840284
    bab0:	02840284 	.word	0x02840284
    bab4:	02840284 	.word	0x02840284
    bab8:	02840284 	.word	0x02840284
    babc:	03ca03ca 	.word	0x03ca03ca
    bac0:	03ca03ca 	.word	0x03ca03ca
    bac4:	03ca03ca 	.word	0x03ca03ca
    bac8:	03ca03ca 	.word	0x03ca03ca
    bacc:	03ca03ca 	.word	0x03ca03ca
    bad0:	03740295 	.word	0x03740295
    bad4:	037403ca 	.word	0x037403ca
    bad8:	03ca03ca 	.word	0x03ca03ca
    badc:	03ca03ca 	.word	0x03ca03ca
    bae0:	03ca036d 	.word	0x03ca036d
    bae4:	007803ca 	.word	0x007803ca
    bae8:	03ca03ca 	.word	0x03ca03ca
    baec:	03ca03ca 	.word	0x03ca03ca
    baf0:	005903ca 	.word	0x005903ca
    baf4:	03ca03ca 	.word	0x03ca03ca
    baf8:	03ca02b4 	.word	0x03ca02b4
    bafc:	03ca03ca 	.word	0x03ca03ca
    bb00:	03ca03ca 	.word	0x03ca03ca
    bb04:	03ca03ca 	.word	0x03ca03ca
    bb08:	03ca03ca 	.word	0x03ca03ca
    bb0c:	033c03ca 	.word	0x033c03ca
    bb10:	0374034d 	.word	0x0374034d
    bb14:	03740374 	.word	0x03740374
    bb18:	034d0304 	.word	0x034d0304
    bb1c:	03ca03ca 	.word	0x03ca03ca
    bb20:	03ca030d 	.word	0x03ca030d
    bb24:	007c02ca 	.word	0x007c02ca
    bb28:	03aa0326 	.word	0x03aa0326
    bb2c:	02de03ca 	.word	0x02de03ca
    bb30:	005f03ca 	.word	0x005f03ca
    bb34:	03ca03ca 	.word	0x03ca03ca
    bb38:	00e4      	.short	0x00e4
    bb3a:	f8dd c014 	ldr.w	ip, [sp, #20]
    bb3e:	f04c 0c10 	orr.w	ip, ip, #16
    bb42:	f8cd c014 	str.w	ip, [sp, #20]
    bb46:	9c05      	ldr	r4, [sp, #20]
    bb48:	06a2      	lsls	r2, r4, #26
    bb4a:	f100 835b 	bmi.w	c204 <_svfprintf_r+0x844>
    bb4e:	9c05      	ldr	r4, [sp, #20]
    bb50:	06e3      	lsls	r3, r4, #27
    bb52:	f100 85e5 	bmi.w	c720 <_svfprintf_r+0xd60>
    bb56:	f8dd c014 	ldr.w	ip, [sp, #20]
    bb5a:	f01c 0f40 	tst.w	ip, #64	; 0x40
    bb5e:	f000 85df 	beq.w	c720 <_svfprintf_r+0xd60>
    bb62:	f8dd c030 	ldr.w	ip, [sp, #48]	; 0x30
    bb66:	f8bc 4000 	ldrh.w	r4, [ip]
    bb6a:	f10c 0c04 	add.w	ip, ip, #4
    bb6e:	2500      	movs	r5, #0
    bb70:	2301      	movs	r3, #1
    bb72:	f8cd c030 	str.w	ip, [sp, #48]	; 0x30
    bb76:	e092      	b.n	bc9e <_svfprintf_r+0x2de>
    bb78:	9d05      	ldr	r5, [sp, #20]
    bb7a:	f045 0510 	orr.w	r5, r5, #16
    bb7e:	9505      	str	r5, [sp, #20]
    bb80:	f8dd c014 	ldr.w	ip, [sp, #20]
    bb84:	f01c 0320 	ands.w	r3, ip, #32
    bb88:	f040 8331 	bne.w	c1ee <_svfprintf_r+0x82e>
    bb8c:	f8dd c014 	ldr.w	ip, [sp, #20]
    bb90:	f01c 0210 	ands.w	r2, ip, #16
    bb94:	f040 85bd 	bne.w	c712 <_svfprintf_r+0xd52>
    bb98:	f8dd c014 	ldr.w	ip, [sp, #20]
    bb9c:	f01c 0340 	ands.w	r3, ip, #64	; 0x40
    bba0:	f000 85b7 	beq.w	c712 <_svfprintf_r+0xd52>
    bba4:	f8dd c030 	ldr.w	ip, [sp, #48]	; 0x30
    bba8:	f8bc 4000 	ldrh.w	r4, [ip]
    bbac:	f10c 0c04 	add.w	ip, ip, #4
    bbb0:	4613      	mov	r3, r2
    bbb2:	2500      	movs	r5, #0
    bbb4:	f8cd c030 	str.w	ip, [sp, #48]	; 0x30
    bbb8:	e071      	b.n	bc9e <_svfprintf_r+0x2de>
    bbba:	9c0b      	ldr	r4, [sp, #44]	; 0x2c
    bbbc:	930c      	str	r3, [sp, #48]	; 0x30
    bbbe:	4264      	negs	r4, r4
    bbc0:	940b      	str	r4, [sp, #44]	; 0x2c
    bbc2:	9d05      	ldr	r5, [sp, #20]
    bbc4:	f045 0504 	orr.w	r5, r5, #4
    bbc8:	9505      	str	r5, [sp, #20]
    bbca:	f899 8000 	ldrb.w	r8, [r9]
    bbce:	e752      	b.n	ba76 <_svfprintf_r+0xb6>
    bbd0:	9809      	ldr	r0, [sp, #36]	; 0x24
    bbd2:	9908      	ldr	r1, [sp, #32]
    bbd4:	aa27      	add	r2, sp, #156	; 0x9c
    bbd6:	f004 fefd 	bl	109d4 <__ssprint_r>
    bbda:	b940      	cbnz	r0, bbee <_svfprintf_r+0x22e>
    bbdc:	ae34      	add	r6, sp, #208	; 0xd0
    bbde:	e736      	b.n	ba4e <_svfprintf_r+0x8e>
    bbe0:	9b29      	ldr	r3, [sp, #164]	; 0xa4
    bbe2:	b123      	cbz	r3, bbee <_svfprintf_r+0x22e>
    bbe4:	9809      	ldr	r0, [sp, #36]	; 0x24
    bbe6:	9908      	ldr	r1, [sp, #32]
    bbe8:	aa27      	add	r2, sp, #156	; 0x9c
    bbea:	f004 fef3 	bl	109d4 <__ssprint_r>
    bbee:	9c08      	ldr	r4, [sp, #32]
    bbf0:	980a      	ldr	r0, [sp, #40]	; 0x28
    bbf2:	89a3      	ldrh	r3, [r4, #12]
    bbf4:	f013 0f40 	tst.w	r3, #64	; 0x40
    bbf8:	bf18      	it	ne
    bbfa:	f04f 30ff 	movne.w	r0, #4294967295	; 0xffffffff
    bbfe:	b045      	add	sp, #276	; 0x114
    bc00:	e8bd 8ff0 	ldmia.w	sp!, {r4, r5, r6, r7, r8, r9, sl, fp, pc}
    bc04:	464c      	mov	r4, r9
    bc06:	e725      	b.n	ba54 <_svfprintf_r+0x94>
    bc08:	f899 8000 	ldrb.w	r8, [r9]
    bc0c:	f1b8 0f2a 	cmp.w	r8, #42	; 0x2a
    bc10:	f109 0001 	add.w	r0, r9, #1
    bc14:	f001 811b 	beq.w	ce4e <_svfprintf_r+0x148e>
    bc18:	f1a8 0330 	sub.w	r3, r8, #48	; 0x30
    bc1c:	2b09      	cmp	r3, #9
    bc1e:	bf98      	it	ls
    bc20:	2100      	movls	r1, #0
    bc22:	f201 808b 	bhi.w	cd3c <_svfprintf_r+0x137c>
    bc26:	f810 8b01 	ldrb.w	r8, [r0], #1
    bc2a:	eb01 0181 	add.w	r1, r1, r1, lsl #2
    bc2e:	eb03 0141 	add.w	r1, r3, r1, lsl #1
    bc32:	f1a8 0330 	sub.w	r3, r8, #48	; 0x30
    bc36:	2b09      	cmp	r3, #9
    bc38:	d9f5      	bls.n	bc26 <_svfprintf_r+0x266>
    bc3a:	ea41 71e1 	orr.w	r1, r1, r1, asr #31
    bc3e:	9106      	str	r1, [sp, #24]
    bc40:	4681      	mov	r9, r0
    bc42:	e71a      	b.n	ba7a <_svfprintf_r+0xba>
    bc44:	f3af 8000 	nop.w
	...
    bc50:	9d05      	ldr	r5, [sp, #20]
    bc52:	4ca1      	ldr	r4, [pc, #644]	; (bed8 <_svfprintf_r+0x518>)
    bc54:	9416      	str	r4, [sp, #88]	; 0x58
    bc56:	06af      	lsls	r7, r5, #26
    bc58:	f88d 207f 	strb.w	r2, [sp, #127]	; 0x7f
    bc5c:	f140 81d0 	bpl.w	c000 <_svfprintf_r+0x640>
    bc60:	f8dd c030 	ldr.w	ip, [sp, #48]	; 0x30
    bc64:	f10c 0307 	add.w	r3, ip, #7
    bc68:	f023 0307 	bic.w	r3, r3, #7
    bc6c:	f103 0408 	add.w	r4, r3, #8
    bc70:	940c      	str	r4, [sp, #48]	; 0x30
    bc72:	e9d3 4500 	ldrd	r4, r5, [r3]
    bc76:	f8dd c014 	ldr.w	ip, [sp, #20]
    bc7a:	f01c 0f01 	tst.w	ip, #1
    bc7e:	f000 8463 	beq.w	c548 <_svfprintf_r+0xb88>
    bc82:	ea54 0005 	orrs.w	r0, r4, r5
    bc86:	f000 845f 	beq.w	c548 <_svfprintf_r+0xb88>
    bc8a:	2330      	movs	r3, #48	; 0x30
    bc8c:	f04c 0c02 	orr.w	ip, ip, #2
    bc90:	f88d 3080 	strb.w	r3, [sp, #128]	; 0x80
    bc94:	f88d 8081 	strb.w	r8, [sp, #129]	; 0x81
    bc98:	f8cd c014 	str.w	ip, [sp, #20]
    bc9c:	2302      	movs	r3, #2
    bc9e:	f04f 0a00 	mov.w	sl, #0
    bca2:	f88d a07f 	strb.w	sl, [sp, #127]	; 0x7f
    bca6:	9906      	ldr	r1, [sp, #24]
    bca8:	2900      	cmp	r1, #0
    bcaa:	db05      	blt.n	bcb8 <_svfprintf_r+0x2f8>
    bcac:	f8dd c014 	ldr.w	ip, [sp, #20]
    bcb0:	f02c 0c80 	bic.w	ip, ip, #128	; 0x80
    bcb4:	f8cd c014 	str.w	ip, [sp, #20]
    bcb8:	ea54 0005 	orrs.w	r0, r4, r5
    bcbc:	f040 82c6 	bne.w	c24c <_svfprintf_r+0x88c>
    bcc0:	9906      	ldr	r1, [sp, #24]
    bcc2:	2900      	cmp	r1, #0
    bcc4:	f040 82c2 	bne.w	c24c <_svfprintf_r+0x88c>
    bcc8:	2b00      	cmp	r3, #0
    bcca:	f040 8439 	bne.w	c540 <_svfprintf_r+0xb80>
    bcce:	f8dd c014 	ldr.w	ip, [sp, #20]
    bcd2:	f01c 0f01 	tst.w	ip, #1
    bcd6:	f000 8433 	beq.w	c540 <_svfprintf_r+0xb80>
    bcda:	af44      	add	r7, sp, #272	; 0x110
    bcdc:	2330      	movs	r3, #48	; 0x30
    bcde:	f807 3d41 	strb.w	r3, [r7, #-65]!
    bce2:	9d04      	ldr	r5, [sp, #16]
    bce4:	1bec      	subs	r4, r5, r7
    bce6:	f8dd c018 	ldr.w	ip, [sp, #24]
    bcea:	2500      	movs	r5, #0
    bcec:	4564      	cmp	r4, ip
    bcee:	bfa8      	it	ge
    bcf0:	46a4      	movge	ip, r4
    bcf2:	f8cd c01c 	str.w	ip, [sp, #28]
    bcf6:	9510      	str	r5, [sp, #64]	; 0x40
    bcf8:	f1ba 0f00 	cmp.w	sl, #0
    bcfc:	d002      	beq.n	bd04 <_svfprintf_r+0x344>
    bcfe:	9d07      	ldr	r5, [sp, #28]
    bd00:	3501      	adds	r5, #1
    bd02:	9507      	str	r5, [sp, #28]
    bd04:	9b05      	ldr	r3, [sp, #20]
    bd06:	f013 0302 	ands.w	r3, r3, #2
    bd0a:	930e      	str	r3, [sp, #56]	; 0x38
    bd0c:	d002      	beq.n	bd14 <_svfprintf_r+0x354>
    bd0e:	9d07      	ldr	r5, [sp, #28]
    bd10:	3502      	adds	r5, #2
    bd12:	9507      	str	r5, [sp, #28]
    bd14:	f8dd c014 	ldr.w	ip, [sp, #20]
    bd18:	f01c 0c84 	ands.w	ip, ip, #132	; 0x84
    bd1c:	f8cd c03c 	str.w	ip, [sp, #60]	; 0x3c
    bd20:	f040 8291 	bne.w	c246 <_svfprintf_r+0x886>
    bd24:	9d0b      	ldr	r5, [sp, #44]	; 0x2c
    bd26:	f8dd c01c 	ldr.w	ip, [sp, #28]
    bd2a:	ebcc 0b05 	rsb	fp, ip, r5
    bd2e:	f1bb 0f00 	cmp.w	fp, #0
    bd32:	f340 8288 	ble.w	c246 <_svfprintf_r+0x886>
    bd36:	f1bb 0f10 	cmp.w	fp, #16
    bd3a:	9929      	ldr	r1, [sp, #164]	; 0xa4
    bd3c:	9a28      	ldr	r2, [sp, #160]	; 0xa0
    bd3e:	f8df a1a0 	ldr.w	sl, [pc, #416]	; bee0 <_svfprintf_r+0x520>
    bd42:	dd2c      	ble.n	bd9e <_svfprintf_r+0x3de>
    bd44:	9717      	str	r7, [sp, #92]	; 0x5c
    bd46:	4630      	mov	r0, r6
    bd48:	4657      	mov	r7, sl
    bd4a:	2510      	movs	r5, #16
    bd4c:	46ca      	mov	sl, r9
    bd4e:	9e08      	ldr	r6, [sp, #32]
    bd50:	46a1      	mov	r9, r4
    bd52:	9c09      	ldr	r4, [sp, #36]	; 0x24
    bd54:	e006      	b.n	bd64 <_svfprintf_r+0x3a4>
    bd56:	f1ab 0b10 	sub.w	fp, fp, #16
    bd5a:	f1bb 0f10 	cmp.w	fp, #16
    bd5e:	f100 0008 	add.w	r0, r0, #8
    bd62:	dd17      	ble.n	bd94 <_svfprintf_r+0x3d4>
    bd64:	3201      	adds	r2, #1
    bd66:	3110      	adds	r1, #16
    bd68:	2a07      	cmp	r2, #7
    bd6a:	9129      	str	r1, [sp, #164]	; 0xa4
    bd6c:	9228      	str	r2, [sp, #160]	; 0xa0
    bd6e:	6007      	str	r7, [r0, #0]
    bd70:	6045      	str	r5, [r0, #4]
    bd72:	ddf0      	ble.n	bd56 <_svfprintf_r+0x396>
    bd74:	4620      	mov	r0, r4
    bd76:	4631      	mov	r1, r6
    bd78:	aa27      	add	r2, sp, #156	; 0x9c
    bd7a:	f004 fe2b 	bl	109d4 <__ssprint_r>
    bd7e:	2800      	cmp	r0, #0
    bd80:	f47f af35 	bne.w	bbee <_svfprintf_r+0x22e>
    bd84:	f1ab 0b10 	sub.w	fp, fp, #16
    bd88:	f1bb 0f10 	cmp.w	fp, #16
    bd8c:	9929      	ldr	r1, [sp, #164]	; 0xa4
    bd8e:	9a28      	ldr	r2, [sp, #160]	; 0xa0
    bd90:	a834      	add	r0, sp, #208	; 0xd0
    bd92:	dce7      	bgt.n	bd64 <_svfprintf_r+0x3a4>
    bd94:	464c      	mov	r4, r9
    bd96:	46d1      	mov	r9, sl
    bd98:	46ba      	mov	sl, r7
    bd9a:	9f17      	ldr	r7, [sp, #92]	; 0x5c
    bd9c:	4606      	mov	r6, r0
    bd9e:	3201      	adds	r2, #1
    bda0:	eb0b 0c01 	add.w	ip, fp, r1
    bda4:	2a07      	cmp	r2, #7
    bda6:	f8cd c0a4 	str.w	ip, [sp, #164]	; 0xa4
    bdaa:	9228      	str	r2, [sp, #160]	; 0xa0
    bdac:	e886 0c00 	stmia.w	r6, {sl, fp}
    bdb0:	f300 841b 	bgt.w	c5ea <_svfprintf_r+0xc2a>
    bdb4:	f89d a07f 	ldrb.w	sl, [sp, #127]	; 0x7f
    bdb8:	3608      	adds	r6, #8
    bdba:	f1ba 0f00 	cmp.w	sl, #0
    bdbe:	d00f      	beq.n	bde0 <_svfprintf_r+0x420>
    bdc0:	9b28      	ldr	r3, [sp, #160]	; 0xa0
    bdc2:	3301      	adds	r3, #1
    bdc4:	f10c 0c01 	add.w	ip, ip, #1
    bdc8:	f10d 017f 	add.w	r1, sp, #127	; 0x7f
    bdcc:	2201      	movs	r2, #1
    bdce:	2b07      	cmp	r3, #7
    bdd0:	f8cd c0a4 	str.w	ip, [sp, #164]	; 0xa4
    bdd4:	9328      	str	r3, [sp, #160]	; 0xa0
    bdd6:	e886 0006 	stmia.w	r6, {r1, r2}
    bdda:	f300 8399 	bgt.w	c510 <_svfprintf_r+0xb50>
    bdde:	3608      	adds	r6, #8
    bde0:	9b0e      	ldr	r3, [sp, #56]	; 0x38
    bde2:	b173      	cbz	r3, be02 <_svfprintf_r+0x442>
    bde4:	9b28      	ldr	r3, [sp, #160]	; 0xa0
    bde6:	3301      	adds	r3, #1
    bde8:	f10c 0c02 	add.w	ip, ip, #2
    bdec:	a920      	add	r1, sp, #128	; 0x80
    bdee:	2202      	movs	r2, #2
    bdf0:	2b07      	cmp	r3, #7
    bdf2:	f8cd c0a4 	str.w	ip, [sp, #164]	; 0xa4
    bdf6:	9328      	str	r3, [sp, #160]	; 0xa0
    bdf8:	e886 0006 	stmia.w	r6, {r1, r2}
    bdfc:	f300 8394 	bgt.w	c528 <_svfprintf_r+0xb68>
    be00:	3608      	adds	r6, #8
    be02:	9d0f      	ldr	r5, [sp, #60]	; 0x3c
    be04:	2d80      	cmp	r5, #128	; 0x80
    be06:	f000 82cb 	beq.w	c3a0 <_svfprintf_r+0x9e0>
    be0a:	9d06      	ldr	r5, [sp, #24]
    be0c:	ebc4 0a05 	rsb	sl, r4, r5
    be10:	f1ba 0f00 	cmp.w	sl, #0
    be14:	dd3b      	ble.n	be8e <_svfprintf_r+0x4ce>
    be16:	f1ba 0f10 	cmp.w	sl, #16
    be1a:	9b28      	ldr	r3, [sp, #160]	; 0xa0
    be1c:	4d2f      	ldr	r5, [pc, #188]	; (bedc <_svfprintf_r+0x51c>)
    be1e:	dd2b      	ble.n	be78 <_svfprintf_r+0x4b8>
    be20:	9406      	str	r4, [sp, #24]
    be22:	4632      	mov	r2, r6
    be24:	f04f 0b10 	mov.w	fp, #16
    be28:	462e      	mov	r6, r5
    be2a:	4661      	mov	r1, ip
    be2c:	9c09      	ldr	r4, [sp, #36]	; 0x24
    be2e:	9d08      	ldr	r5, [sp, #32]
    be30:	e006      	b.n	be40 <_svfprintf_r+0x480>
    be32:	f1aa 0a10 	sub.w	sl, sl, #16
    be36:	f1ba 0f10 	cmp.w	sl, #16
    be3a:	f102 0208 	add.w	r2, r2, #8
    be3e:	dd17      	ble.n	be70 <_svfprintf_r+0x4b0>
    be40:	3301      	adds	r3, #1
    be42:	3110      	adds	r1, #16
    be44:	2b07      	cmp	r3, #7
    be46:	9129      	str	r1, [sp, #164]	; 0xa4
    be48:	9328      	str	r3, [sp, #160]	; 0xa0
    be4a:	e882 0840 	stmia.w	r2, {r6, fp}
    be4e:	ddf0      	ble.n	be32 <_svfprintf_r+0x472>
    be50:	4620      	mov	r0, r4
    be52:	4629      	mov	r1, r5
    be54:	aa27      	add	r2, sp, #156	; 0x9c
    be56:	f004 fdbd 	bl	109d4 <__ssprint_r>
    be5a:	2800      	cmp	r0, #0
    be5c:	f47f aec7 	bne.w	bbee <_svfprintf_r+0x22e>
    be60:	f1aa 0a10 	sub.w	sl, sl, #16
    be64:	f1ba 0f10 	cmp.w	sl, #16
    be68:	9929      	ldr	r1, [sp, #164]	; 0xa4
    be6a:	9b28      	ldr	r3, [sp, #160]	; 0xa0
    be6c:	aa34      	add	r2, sp, #208	; 0xd0
    be6e:	dce7      	bgt.n	be40 <_svfprintf_r+0x480>
    be70:	9c06      	ldr	r4, [sp, #24]
    be72:	4635      	mov	r5, r6
    be74:	468c      	mov	ip, r1
    be76:	4616      	mov	r6, r2
    be78:	3301      	adds	r3, #1
    be7a:	44d4      	add	ip, sl
    be7c:	2b07      	cmp	r3, #7
    be7e:	f8cd c0a4 	str.w	ip, [sp, #164]	; 0xa4
    be82:	9328      	str	r3, [sp, #160]	; 0xa0
    be84:	e886 0420 	stmia.w	r6, {r5, sl}
    be88:	f300 8336 	bgt.w	c4f8 <_svfprintf_r+0xb38>
    be8c:	3608      	adds	r6, #8
    be8e:	9d05      	ldr	r5, [sp, #20]
    be90:	05ed      	lsls	r5, r5, #23
    be92:	f100 8225 	bmi.w	c2e0 <_svfprintf_r+0x920>
    be96:	9b28      	ldr	r3, [sp, #160]	; 0xa0
    be98:	6037      	str	r7, [r6, #0]
    be9a:	3301      	adds	r3, #1
    be9c:	44a4      	add	ip, r4
    be9e:	2b07      	cmp	r3, #7
    bea0:	f8cd c0a4 	str.w	ip, [sp, #164]	; 0xa4
    bea4:	6074      	str	r4, [r6, #4]
    bea6:	9328      	str	r3, [sp, #160]	; 0xa0
    bea8:	f300 8310 	bgt.w	c4cc <_svfprintf_r+0xb0c>
    beac:	3608      	adds	r6, #8
    beae:	9c05      	ldr	r4, [sp, #20]
    beb0:	0763      	lsls	r3, r4, #29
    beb2:	d548      	bpl.n	bf46 <_svfprintf_r+0x586>
    beb4:	9d0b      	ldr	r5, [sp, #44]	; 0x2c
    beb6:	9807      	ldr	r0, [sp, #28]
    beb8:	1a2c      	subs	r4, r5, r0
    beba:	2c00      	cmp	r4, #0
    bebc:	dd43      	ble.n	bf46 <_svfprintf_r+0x586>
    bebe:	2c10      	cmp	r4, #16
    bec0:	9b28      	ldr	r3, [sp, #160]	; 0xa0
    bec2:	f8df a01c 	ldr.w	sl, [pc, #28]	; bee0 <_svfprintf_r+0x520>
    bec6:	dd2a      	ble.n	bf1e <_svfprintf_r+0x55e>
    bec8:	4657      	mov	r7, sl
    beca:	2510      	movs	r5, #16
    becc:	4662      	mov	r2, ip
    bece:	f8dd 8020 	ldr.w	r8, [sp, #32]
    bed2:	f8dd a024 	ldr.w	sl, [sp, #36]	; 0x24
    bed6:	e00a      	b.n	beee <_svfprintf_r+0x52e>
    bed8:	00011778 	.word	0x00011778
    bedc:	00011744 	.word	0x00011744
    bee0:	00011798 	.word	0x00011798
    bee4:	3c10      	subs	r4, #16
    bee6:	2c10      	cmp	r4, #16
    bee8:	f106 0608 	add.w	r6, r6, #8
    beec:	dd15      	ble.n	bf1a <_svfprintf_r+0x55a>
    beee:	3301      	adds	r3, #1
    bef0:	3210      	adds	r2, #16
    bef2:	2b07      	cmp	r3, #7
    bef4:	9229      	str	r2, [sp, #164]	; 0xa4
    bef6:	9328      	str	r3, [sp, #160]	; 0xa0
    bef8:	6037      	str	r7, [r6, #0]
    befa:	6075      	str	r5, [r6, #4]
    befc:	ddf2      	ble.n	bee4 <_svfprintf_r+0x524>
    befe:	4650      	mov	r0, sl
    bf00:	4641      	mov	r1, r8
    bf02:	aa27      	add	r2, sp, #156	; 0x9c
    bf04:	f004 fd66 	bl	109d4 <__ssprint_r>
    bf08:	2800      	cmp	r0, #0
    bf0a:	f47f ae70 	bne.w	bbee <_svfprintf_r+0x22e>
    bf0e:	3c10      	subs	r4, #16
    bf10:	2c10      	cmp	r4, #16
    bf12:	9a29      	ldr	r2, [sp, #164]	; 0xa4
    bf14:	9b28      	ldr	r3, [sp, #160]	; 0xa0
    bf16:	ae34      	add	r6, sp, #208	; 0xd0
    bf18:	dce9      	bgt.n	beee <_svfprintf_r+0x52e>
    bf1a:	4694      	mov	ip, r2
    bf1c:	46ba      	mov	sl, r7
    bf1e:	3301      	adds	r3, #1
    bf20:	44a4      	add	ip, r4
    bf22:	2b07      	cmp	r3, #7
    bf24:	f8cd c0a4 	str.w	ip, [sp, #164]	; 0xa4
    bf28:	9328      	str	r3, [sp, #160]	; 0xa0
    bf2a:	f8c6 a000 	str.w	sl, [r6]
    bf2e:	6074      	str	r4, [r6, #4]
    bf30:	dd09      	ble.n	bf46 <_svfprintf_r+0x586>
    bf32:	9809      	ldr	r0, [sp, #36]	; 0x24
    bf34:	9908      	ldr	r1, [sp, #32]
    bf36:	aa27      	add	r2, sp, #156	; 0x9c
    bf38:	f004 fd4c 	bl	109d4 <__ssprint_r>
    bf3c:	2800      	cmp	r0, #0
    bf3e:	f47f ae56 	bne.w	bbee <_svfprintf_r+0x22e>
    bf42:	f8dd c0a4 	ldr.w	ip, [sp, #164]	; 0xa4
    bf46:	9c0a      	ldr	r4, [sp, #40]	; 0x28
    bf48:	9807      	ldr	r0, [sp, #28]
    bf4a:	9d0b      	ldr	r5, [sp, #44]	; 0x2c
    bf4c:	42a8      	cmp	r0, r5
    bf4e:	bfac      	ite	ge
    bf50:	1824      	addge	r4, r4, r0
    bf52:	1964      	addlt	r4, r4, r5
    bf54:	940a      	str	r4, [sp, #40]	; 0x28
    bf56:	f1bc 0f00 	cmp.w	ip, #0
    bf5a:	f040 82c3 	bne.w	c4e4 <_svfprintf_r+0xb24>
    bf5e:	2300      	movs	r3, #0
    bf60:	9328      	str	r3, [sp, #160]	; 0xa0
    bf62:	ae34      	add	r6, sp, #208	; 0xd0
    bf64:	e551      	b.n	ba0a <_svfprintf_r+0x4a>
    bf66:	f899 8000 	ldrb.w	r8, [r9]
    bf6a:	2a00      	cmp	r2, #0
    bf6c:	f47f ad83 	bne.w	ba76 <_svfprintf_r+0xb6>
    bf70:	2220      	movs	r2, #32
    bf72:	e580      	b.n	ba76 <_svfprintf_r+0xb6>
    bf74:	9d05      	ldr	r5, [sp, #20]
    bf76:	f045 0501 	orr.w	r5, r5, #1
    bf7a:	9505      	str	r5, [sp, #20]
    bf7c:	f899 8000 	ldrb.w	r8, [r9]
    bf80:	e579      	b.n	ba76 <_svfprintf_r+0xb6>
    bf82:	9d05      	ldr	r5, [sp, #20]
    bf84:	f045 0580 	orr.w	r5, r5, #128	; 0x80
    bf88:	9505      	str	r5, [sp, #20]
    bf8a:	f899 8000 	ldrb.w	r8, [r9]
    bf8e:	e572      	b.n	ba76 <_svfprintf_r+0xb6>
    bf90:	2400      	movs	r4, #0
    bf92:	f1a8 0330 	sub.w	r3, r8, #48	; 0x30
    bf96:	940b      	str	r4, [sp, #44]	; 0x2c
    bf98:	4621      	mov	r1, r4
    bf9a:	f819 8b01 	ldrb.w	r8, [r9], #1
    bf9e:	eb01 0181 	add.w	r1, r1, r1, lsl #2
    bfa2:	eb03 0141 	add.w	r1, r3, r1, lsl #1
    bfa6:	f1a8 0330 	sub.w	r3, r8, #48	; 0x30
    bfaa:	2b09      	cmp	r3, #9
    bfac:	d9f5      	bls.n	bf9a <_svfprintf_r+0x5da>
    bfae:	910b      	str	r1, [sp, #44]	; 0x2c
    bfb0:	e563      	b.n	ba7a <_svfprintf_r+0xba>
    bfb2:	f8dd c014 	ldr.w	ip, [sp, #20]
    bfb6:	f88d 207f 	strb.w	r2, [sp, #127]	; 0x7f
    bfba:	f04c 0c10 	orr.w	ip, ip, #16
    bfbe:	f8cd c014 	str.w	ip, [sp, #20]
    bfc2:	9c05      	ldr	r4, [sp, #20]
    bfc4:	06a3      	lsls	r3, r4, #26
    bfc6:	f140 80b2 	bpl.w	c12e <_svfprintf_r+0x76e>
    bfca:	9d0c      	ldr	r5, [sp, #48]	; 0x30
    bfcc:	1de9      	adds	r1, r5, #7
    bfce:	f021 0107 	bic.w	r1, r1, #7
    bfd2:	e9d1 2300 	ldrd	r2, r3, [r1]
    bfd6:	3108      	adds	r1, #8
    bfd8:	910c      	str	r1, [sp, #48]	; 0x30
    bfda:	4614      	mov	r4, r2
    bfdc:	461d      	mov	r5, r3
    bfde:	2a00      	cmp	r2, #0
    bfe0:	f173 0000 	sbcs.w	r0, r3, #0
    bfe4:	f2c0 838b 	blt.w	c6fe <_svfprintf_r+0xd3e>
    bfe8:	f89d a07f 	ldrb.w	sl, [sp, #127]	; 0x7f
    bfec:	2301      	movs	r3, #1
    bfee:	e65a      	b.n	bca6 <_svfprintf_r+0x2e6>
    bff0:	9d05      	ldr	r5, [sp, #20]
    bff2:	4cb7      	ldr	r4, [pc, #732]	; (c2d0 <_svfprintf_r+0x910>)
    bff4:	f88d 207f 	strb.w	r2, [sp, #127]	; 0x7f
    bff8:	06af      	lsls	r7, r5, #26
    bffa:	9416      	str	r4, [sp, #88]	; 0x58
    bffc:	f53f ae30 	bmi.w	bc60 <_svfprintf_r+0x2a0>
    c000:	9d05      	ldr	r5, [sp, #20]
    c002:	06ed      	lsls	r5, r5, #27
    c004:	f140 8460 	bpl.w	c8c8 <_svfprintf_r+0xf08>
    c008:	f8dd c030 	ldr.w	ip, [sp, #48]	; 0x30
    c00c:	f8dc 4000 	ldr.w	r4, [ip]
    c010:	f10c 0c04 	add.w	ip, ip, #4
    c014:	f8cd c030 	str.w	ip, [sp, #48]	; 0x30
    c018:	2500      	movs	r5, #0
    c01a:	e62c      	b.n	bc76 <_svfprintf_r+0x2b6>
    c01c:	f8dd c014 	ldr.w	ip, [sp, #20]
    c020:	f88d 207f 	strb.w	r2, [sp, #127]	; 0x7f
    c024:	f01c 0f20 	tst.w	ip, #32
    c028:	f000 8440 	beq.w	c8ac <_svfprintf_r+0xeec>
    c02c:	9c0c      	ldr	r4, [sp, #48]	; 0x30
    c02e:	6821      	ldr	r1, [r4, #0]
    c030:	9c0a      	ldr	r4, [sp, #40]	; 0x28
    c032:	17e5      	asrs	r5, r4, #31
    c034:	462b      	mov	r3, r5
    c036:	9d0c      	ldr	r5, [sp, #48]	; 0x30
    c038:	4622      	mov	r2, r4
    c03a:	3504      	adds	r5, #4
    c03c:	950c      	str	r5, [sp, #48]	; 0x30
    c03e:	e9c1 2300 	strd	r2, r3, [r1]
    c042:	e4e2      	b.n	ba0a <_svfprintf_r+0x4a>
    c044:	9c0c      	ldr	r4, [sp, #48]	; 0x30
    c046:	6827      	ldr	r7, [r4, #0]
    c048:	f04f 0a00 	mov.w	sl, #0
    c04c:	f88d a07f 	strb.w	sl, [sp, #127]	; 0x7f
    c050:	1d25      	adds	r5, r4, #4
    c052:	2f00      	cmp	r7, #0
    c054:	f000 85f5 	beq.w	cc42 <_svfprintf_r+0x1282>
    c058:	9c06      	ldr	r4, [sp, #24]
    c05a:	2c00      	cmp	r4, #0
    c05c:	4638      	mov	r0, r7
    c05e:	f2c0 858b 	blt.w	cb78 <_svfprintf_r+0x11b8>
    c062:	4651      	mov	r1, sl
    c064:	4622      	mov	r2, r4
    c066:	f003 fedf 	bl	fe28 <memchr>
    c06a:	2800      	cmp	r0, #0
    c06c:	f000 865a 	beq.w	cd24 <_svfprintf_r+0x1364>
    c070:	9c06      	ldr	r4, [sp, #24]
    c072:	950c      	str	r5, [sp, #48]	; 0x30
    c074:	1bc0      	subs	r0, r0, r7
    c076:	42a0      	cmp	r0, r4
    c078:	bfb8      	it	lt
    c07a:	4604      	movlt	r4, r0
    c07c:	ea24 75e4 	bic.w	r5, r4, r4, asr #31
    c080:	f8cd a018 	str.w	sl, [sp, #24]
    c084:	f8cd a040 	str.w	sl, [sp, #64]	; 0x40
    c088:	9507      	str	r5, [sp, #28]
    c08a:	f89d a07f 	ldrb.w	sl, [sp, #127]	; 0x7f
    c08e:	e633      	b.n	bcf8 <_svfprintf_r+0x338>
    c090:	f8dd c014 	ldr.w	ip, [sp, #20]
    c094:	f04c 0c40 	orr.w	ip, ip, #64	; 0x40
    c098:	f8cd c014 	str.w	ip, [sp, #20]
    c09c:	f899 8000 	ldrb.w	r8, [r9]
    c0a0:	e4e9      	b.n	ba76 <_svfprintf_r+0xb6>
    c0a2:	f899 8000 	ldrb.w	r8, [r9]
    c0a6:	f1b8 0f6c 	cmp.w	r8, #108	; 0x6c
    c0aa:	464b      	mov	r3, r9
    c0ac:	f000 848f 	beq.w	c9ce <_svfprintf_r+0x100e>
    c0b0:	9d05      	ldr	r5, [sp, #20]
    c0b2:	f045 0510 	orr.w	r5, r5, #16
    c0b6:	9505      	str	r5, [sp, #20]
    c0b8:	e4dd      	b.n	ba76 <_svfprintf_r+0xb6>
    c0ba:	9c0c      	ldr	r4, [sp, #48]	; 0x30
    c0bc:	9d0c      	ldr	r5, [sp, #48]	; 0x30
    c0be:	6824      	ldr	r4, [r4, #0]
    c0c0:	940b      	str	r4, [sp, #44]	; 0x2c
    c0c2:	2c00      	cmp	r4, #0
    c0c4:	f105 0304 	add.w	r3, r5, #4
    c0c8:	f6ff ad77 	blt.w	bbba <_svfprintf_r+0x1fa>
    c0cc:	930c      	str	r3, [sp, #48]	; 0x30
    c0ce:	f899 8000 	ldrb.w	r8, [r9]
    c0d2:	e4d0      	b.n	ba76 <_svfprintf_r+0xb6>
    c0d4:	9a0c      	ldr	r2, [sp, #48]	; 0x30
    c0d6:	f8dd c014 	ldr.w	ip, [sp, #20]
    c0da:	487e      	ldr	r0, [pc, #504]	; (c2d4 <_svfprintf_r+0x914>)
    c0dc:	6814      	ldr	r4, [r2, #0]
    c0de:	9016      	str	r0, [sp, #88]	; 0x58
    c0e0:	2330      	movs	r3, #48	; 0x30
    c0e2:	1d15      	adds	r5, r2, #4
    c0e4:	f04f 0878 	mov.w	r8, #120	; 0x78
    c0e8:	f04c 0c02 	orr.w	ip, ip, #2
    c0ec:	f88d 3080 	strb.w	r3, [sp, #128]	; 0x80
    c0f0:	950c      	str	r5, [sp, #48]	; 0x30
    c0f2:	f8cd c014 	str.w	ip, [sp, #20]
    c0f6:	2500      	movs	r5, #0
    c0f8:	f88d 8081 	strb.w	r8, [sp, #129]	; 0x81
    c0fc:	2302      	movs	r3, #2
    c0fe:	e5ce      	b.n	bc9e <_svfprintf_r+0x2de>
    c100:	9a0c      	ldr	r2, [sp, #48]	; 0x30
    c102:	9d0c      	ldr	r5, [sp, #48]	; 0x30
    c104:	6812      	ldr	r2, [r2, #0]
    c106:	f88d 20a8 	strb.w	r2, [sp, #168]	; 0xa8
    c10a:	2300      	movs	r3, #0
    c10c:	2401      	movs	r4, #1
    c10e:	3504      	adds	r5, #4
    c110:	469a      	mov	sl, r3
    c112:	9407      	str	r4, [sp, #28]
    c114:	950c      	str	r5, [sp, #48]	; 0x30
    c116:	f88d 307f 	strb.w	r3, [sp, #127]	; 0x7f
    c11a:	9306      	str	r3, [sp, #24]
    c11c:	9310      	str	r3, [sp, #64]	; 0x40
    c11e:	af2a      	add	r7, sp, #168	; 0xa8
    c120:	e5f0      	b.n	bd04 <_svfprintf_r+0x344>
    c122:	9c05      	ldr	r4, [sp, #20]
    c124:	f88d 207f 	strb.w	r2, [sp, #127]	; 0x7f
    c128:	06a3      	lsls	r3, r4, #26
    c12a:	f53f af4e 	bmi.w	bfca <_svfprintf_r+0x60a>
    c12e:	f8dd c014 	ldr.w	ip, [sp, #20]
    c132:	f01c 0f10 	tst.w	ip, #16
    c136:	f040 82d2 	bne.w	c6de <_svfprintf_r+0xd1e>
    c13a:	9c05      	ldr	r4, [sp, #20]
    c13c:	0667      	lsls	r7, r4, #25
    c13e:	f140 82ce 	bpl.w	c6de <_svfprintf_r+0xd1e>
    c142:	f8dd c030 	ldr.w	ip, [sp, #48]	; 0x30
    c146:	f9bc 4000 	ldrsh.w	r4, [ip]
    c14a:	f10c 0c04 	add.w	ip, ip, #4
    c14e:	17e5      	asrs	r5, r4, #31
    c150:	4622      	mov	r2, r4
    c152:	462b      	mov	r3, r5
    c154:	f8cd c030 	str.w	ip, [sp, #48]	; 0x30
    c158:	e741      	b.n	bfde <_svfprintf_r+0x61e>
    c15a:	f899 8000 	ldrb.w	r8, [r9]
    c15e:	222b      	movs	r2, #43	; 0x2b
    c160:	e489      	b.n	ba76 <_svfprintf_r+0xb6>
    c162:	9d05      	ldr	r5, [sp, #20]
    c164:	f045 0508 	orr.w	r5, r5, #8
    c168:	9505      	str	r5, [sp, #20]
    c16a:	f899 8000 	ldrb.w	r8, [r9]
    c16e:	e482      	b.n	ba76 <_svfprintf_r+0xb6>
    c170:	9c05      	ldr	r4, [sp, #20]
    c172:	f88d 207f 	strb.w	r2, [sp, #127]	; 0x7f
    c176:	0725      	lsls	r5, r4, #28
    c178:	f140 838d 	bpl.w	c896 <_svfprintf_r+0xed6>
    c17c:	9d0c      	ldr	r5, [sp, #48]	; 0x30
    c17e:	1deb      	adds	r3, r5, #7
    c180:	f023 0307 	bic.w	r3, r3, #7
    c184:	ed93 7b00 	vldr	d7, [r3]
    c188:	ed8d 7b12 	vstr	d7, [sp, #72]	; 0x48
    c18c:	f103 0c08 	add.w	ip, r3, #8
    c190:	f8cd c030 	str.w	ip, [sp, #48]	; 0x30
    c194:	ed9d 0b12 	vldr	d0, [sp, #72]	; 0x48
    c198:	f7fd ff0a 	bl	9fb0 <__fpclassifyd>
    c19c:	2801      	cmp	r0, #1
    c19e:	f040 8361 	bne.w	c864 <_svfprintf_r+0xea4>
    c1a2:	e9dd 0112 	ldrd	r0, r1, [sp, #72]	; 0x48
    c1a6:	2200      	movs	r2, #0
    c1a8:	2300      	movs	r3, #0
    c1aa:	f7fe fb55 	bl	a858 <__aeabi_dcmplt>
    c1ae:	2800      	cmp	r0, #0
    c1b0:	f040 8575 	bne.w	cc9e <_svfprintf_r+0x12de>
    c1b4:	f89d a07f 	ldrb.w	sl, [sp, #127]	; 0x7f
    c1b8:	f8dd c014 	ldr.w	ip, [sp, #20]
    c1bc:	4f46      	ldr	r7, [pc, #280]	; (c2d8 <_svfprintf_r+0x918>)
    c1be:	4b47      	ldr	r3, [pc, #284]	; (c2dc <_svfprintf_r+0x91c>)
    c1c0:	2500      	movs	r5, #0
    c1c2:	2403      	movs	r4, #3
    c1c4:	f02c 0c80 	bic.w	ip, ip, #128	; 0x80
    c1c8:	9407      	str	r4, [sp, #28]
    c1ca:	9506      	str	r5, [sp, #24]
    c1cc:	f8cd c014 	str.w	ip, [sp, #20]
    c1d0:	f1b8 0f47 	cmp.w	r8, #71	; 0x47
    c1d4:	bfd8      	it	le
    c1d6:	461f      	movle	r7, r3
    c1d8:	9510      	str	r5, [sp, #64]	; 0x40
    c1da:	e58d      	b.n	bcf8 <_svfprintf_r+0x338>
    c1dc:	f8dd c014 	ldr.w	ip, [sp, #20]
    c1e0:	f04c 0c20 	orr.w	ip, ip, #32
    c1e4:	f8cd c014 	str.w	ip, [sp, #20]
    c1e8:	f899 8000 	ldrb.w	r8, [r9]
    c1ec:	e443      	b.n	ba76 <_svfprintf_r+0xb6>
    c1ee:	9c0c      	ldr	r4, [sp, #48]	; 0x30
    c1f0:	1de3      	adds	r3, r4, #7
    c1f2:	f023 0307 	bic.w	r3, r3, #7
    c1f6:	f103 0508 	add.w	r5, r3, #8
    c1fa:	950c      	str	r5, [sp, #48]	; 0x30
    c1fc:	e9d3 4500 	ldrd	r4, r5, [r3]
    c200:	2300      	movs	r3, #0
    c202:	e54c      	b.n	bc9e <_svfprintf_r+0x2de>
    c204:	9d0c      	ldr	r5, [sp, #48]	; 0x30
    c206:	1deb      	adds	r3, r5, #7
    c208:	f023 0307 	bic.w	r3, r3, #7
    c20c:	f103 0c08 	add.w	ip, r3, #8
    c210:	e9d3 4500 	ldrd	r4, r5, [r3]
    c214:	f8cd c030 	str.w	ip, [sp, #48]	; 0x30
    c218:	2301      	movs	r3, #1
    c21a:	e540      	b.n	bc9e <_svfprintf_r+0x2de>
    c21c:	f88d 207f 	strb.w	r2, [sp, #127]	; 0x7f
    c220:	f1b8 0f00 	cmp.w	r8, #0
    c224:	f43f acdc 	beq.w	bbe0 <_svfprintf_r+0x220>
    c228:	2300      	movs	r3, #0
    c22a:	f04f 0c01 	mov.w	ip, #1
    c22e:	469a      	mov	sl, r3
    c230:	f8cd c01c 	str.w	ip, [sp, #28]
    c234:	f88d 80a8 	strb.w	r8, [sp, #168]	; 0xa8
    c238:	f88d 307f 	strb.w	r3, [sp, #127]	; 0x7f
    c23c:	9306      	str	r3, [sp, #24]
    c23e:	9310      	str	r3, [sp, #64]	; 0x40
    c240:	4664      	mov	r4, ip
    c242:	af2a      	add	r7, sp, #168	; 0xa8
    c244:	e55e      	b.n	bd04 <_svfprintf_r+0x344>
    c246:	f8dd c0a4 	ldr.w	ip, [sp, #164]	; 0xa4
    c24a:	e5b6      	b.n	bdba <_svfprintf_r+0x3fa>
    c24c:	2b01      	cmp	r3, #1
    c24e:	f000 80ec 	beq.w	c42a <_svfprintf_r+0xa6a>
    c252:	2b02      	cmp	r3, #2
    c254:	f10d 03cf 	add.w	r3, sp, #207	; 0xcf
    c258:	d118      	bne.n	c28c <_svfprintf_r+0x8cc>
    c25a:	f8dd c058 	ldr.w	ip, [sp, #88]	; 0x58
    c25e:	4619      	mov	r1, r3
    c260:	f004 000f 	and.w	r0, r4, #15
    c264:	0922      	lsrs	r2, r4, #4
    c266:	ea42 7205 	orr.w	r2, r2, r5, lsl #28
    c26a:	460f      	mov	r7, r1
    c26c:	092b      	lsrs	r3, r5, #4
    c26e:	f81c 1000 	ldrb.w	r1, [ip, r0]
    c272:	7039      	strb	r1, [r7, #0]
    c274:	ea52 0003 	orrs.w	r0, r2, r3
    c278:	4614      	mov	r4, r2
    c27a:	461d      	mov	r5, r3
    c27c:	f107 31ff 	add.w	r1, r7, #4294967295	; 0xffffffff
    c280:	d1ee      	bne.n	c260 <_svfprintf_r+0x8a0>
    c282:	9d04      	ldr	r5, [sp, #16]
    c284:	e9cd 231a 	strd	r2, r3, [sp, #104]	; 0x68
    c288:	1bec      	subs	r4, r5, r7
    c28a:	e52c      	b.n	bce6 <_svfprintf_r+0x326>
    c28c:	08e0      	lsrs	r0, r4, #3
    c28e:	ea40 7045 	orr.w	r0, r0, r5, lsl #29
    c292:	f004 0207 	and.w	r2, r4, #7
    c296:	08e9      	lsrs	r1, r5, #3
    c298:	3230      	adds	r2, #48	; 0x30
    c29a:	ea50 0c01 	orrs.w	ip, r0, r1
    c29e:	461f      	mov	r7, r3
    c2a0:	701a      	strb	r2, [r3, #0]
    c2a2:	4604      	mov	r4, r0
    c2a4:	460d      	mov	r5, r1
    c2a6:	f103 33ff 	add.w	r3, r3, #4294967295	; 0xffffffff
    c2aa:	d1ef      	bne.n	c28c <_svfprintf_r+0x8cc>
    c2ac:	9c05      	ldr	r4, [sp, #20]
    c2ae:	e9cd 0118 	strd	r0, r1, [sp, #96]	; 0x60
    c2b2:	07e0      	lsls	r0, r4, #31
    c2b4:	4639      	mov	r1, r7
    c2b6:	f140 80c1 	bpl.w	c43c <_svfprintf_r+0xa7c>
    c2ba:	2a30      	cmp	r2, #48	; 0x30
    c2bc:	f000 80be 	beq.w	c43c <_svfprintf_r+0xa7c>
    c2c0:	9d04      	ldr	r5, [sp, #16]
    c2c2:	461f      	mov	r7, r3
    c2c4:	2330      	movs	r3, #48	; 0x30
    c2c6:	1bec      	subs	r4, r5, r7
    c2c8:	f801 3c01 	strb.w	r3, [r1, #-1]
    c2cc:	e50b      	b.n	bce6 <_svfprintf_r+0x326>
    c2ce:	bf00      	nop
    c2d0:	00011764 	.word	0x00011764
    c2d4:	00011778 	.word	0x00011778
    c2d8:	00011758 	.word	0x00011758
    c2dc:	00011754 	.word	0x00011754
    c2e0:	f1b8 0f65 	cmp.w	r8, #101	; 0x65
    c2e4:	f340 80ad 	ble.w	c442 <_svfprintf_r+0xa82>
    c2e8:	e9dd 0112 	ldrd	r0, r1, [sp, #72]	; 0x48
    c2ec:	2200      	movs	r2, #0
    c2ee:	2300      	movs	r3, #0
    c2f0:	f8cd c00c 	str.w	ip, [sp, #12]
    c2f4:	f7fe faa6 	bl	a844 <__aeabi_dcmpeq>
    c2f8:	f8dd c00c 	ldr.w	ip, [sp, #12]
    c2fc:	2800      	cmp	r0, #0
    c2fe:	f000 8126 	beq.w	c54e <_svfprintf_r+0xb8e>
    c302:	9b28      	ldr	r3, [sp, #160]	; 0xa0
    c304:	4aaa      	ldr	r2, [pc, #680]	; (c5b0 <_svfprintf_r+0xbf0>)
    c306:	6032      	str	r2, [r6, #0]
    c308:	3301      	adds	r3, #1
    c30a:	f10c 0c01 	add.w	ip, ip, #1
    c30e:	2201      	movs	r2, #1
    c310:	2b07      	cmp	r3, #7
    c312:	f8cd c0a4 	str.w	ip, [sp, #164]	; 0xa4
    c316:	9328      	str	r3, [sp, #160]	; 0xa0
    c318:	6072      	str	r2, [r6, #4]
    c31a:	f300 82fb 	bgt.w	c914 <_svfprintf_r+0xf54>
    c31e:	3608      	adds	r6, #8
    c320:	9b21      	ldr	r3, [sp, #132]	; 0x84
    c322:	9c0d      	ldr	r4, [sp, #52]	; 0x34
    c324:	42a3      	cmp	r3, r4
    c326:	db03      	blt.n	c330 <_svfprintf_r+0x970>
    c328:	9d05      	ldr	r5, [sp, #20]
    c32a:	07ec      	lsls	r4, r5, #31
    c32c:	f57f adbf 	bpl.w	beae <_svfprintf_r+0x4ee>
    c330:	9b28      	ldr	r3, [sp, #160]	; 0xa0
    c332:	9d14      	ldr	r5, [sp, #80]	; 0x50
    c334:	9c11      	ldr	r4, [sp, #68]	; 0x44
    c336:	6034      	str	r4, [r6, #0]
    c338:	3301      	adds	r3, #1
    c33a:	44ac      	add	ip, r5
    c33c:	2b07      	cmp	r3, #7
    c33e:	f8cd c0a4 	str.w	ip, [sp, #164]	; 0xa4
    c342:	6075      	str	r5, [r6, #4]
    c344:	9328      	str	r3, [sp, #160]	; 0xa0
    c346:	f300 834c 	bgt.w	c9e2 <_svfprintf_r+0x1022>
    c34a:	3608      	adds	r6, #8
    c34c:	9d0d      	ldr	r5, [sp, #52]	; 0x34
    c34e:	1e6c      	subs	r4, r5, #1
    c350:	2c00      	cmp	r4, #0
    c352:	f77f adac 	ble.w	beae <_svfprintf_r+0x4ee>
    c356:	2c10      	cmp	r4, #16
    c358:	9b28      	ldr	r3, [sp, #160]	; 0xa0
    c35a:	4d96      	ldr	r5, [pc, #600]	; (c5b4 <_svfprintf_r+0xbf4>)
    c35c:	f340 8197 	ble.w	c68e <_svfprintf_r+0xcce>
    c360:	2710      	movs	r7, #16
    c362:	4662      	mov	r2, ip
    c364:	f8dd 8024 	ldr.w	r8, [sp, #36]	; 0x24
    c368:	f8dd a020 	ldr.w	sl, [sp, #32]
    c36c:	e004      	b.n	c378 <_svfprintf_r+0x9b8>
    c36e:	3608      	adds	r6, #8
    c370:	3c10      	subs	r4, #16
    c372:	2c10      	cmp	r4, #16
    c374:	f340 818a 	ble.w	c68c <_svfprintf_r+0xccc>
    c378:	3301      	adds	r3, #1
    c37a:	3210      	adds	r2, #16
    c37c:	2b07      	cmp	r3, #7
    c37e:	9229      	str	r2, [sp, #164]	; 0xa4
    c380:	9328      	str	r3, [sp, #160]	; 0xa0
    c382:	e886 00a0 	stmia.w	r6, {r5, r7}
    c386:	ddf2      	ble.n	c36e <_svfprintf_r+0x9ae>
    c388:	4640      	mov	r0, r8
    c38a:	4651      	mov	r1, sl
    c38c:	aa27      	add	r2, sp, #156	; 0x9c
    c38e:	f004 fb21 	bl	109d4 <__ssprint_r>
    c392:	2800      	cmp	r0, #0
    c394:	f47f ac2b 	bne.w	bbee <_svfprintf_r+0x22e>
    c398:	9a29      	ldr	r2, [sp, #164]	; 0xa4
    c39a:	9b28      	ldr	r3, [sp, #160]	; 0xa0
    c39c:	ae34      	add	r6, sp, #208	; 0xd0
    c39e:	e7e7      	b.n	c370 <_svfprintf_r+0x9b0>
    c3a0:	9d0b      	ldr	r5, [sp, #44]	; 0x2c
    c3a2:	9807      	ldr	r0, [sp, #28]
    c3a4:	ebc0 0a05 	rsb	sl, r0, r5
    c3a8:	f1ba 0f00 	cmp.w	sl, #0
    c3ac:	f77f ad2d 	ble.w	be0a <_svfprintf_r+0x44a>
    c3b0:	f1ba 0f10 	cmp.w	sl, #16
    c3b4:	9b28      	ldr	r3, [sp, #160]	; 0xa0
    c3b6:	4d7f      	ldr	r5, [pc, #508]	; (c5b4 <_svfprintf_r+0xbf4>)
    c3b8:	dd2b      	ble.n	c412 <_svfprintf_r+0xa52>
    c3ba:	940e      	str	r4, [sp, #56]	; 0x38
    c3bc:	4632      	mov	r2, r6
    c3be:	f04f 0b10 	mov.w	fp, #16
    c3c2:	462e      	mov	r6, r5
    c3c4:	4661      	mov	r1, ip
    c3c6:	9c09      	ldr	r4, [sp, #36]	; 0x24
    c3c8:	9d08      	ldr	r5, [sp, #32]
    c3ca:	e006      	b.n	c3da <_svfprintf_r+0xa1a>
    c3cc:	f1aa 0a10 	sub.w	sl, sl, #16
    c3d0:	f1ba 0f10 	cmp.w	sl, #16
    c3d4:	f102 0208 	add.w	r2, r2, #8
    c3d8:	dd17      	ble.n	c40a <_svfprintf_r+0xa4a>
    c3da:	3301      	adds	r3, #1
    c3dc:	3110      	adds	r1, #16
    c3de:	2b07      	cmp	r3, #7
    c3e0:	9129      	str	r1, [sp, #164]	; 0xa4
    c3e2:	9328      	str	r3, [sp, #160]	; 0xa0
    c3e4:	e882 0840 	stmia.w	r2, {r6, fp}
    c3e8:	ddf0      	ble.n	c3cc <_svfprintf_r+0xa0c>
    c3ea:	4620      	mov	r0, r4
    c3ec:	4629      	mov	r1, r5
    c3ee:	aa27      	add	r2, sp, #156	; 0x9c
    c3f0:	f004 faf0 	bl	109d4 <__ssprint_r>
    c3f4:	2800      	cmp	r0, #0
    c3f6:	f47f abfa 	bne.w	bbee <_svfprintf_r+0x22e>
    c3fa:	f1aa 0a10 	sub.w	sl, sl, #16
    c3fe:	f1ba 0f10 	cmp.w	sl, #16
    c402:	9929      	ldr	r1, [sp, #164]	; 0xa4
    c404:	9b28      	ldr	r3, [sp, #160]	; 0xa0
    c406:	aa34      	add	r2, sp, #208	; 0xd0
    c408:	dce7      	bgt.n	c3da <_svfprintf_r+0xa1a>
    c40a:	9c0e      	ldr	r4, [sp, #56]	; 0x38
    c40c:	4635      	mov	r5, r6
    c40e:	468c      	mov	ip, r1
    c410:	4616      	mov	r6, r2
    c412:	3301      	adds	r3, #1
    c414:	44d4      	add	ip, sl
    c416:	2b07      	cmp	r3, #7
    c418:	f8cd c0a4 	str.w	ip, [sp, #164]	; 0xa4
    c41c:	9328      	str	r3, [sp, #160]	; 0xa0
    c41e:	e886 0420 	stmia.w	r6, {r5, sl}
    c422:	f300 8212 	bgt.w	c84a <_svfprintf_r+0xe8a>
    c426:	3608      	adds	r6, #8
    c428:	e4ef      	b.n	be0a <_svfprintf_r+0x44a>
    c42a:	2d00      	cmp	r5, #0
    c42c:	bf08      	it	eq
    c42e:	2c0a      	cmpeq	r4, #10
    c430:	f080 8138 	bcs.w	c6a4 <_svfprintf_r+0xce4>
    c434:	af44      	add	r7, sp, #272	; 0x110
    c436:	3430      	adds	r4, #48	; 0x30
    c438:	f807 4d41 	strb.w	r4, [r7, #-65]!
    c43c:	9d04      	ldr	r5, [sp, #16]
    c43e:	1bec      	subs	r4, r5, r7
    c440:	e451      	b.n	bce6 <_svfprintf_r+0x326>
    c442:	9c0d      	ldr	r4, [sp, #52]	; 0x34
    c444:	2c01      	cmp	r4, #1
    c446:	9c28      	ldr	r4, [sp, #160]	; 0xa0
    c448:	f340 81d5 	ble.w	c7f6 <_svfprintf_r+0xe36>
    c44c:	3401      	adds	r4, #1
    c44e:	f10c 0301 	add.w	r3, ip, #1
    c452:	2201      	movs	r2, #1
    c454:	2c07      	cmp	r4, #7
    c456:	6037      	str	r7, [r6, #0]
    c458:	9329      	str	r3, [sp, #164]	; 0xa4
    c45a:	9428      	str	r4, [sp, #160]	; 0xa0
    c45c:	6072      	str	r2, [r6, #4]
    c45e:	f300 81db 	bgt.w	c818 <_svfprintf_r+0xe58>
    c462:	3608      	adds	r6, #8
    c464:	f8dd 8050 	ldr.w	r8, [sp, #80]	; 0x50
    c468:	9d11      	ldr	r5, [sp, #68]	; 0x44
    c46a:	6035      	str	r5, [r6, #0]
    c46c:	3401      	adds	r4, #1
    c46e:	4498      	add	r8, r3
    c470:	9d14      	ldr	r5, [sp, #80]	; 0x50
    c472:	f8cd 80a4 	str.w	r8, [sp, #164]	; 0xa4
    c476:	2c07      	cmp	r4, #7
    c478:	9428      	str	r4, [sp, #160]	; 0xa0
    c47a:	6075      	str	r5, [r6, #4]
    c47c:	f300 81d8 	bgt.w	c830 <_svfprintf_r+0xe70>
    c480:	3608      	adds	r6, #8
    c482:	e9dd 0112 	ldrd	r0, r1, [sp, #72]	; 0x48
    c486:	2200      	movs	r2, #0
    c488:	2300      	movs	r3, #0
    c48a:	f7fe f9db 	bl	a844 <__aeabi_dcmpeq>
    c48e:	9d0d      	ldr	r5, [sp, #52]	; 0x34
    c490:	2800      	cmp	r0, #0
    c492:	f040 80b9 	bne.w	c608 <_svfprintf_r+0xc48>
    c496:	1e6b      	subs	r3, r5, #1
    c498:	3401      	adds	r4, #1
    c49a:	3701      	adds	r7, #1
    c49c:	4498      	add	r8, r3
    c49e:	2c07      	cmp	r4, #7
    c4a0:	9428      	str	r4, [sp, #160]	; 0xa0
    c4a2:	f8cd 80a4 	str.w	r8, [sp, #164]	; 0xa4
    c4a6:	6037      	str	r7, [r6, #0]
    c4a8:	6073      	str	r3, [r6, #4]
    c4aa:	f300 80e2 	bgt.w	c672 <_svfprintf_r+0xcb2>
    c4ae:	3608      	adds	r6, #8
    c4b0:	f8dd c054 	ldr.w	ip, [sp, #84]	; 0x54
    c4b4:	9d15      	ldr	r5, [sp, #84]	; 0x54
    c4b6:	3401      	adds	r4, #1
    c4b8:	44c4      	add	ip, r8
    c4ba:	ab23      	add	r3, sp, #140	; 0x8c
    c4bc:	2c07      	cmp	r4, #7
    c4be:	f8cd c0a4 	str.w	ip, [sp, #164]	; 0xa4
    c4c2:	9428      	str	r4, [sp, #160]	; 0xa0
    c4c4:	e886 0028 	stmia.w	r6, {r3, r5}
    c4c8:	f77f acf0 	ble.w	beac <_svfprintf_r+0x4ec>
    c4cc:	9809      	ldr	r0, [sp, #36]	; 0x24
    c4ce:	9908      	ldr	r1, [sp, #32]
    c4d0:	aa27      	add	r2, sp, #156	; 0x9c
    c4d2:	f004 fa7f 	bl	109d4 <__ssprint_r>
    c4d6:	2800      	cmp	r0, #0
    c4d8:	f47f ab89 	bne.w	bbee <_svfprintf_r+0x22e>
    c4dc:	f8dd c0a4 	ldr.w	ip, [sp, #164]	; 0xa4
    c4e0:	ae34      	add	r6, sp, #208	; 0xd0
    c4e2:	e4e4      	b.n	beae <_svfprintf_r+0x4ee>
    c4e4:	9809      	ldr	r0, [sp, #36]	; 0x24
    c4e6:	9908      	ldr	r1, [sp, #32]
    c4e8:	aa27      	add	r2, sp, #156	; 0x9c
    c4ea:	f004 fa73 	bl	109d4 <__ssprint_r>
    c4ee:	2800      	cmp	r0, #0
    c4f0:	f43f ad35 	beq.w	bf5e <_svfprintf_r+0x59e>
    c4f4:	f7ff bb7b 	b.w	bbee <_svfprintf_r+0x22e>
    c4f8:	9809      	ldr	r0, [sp, #36]	; 0x24
    c4fa:	9908      	ldr	r1, [sp, #32]
    c4fc:	aa27      	add	r2, sp, #156	; 0x9c
    c4fe:	f004 fa69 	bl	109d4 <__ssprint_r>
    c502:	2800      	cmp	r0, #0
    c504:	f47f ab73 	bne.w	bbee <_svfprintf_r+0x22e>
    c508:	f8dd c0a4 	ldr.w	ip, [sp, #164]	; 0xa4
    c50c:	ae34      	add	r6, sp, #208	; 0xd0
    c50e:	e4be      	b.n	be8e <_svfprintf_r+0x4ce>
    c510:	9809      	ldr	r0, [sp, #36]	; 0x24
    c512:	9908      	ldr	r1, [sp, #32]
    c514:	aa27      	add	r2, sp, #156	; 0x9c
    c516:	f004 fa5d 	bl	109d4 <__ssprint_r>
    c51a:	2800      	cmp	r0, #0
    c51c:	f47f ab67 	bne.w	bbee <_svfprintf_r+0x22e>
    c520:	f8dd c0a4 	ldr.w	ip, [sp, #164]	; 0xa4
    c524:	ae34      	add	r6, sp, #208	; 0xd0
    c526:	e45b      	b.n	bde0 <_svfprintf_r+0x420>
    c528:	9809      	ldr	r0, [sp, #36]	; 0x24
    c52a:	9908      	ldr	r1, [sp, #32]
    c52c:	aa27      	add	r2, sp, #156	; 0x9c
    c52e:	f004 fa51 	bl	109d4 <__ssprint_r>
    c532:	2800      	cmp	r0, #0
    c534:	f47f ab5b 	bne.w	bbee <_svfprintf_r+0x22e>
    c538:	f8dd c0a4 	ldr.w	ip, [sp, #164]	; 0xa4
    c53c:	ae34      	add	r6, sp, #208	; 0xd0
    c53e:	e460      	b.n	be02 <_svfprintf_r+0x442>
    c540:	9c06      	ldr	r4, [sp, #24]
    c542:	af34      	add	r7, sp, #208	; 0xd0
    c544:	f7ff bbcf 	b.w	bce6 <_svfprintf_r+0x326>
    c548:	2302      	movs	r3, #2
    c54a:	f7ff bba8 	b.w	bc9e <_svfprintf_r+0x2de>
    c54e:	9b21      	ldr	r3, [sp, #132]	; 0x84
    c550:	2b00      	cmp	r3, #0
    c552:	f340 81eb 	ble.w	c92c <_svfprintf_r+0xf6c>
    c556:	9c0d      	ldr	r4, [sp, #52]	; 0x34
    c558:	9d10      	ldr	r5, [sp, #64]	; 0x40
    c55a:	f8dd a034 	ldr.w	sl, [sp, #52]	; 0x34
    c55e:	42ac      	cmp	r4, r5
    c560:	bfa8      	it	ge
    c562:	462c      	movge	r4, r5
    c564:	2c00      	cmp	r4, #0
    c566:	44ba      	add	sl, r7
    c568:	dd0b      	ble.n	c582 <_svfprintf_r+0xbc2>
    c56a:	9b28      	ldr	r3, [sp, #160]	; 0xa0
    c56c:	6037      	str	r7, [r6, #0]
    c56e:	3301      	adds	r3, #1
    c570:	44a4      	add	ip, r4
    c572:	2b07      	cmp	r3, #7
    c574:	f8cd c0a4 	str.w	ip, [sp, #164]	; 0xa4
    c578:	6074      	str	r4, [r6, #4]
    c57a:	9328      	str	r3, [sp, #160]	; 0xa0
    c57c:	f300 8328 	bgt.w	cbd0 <_svfprintf_r+0x1210>
    c580:	3608      	adds	r6, #8
    c582:	9d10      	ldr	r5, [sp, #64]	; 0x40
    c584:	ea24 74e4 	bic.w	r4, r4, r4, asr #31
    c588:	1b2c      	subs	r4, r5, r4
    c58a:	2c00      	cmp	r4, #0
    c58c:	f340 80db 	ble.w	c746 <_svfprintf_r+0xd86>
    c590:	2c10      	cmp	r4, #16
    c592:	9b28      	ldr	r3, [sp, #160]	; 0xa0
    c594:	4d07      	ldr	r5, [pc, #28]	; (c5b4 <_svfprintf_r+0xbf4>)
    c596:	f340 81b1 	ble.w	c8fc <_svfprintf_r+0xf3c>
    c59a:	9706      	str	r7, [sp, #24]
    c59c:	f04f 0810 	mov.w	r8, #16
    c5a0:	462f      	mov	r7, r5
    c5a2:	4662      	mov	r2, ip
    c5a4:	4625      	mov	r5, r4
    c5a6:	f8dd b024 	ldr.w	fp, [sp, #36]	; 0x24
    c5aa:	9c08      	ldr	r4, [sp, #32]
    c5ac:	e009      	b.n	c5c2 <_svfprintf_r+0xc02>
    c5ae:	bf00      	nop
    c5b0:	00011794 	.word	0x00011794
    c5b4:	00011744 	.word	0x00011744
    c5b8:	3608      	adds	r6, #8
    c5ba:	3d10      	subs	r5, #16
    c5bc:	2d10      	cmp	r5, #16
    c5be:	f340 8199 	ble.w	c8f4 <_svfprintf_r+0xf34>
    c5c2:	3301      	adds	r3, #1
    c5c4:	3210      	adds	r2, #16
    c5c6:	2b07      	cmp	r3, #7
    c5c8:	9229      	str	r2, [sp, #164]	; 0xa4
    c5ca:	9328      	str	r3, [sp, #160]	; 0xa0
    c5cc:	e886 0180 	stmia.w	r6, {r7, r8}
    c5d0:	ddf2      	ble.n	c5b8 <_svfprintf_r+0xbf8>
    c5d2:	4658      	mov	r0, fp
    c5d4:	4621      	mov	r1, r4
    c5d6:	aa27      	add	r2, sp, #156	; 0x9c
    c5d8:	f004 f9fc 	bl	109d4 <__ssprint_r>
    c5dc:	2800      	cmp	r0, #0
    c5de:	f47f ab06 	bne.w	bbee <_svfprintf_r+0x22e>
    c5e2:	9a29      	ldr	r2, [sp, #164]	; 0xa4
    c5e4:	9b28      	ldr	r3, [sp, #160]	; 0xa0
    c5e6:	ae34      	add	r6, sp, #208	; 0xd0
    c5e8:	e7e7      	b.n	c5ba <_svfprintf_r+0xbfa>
    c5ea:	9809      	ldr	r0, [sp, #36]	; 0x24
    c5ec:	9908      	ldr	r1, [sp, #32]
    c5ee:	aa27      	add	r2, sp, #156	; 0x9c
    c5f0:	f004 f9f0 	bl	109d4 <__ssprint_r>
    c5f4:	2800      	cmp	r0, #0
    c5f6:	f47f aafa 	bne.w	bbee <_svfprintf_r+0x22e>
    c5fa:	f89d a07f 	ldrb.w	sl, [sp, #127]	; 0x7f
    c5fe:	f8dd c0a4 	ldr.w	ip, [sp, #164]	; 0xa4
    c602:	ae34      	add	r6, sp, #208	; 0xd0
    c604:	f7ff bbd9 	b.w	bdba <_svfprintf_r+0x3fa>
    c608:	1e6f      	subs	r7, r5, #1
    c60a:	2f00      	cmp	r7, #0
    c60c:	f77f af50 	ble.w	c4b0 <_svfprintf_r+0xaf0>
    c610:	2f10      	cmp	r7, #16
    c612:	4db5      	ldr	r5, [pc, #724]	; (c8e8 <_svfprintf_r+0xf28>)
    c614:	dd23      	ble.n	c65e <_svfprintf_r+0xc9e>
    c616:	4643      	mov	r3, r8
    c618:	f04f 0a10 	mov.w	sl, #16
    c61c:	f8dd 8024 	ldr.w	r8, [sp, #36]	; 0x24
    c620:	f8dd b020 	ldr.w	fp, [sp, #32]
    c624:	e004      	b.n	c630 <_svfprintf_r+0xc70>
    c626:	3f10      	subs	r7, #16
    c628:	2f10      	cmp	r7, #16
    c62a:	f106 0608 	add.w	r6, r6, #8
    c62e:	dd15      	ble.n	c65c <_svfprintf_r+0xc9c>
    c630:	3401      	adds	r4, #1
    c632:	3310      	adds	r3, #16
    c634:	2c07      	cmp	r4, #7
    c636:	9329      	str	r3, [sp, #164]	; 0xa4
    c638:	9428      	str	r4, [sp, #160]	; 0xa0
    c63a:	e886 0420 	stmia.w	r6, {r5, sl}
    c63e:	ddf2      	ble.n	c626 <_svfprintf_r+0xc66>
    c640:	4640      	mov	r0, r8
    c642:	4659      	mov	r1, fp
    c644:	aa27      	add	r2, sp, #156	; 0x9c
    c646:	f004 f9c5 	bl	109d4 <__ssprint_r>
    c64a:	2800      	cmp	r0, #0
    c64c:	f47f aacf 	bne.w	bbee <_svfprintf_r+0x22e>
    c650:	3f10      	subs	r7, #16
    c652:	2f10      	cmp	r7, #16
    c654:	9b29      	ldr	r3, [sp, #164]	; 0xa4
    c656:	9c28      	ldr	r4, [sp, #160]	; 0xa0
    c658:	ae34      	add	r6, sp, #208	; 0xd0
    c65a:	dce9      	bgt.n	c630 <_svfprintf_r+0xc70>
    c65c:	4698      	mov	r8, r3
    c65e:	3401      	adds	r4, #1
    c660:	44b8      	add	r8, r7
    c662:	2c07      	cmp	r4, #7
    c664:	f8cd 80a4 	str.w	r8, [sp, #164]	; 0xa4
    c668:	9428      	str	r4, [sp, #160]	; 0xa0
    c66a:	e886 00a0 	stmia.w	r6, {r5, r7}
    c66e:	f77f af1e 	ble.w	c4ae <_svfprintf_r+0xaee>
    c672:	9809      	ldr	r0, [sp, #36]	; 0x24
    c674:	9908      	ldr	r1, [sp, #32]
    c676:	aa27      	add	r2, sp, #156	; 0x9c
    c678:	f004 f9ac 	bl	109d4 <__ssprint_r>
    c67c:	2800      	cmp	r0, #0
    c67e:	f47f aab6 	bne.w	bbee <_svfprintf_r+0x22e>
    c682:	f8dd 80a4 	ldr.w	r8, [sp, #164]	; 0xa4
    c686:	9c28      	ldr	r4, [sp, #160]	; 0xa0
    c688:	ae34      	add	r6, sp, #208	; 0xd0
    c68a:	e711      	b.n	c4b0 <_svfprintf_r+0xaf0>
    c68c:	4694      	mov	ip, r2
    c68e:	3301      	adds	r3, #1
    c690:	44a4      	add	ip, r4
    c692:	2b07      	cmp	r3, #7
    c694:	f8cd c0a4 	str.w	ip, [sp, #164]	; 0xa4
    c698:	9328      	str	r3, [sp, #160]	; 0xa0
    c69a:	6035      	str	r5, [r6, #0]
    c69c:	6074      	str	r4, [r6, #4]
    c69e:	f77f ac05 	ble.w	beac <_svfprintf_r+0x4ec>
    c6a2:	e713      	b.n	c4cc <_svfprintf_r+0xb0c>
    c6a4:	f10d 0bcf 	add.w	fp, sp, #207	; 0xcf
    c6a8:	4620      	mov	r0, r4
    c6aa:	4629      	mov	r1, r5
    c6ac:	220a      	movs	r2, #10
    c6ae:	2300      	movs	r3, #0
    c6b0:	f7fe f96a 	bl	a988 <__aeabi_uldivmod>
    c6b4:	3230      	adds	r2, #48	; 0x30
    c6b6:	f88b 2000 	strb.w	r2, [fp]
    c6ba:	4620      	mov	r0, r4
    c6bc:	4629      	mov	r1, r5
    c6be:	220a      	movs	r2, #10
    c6c0:	2300      	movs	r3, #0
    c6c2:	f7fe f961 	bl	a988 <__aeabi_uldivmod>
    c6c6:	4604      	mov	r4, r0
    c6c8:	460d      	mov	r5, r1
    c6ca:	ea54 0c05 	orrs.w	ip, r4, r5
    c6ce:	465f      	mov	r7, fp
    c6d0:	f10b 3bff 	add.w	fp, fp, #4294967295	; 0xffffffff
    c6d4:	d1e8      	bne.n	c6a8 <_svfprintf_r+0xce8>
    c6d6:	9d04      	ldr	r5, [sp, #16]
    c6d8:	1bec      	subs	r4, r5, r7
    c6da:	f7ff bb04 	b.w	bce6 <_svfprintf_r+0x326>
    c6de:	9d0c      	ldr	r5, [sp, #48]	; 0x30
    c6e0:	f8dd c030 	ldr.w	ip, [sp, #48]	; 0x30
    c6e4:	682c      	ldr	r4, [r5, #0]
    c6e6:	17e5      	asrs	r5, r4, #31
    c6e8:	4622      	mov	r2, r4
    c6ea:	462b      	mov	r3, r5
    c6ec:	f10c 0c04 	add.w	ip, ip, #4
    c6f0:	2a00      	cmp	r2, #0
    c6f2:	f173 0000 	sbcs.w	r0, r3, #0
    c6f6:	f8cd c030 	str.w	ip, [sp, #48]	; 0x30
    c6fa:	f6bf ac75 	bge.w	bfe8 <_svfprintf_r+0x628>
    c6fe:	f04f 0a2d 	mov.w	sl, #45	; 0x2d
    c702:	4264      	negs	r4, r4
    c704:	eb65 0545 	sbc.w	r5, r5, r5, lsl #1
    c708:	f88d a07f 	strb.w	sl, [sp, #127]	; 0x7f
    c70c:	2301      	movs	r3, #1
    c70e:	f7ff baca 	b.w	bca6 <_svfprintf_r+0x2e6>
    c712:	9d0c      	ldr	r5, [sp, #48]	; 0x30
    c714:	682c      	ldr	r4, [r5, #0]
    c716:	3504      	adds	r5, #4
    c718:	950c      	str	r5, [sp, #48]	; 0x30
    c71a:	2500      	movs	r5, #0
    c71c:	f7ff babf 	b.w	bc9e <_svfprintf_r+0x2de>
    c720:	9d0c      	ldr	r5, [sp, #48]	; 0x30
    c722:	682c      	ldr	r4, [r5, #0]
    c724:	3504      	adds	r5, #4
    c726:	950c      	str	r5, [sp, #48]	; 0x30
    c728:	2301      	movs	r3, #1
    c72a:	2500      	movs	r5, #0
    c72c:	f7ff bab7 	b.w	bc9e <_svfprintf_r+0x2de>
    c730:	9809      	ldr	r0, [sp, #36]	; 0x24
    c732:	9908      	ldr	r1, [sp, #32]
    c734:	aa27      	add	r2, sp, #156	; 0x9c
    c736:	f004 f94d 	bl	109d4 <__ssprint_r>
    c73a:	2800      	cmp	r0, #0
    c73c:	f47f aa57 	bne.w	bbee <_svfprintf_r+0x22e>
    c740:	f8dd c0a4 	ldr.w	ip, [sp, #164]	; 0xa4
    c744:	ae34      	add	r6, sp, #208	; 0xd0
    c746:	9d10      	ldr	r5, [sp, #64]	; 0x40
    c748:	9c21      	ldr	r4, [sp, #132]	; 0x84
    c74a:	442f      	add	r7, r5
    c74c:	9d0d      	ldr	r5, [sp, #52]	; 0x34
    c74e:	42ac      	cmp	r4, r5
    c750:	db42      	blt.n	c7d8 <_svfprintf_r+0xe18>
    c752:	9d05      	ldr	r5, [sp, #20]
    c754:	07e9      	lsls	r1, r5, #31
    c756:	d43f      	bmi.n	c7d8 <_svfprintf_r+0xe18>
    c758:	980d      	ldr	r0, [sp, #52]	; 0x34
    c75a:	ebc7 050a 	rsb	r5, r7, sl
    c75e:	1b04      	subs	r4, r0, r4
    c760:	42ac      	cmp	r4, r5
    c762:	bfb8      	it	lt
    c764:	4625      	movlt	r5, r4
    c766:	2d00      	cmp	r5, #0
    c768:	dd0b      	ble.n	c782 <_svfprintf_r+0xdc2>
    c76a:	9b28      	ldr	r3, [sp, #160]	; 0xa0
    c76c:	6037      	str	r7, [r6, #0]
    c76e:	3301      	adds	r3, #1
    c770:	44ac      	add	ip, r5
    c772:	2b07      	cmp	r3, #7
    c774:	f8cd c0a4 	str.w	ip, [sp, #164]	; 0xa4
    c778:	6075      	str	r5, [r6, #4]
    c77a:	9328      	str	r3, [sp, #160]	; 0xa0
    c77c:	f300 8252 	bgt.w	cc24 <_svfprintf_r+0x1264>
    c780:	3608      	adds	r6, #8
    c782:	ea25 75e5 	bic.w	r5, r5, r5, asr #31
    c786:	1b64      	subs	r4, r4, r5
    c788:	2c00      	cmp	r4, #0
    c78a:	f77f ab90 	ble.w	beae <_svfprintf_r+0x4ee>
    c78e:	2c10      	cmp	r4, #16
    c790:	9b28      	ldr	r3, [sp, #160]	; 0xa0
    c792:	4d55      	ldr	r5, [pc, #340]	; (c8e8 <_svfprintf_r+0xf28>)
    c794:	f77f af7b 	ble.w	c68e <_svfprintf_r+0xcce>
    c798:	2710      	movs	r7, #16
    c79a:	4662      	mov	r2, ip
    c79c:	f8dd 8024 	ldr.w	r8, [sp, #36]	; 0x24
    c7a0:	f8dd a020 	ldr.w	sl, [sp, #32]
    c7a4:	e004      	b.n	c7b0 <_svfprintf_r+0xdf0>
    c7a6:	3608      	adds	r6, #8
    c7a8:	3c10      	subs	r4, #16
    c7aa:	2c10      	cmp	r4, #16
    c7ac:	f77f af6e 	ble.w	c68c <_svfprintf_r+0xccc>
    c7b0:	3301      	adds	r3, #1
    c7b2:	3210      	adds	r2, #16
    c7b4:	2b07      	cmp	r3, #7
    c7b6:	9229      	str	r2, [sp, #164]	; 0xa4
    c7b8:	9328      	str	r3, [sp, #160]	; 0xa0
    c7ba:	e886 00a0 	stmia.w	r6, {r5, r7}
    c7be:	ddf2      	ble.n	c7a6 <_svfprintf_r+0xde6>
    c7c0:	4640      	mov	r0, r8
    c7c2:	4651      	mov	r1, sl
    c7c4:	aa27      	add	r2, sp, #156	; 0x9c
    c7c6:	f004 f905 	bl	109d4 <__ssprint_r>
    c7ca:	2800      	cmp	r0, #0
    c7cc:	f47f aa0f 	bne.w	bbee <_svfprintf_r+0x22e>
    c7d0:	9a29      	ldr	r2, [sp, #164]	; 0xa4
    c7d2:	9b28      	ldr	r3, [sp, #160]	; 0xa0
    c7d4:	ae34      	add	r6, sp, #208	; 0xd0
    c7d6:	e7e7      	b.n	c7a8 <_svfprintf_r+0xde8>
    c7d8:	9b28      	ldr	r3, [sp, #160]	; 0xa0
    c7da:	9d11      	ldr	r5, [sp, #68]	; 0x44
    c7dc:	6035      	str	r5, [r6, #0]
    c7de:	9d14      	ldr	r5, [sp, #80]	; 0x50
    c7e0:	6075      	str	r5, [r6, #4]
    c7e2:	3301      	adds	r3, #1
    c7e4:	44ac      	add	ip, r5
    c7e6:	2b07      	cmp	r3, #7
    c7e8:	f8cd c0a4 	str.w	ip, [sp, #164]	; 0xa4
    c7ec:	9328      	str	r3, [sp, #160]	; 0xa0
    c7ee:	f300 81fb 	bgt.w	cbe8 <_svfprintf_r+0x1228>
    c7f2:	3608      	adds	r6, #8
    c7f4:	e7b0      	b.n	c758 <_svfprintf_r+0xd98>
    c7f6:	9d05      	ldr	r5, [sp, #20]
    c7f8:	07ea      	lsls	r2, r5, #31
    c7fa:	f53f ae27 	bmi.w	c44c <_svfprintf_r+0xa8c>
    c7fe:	3401      	adds	r4, #1
    c800:	f10c 0801 	add.w	r8, ip, #1
    c804:	2301      	movs	r3, #1
    c806:	2c07      	cmp	r4, #7
    c808:	f8cd 80a4 	str.w	r8, [sp, #164]	; 0xa4
    c80c:	9428      	str	r4, [sp, #160]	; 0xa0
    c80e:	6037      	str	r7, [r6, #0]
    c810:	6073      	str	r3, [r6, #4]
    c812:	f77f ae4c 	ble.w	c4ae <_svfprintf_r+0xaee>
    c816:	e72c      	b.n	c672 <_svfprintf_r+0xcb2>
    c818:	9809      	ldr	r0, [sp, #36]	; 0x24
    c81a:	9908      	ldr	r1, [sp, #32]
    c81c:	aa27      	add	r2, sp, #156	; 0x9c
    c81e:	f004 f8d9 	bl	109d4 <__ssprint_r>
    c822:	2800      	cmp	r0, #0
    c824:	f47f a9e3 	bne.w	bbee <_svfprintf_r+0x22e>
    c828:	9b29      	ldr	r3, [sp, #164]	; 0xa4
    c82a:	9c28      	ldr	r4, [sp, #160]	; 0xa0
    c82c:	ae34      	add	r6, sp, #208	; 0xd0
    c82e:	e619      	b.n	c464 <_svfprintf_r+0xaa4>
    c830:	9809      	ldr	r0, [sp, #36]	; 0x24
    c832:	9908      	ldr	r1, [sp, #32]
    c834:	aa27      	add	r2, sp, #156	; 0x9c
    c836:	f004 f8cd 	bl	109d4 <__ssprint_r>
    c83a:	2800      	cmp	r0, #0
    c83c:	f47f a9d7 	bne.w	bbee <_svfprintf_r+0x22e>
    c840:	f8dd 80a4 	ldr.w	r8, [sp, #164]	; 0xa4
    c844:	9c28      	ldr	r4, [sp, #160]	; 0xa0
    c846:	ae34      	add	r6, sp, #208	; 0xd0
    c848:	e61b      	b.n	c482 <_svfprintf_r+0xac2>
    c84a:	9809      	ldr	r0, [sp, #36]	; 0x24
    c84c:	9908      	ldr	r1, [sp, #32]
    c84e:	aa27      	add	r2, sp, #156	; 0x9c
    c850:	f004 f8c0 	bl	109d4 <__ssprint_r>
    c854:	2800      	cmp	r0, #0
    c856:	f47f a9ca 	bne.w	bbee <_svfprintf_r+0x22e>
    c85a:	f8dd c0a4 	ldr.w	ip, [sp, #164]	; 0xa4
    c85e:	ae34      	add	r6, sp, #208	; 0xd0
    c860:	f7ff bad3 	b.w	be0a <_svfprintf_r+0x44a>
    c864:	ed9d 0b12 	vldr	d0, [sp, #72]	; 0x48
    c868:	f7fd fba2 	bl	9fb0 <__fpclassifyd>
    c86c:	2800      	cmp	r0, #0
    c86e:	f040 80c4 	bne.w	c9fa <_svfprintf_r+0x103a>
    c872:	9d05      	ldr	r5, [sp, #20]
    c874:	4f1d      	ldr	r7, [pc, #116]	; (c8ec <_svfprintf_r+0xf2c>)
    c876:	4b1e      	ldr	r3, [pc, #120]	; (c8f0 <_svfprintf_r+0xf30>)
    c878:	f89d a07f 	ldrb.w	sl, [sp, #127]	; 0x7f
    c87c:	9006      	str	r0, [sp, #24]
    c87e:	2403      	movs	r4, #3
    c880:	f025 0580 	bic.w	r5, r5, #128	; 0x80
    c884:	9407      	str	r4, [sp, #28]
    c886:	9505      	str	r5, [sp, #20]
    c888:	9010      	str	r0, [sp, #64]	; 0x40
    c88a:	f1b8 0f47 	cmp.w	r8, #71	; 0x47
    c88e:	bfd8      	it	le
    c890:	461f      	movle	r7, r3
    c892:	f7ff ba31 	b.w	bcf8 <_svfprintf_r+0x338>
    c896:	9c0c      	ldr	r4, [sp, #48]	; 0x30
    c898:	1de3      	adds	r3, r4, #7
    c89a:	f023 0307 	bic.w	r3, r3, #7
    c89e:	ed93 7b00 	vldr	d7, [r3]
    c8a2:	3308      	adds	r3, #8
    c8a4:	ed8d 7b12 	vstr	d7, [sp, #72]	; 0x48
    c8a8:	930c      	str	r3, [sp, #48]	; 0x30
    c8aa:	e473      	b.n	c194 <_svfprintf_r+0x7d4>
    c8ac:	f8dd c014 	ldr.w	ip, [sp, #20]
    c8b0:	f01c 0f10 	tst.w	ip, #16
    c8b4:	f000 8153 	beq.w	cb5e <_svfprintf_r+0x119e>
    c8b8:	9c0c      	ldr	r4, [sp, #48]	; 0x30
    c8ba:	9d0a      	ldr	r5, [sp, #40]	; 0x28
    c8bc:	6823      	ldr	r3, [r4, #0]
    c8be:	3404      	adds	r4, #4
    c8c0:	940c      	str	r4, [sp, #48]	; 0x30
    c8c2:	601d      	str	r5, [r3, #0]
    c8c4:	f7ff b8a1 	b.w	ba0a <_svfprintf_r+0x4a>
    c8c8:	9c05      	ldr	r4, [sp, #20]
    c8ca:	0664      	lsls	r4, r4, #25
    c8cc:	f140 8140 	bpl.w	cb50 <_svfprintf_r+0x1190>
    c8d0:	f8dd c030 	ldr.w	ip, [sp, #48]	; 0x30
    c8d4:	f8bc 4000 	ldrh.w	r4, [ip]
    c8d8:	f10c 0c04 	add.w	ip, ip, #4
    c8dc:	2500      	movs	r5, #0
    c8de:	f8cd c030 	str.w	ip, [sp, #48]	; 0x30
    c8e2:	f7ff b9c8 	b.w	bc76 <_svfprintf_r+0x2b6>
    c8e6:	bf00      	nop
    c8e8:	00011744 	.word	0x00011744
    c8ec:	00011760 	.word	0x00011760
    c8f0:	0001175c 	.word	0x0001175c
    c8f4:	462c      	mov	r4, r5
    c8f6:	463d      	mov	r5, r7
    c8f8:	9f06      	ldr	r7, [sp, #24]
    c8fa:	4694      	mov	ip, r2
    c8fc:	3301      	adds	r3, #1
    c8fe:	44a4      	add	ip, r4
    c900:	2b07      	cmp	r3, #7
    c902:	f8cd c0a4 	str.w	ip, [sp, #164]	; 0xa4
    c906:	9328      	str	r3, [sp, #160]	; 0xa0
    c908:	6035      	str	r5, [r6, #0]
    c90a:	6074      	str	r4, [r6, #4]
    c90c:	f73f af10 	bgt.w	c730 <_svfprintf_r+0xd70>
    c910:	3608      	adds	r6, #8
    c912:	e718      	b.n	c746 <_svfprintf_r+0xd86>
    c914:	9809      	ldr	r0, [sp, #36]	; 0x24
    c916:	9908      	ldr	r1, [sp, #32]
    c918:	aa27      	add	r2, sp, #156	; 0x9c
    c91a:	f004 f85b 	bl	109d4 <__ssprint_r>
    c91e:	2800      	cmp	r0, #0
    c920:	f47f a965 	bne.w	bbee <_svfprintf_r+0x22e>
    c924:	f8dd c0a4 	ldr.w	ip, [sp, #164]	; 0xa4
    c928:	ae34      	add	r6, sp, #208	; 0xd0
    c92a:	e4f9      	b.n	c320 <_svfprintf_r+0x960>
    c92c:	9a28      	ldr	r2, [sp, #160]	; 0xa0
    c92e:	49b5      	ldr	r1, [pc, #724]	; (cc04 <_svfprintf_r+0x1244>)
    c930:	6031      	str	r1, [r6, #0]
    c932:	3201      	adds	r2, #1
    c934:	f10c 0c01 	add.w	ip, ip, #1
    c938:	2101      	movs	r1, #1
    c93a:	2a07      	cmp	r2, #7
    c93c:	f8cd c0a4 	str.w	ip, [sp, #164]	; 0xa4
    c940:	9228      	str	r2, [sp, #160]	; 0xa0
    c942:	6071      	str	r1, [r6, #4]
    c944:	f300 80f4 	bgt.w	cb30 <_svfprintf_r+0x1170>
    c948:	3608      	adds	r6, #8
    c94a:	461c      	mov	r4, r3
    c94c:	b92c      	cbnz	r4, c95a <_svfprintf_r+0xf9a>
    c94e:	9d0d      	ldr	r5, [sp, #52]	; 0x34
    c950:	b91d      	cbnz	r5, c95a <_svfprintf_r+0xf9a>
    c952:	9d05      	ldr	r5, [sp, #20]
    c954:	07e8      	lsls	r0, r5, #31
    c956:	f57f aaaa 	bpl.w	beae <_svfprintf_r+0x4ee>
    c95a:	9b28      	ldr	r3, [sp, #160]	; 0xa0
    c95c:	9914      	ldr	r1, [sp, #80]	; 0x50
    c95e:	9d11      	ldr	r5, [sp, #68]	; 0x44
    c960:	6035      	str	r5, [r6, #0]
    c962:	3301      	adds	r3, #1
    c964:	4461      	add	r1, ip
    c966:	9d14      	ldr	r5, [sp, #80]	; 0x50
    c968:	9129      	str	r1, [sp, #164]	; 0xa4
    c96a:	2b07      	cmp	r3, #7
    c96c:	6075      	str	r5, [r6, #4]
    c96e:	9328      	str	r3, [sp, #160]	; 0xa0
    c970:	f300 81e9 	bgt.w	cd46 <_svfprintf_r+0x1386>
    c974:	f106 0208 	add.w	r2, r6, #8
    c978:	4264      	negs	r4, r4
    c97a:	2c00      	cmp	r4, #0
    c97c:	f340 8117 	ble.w	cbae <_svfprintf_r+0x11ee>
    c980:	2c10      	cmp	r4, #16
    c982:	4da1      	ldr	r5, [pc, #644]	; (cc08 <_svfprintf_r+0x1248>)
    c984:	f340 8144 	ble.w	cc10 <_svfprintf_r+0x1250>
    c988:	46a3      	mov	fp, r4
    c98a:	2610      	movs	r6, #16
    c98c:	460c      	mov	r4, r1
    c98e:	f8dd 8024 	ldr.w	r8, [sp, #36]	; 0x24
    c992:	f8dd a020 	ldr.w	sl, [sp, #32]
    c996:	e006      	b.n	c9a6 <_svfprintf_r+0xfe6>
    c998:	3208      	adds	r2, #8
    c99a:	f1ab 0b10 	sub.w	fp, fp, #16
    c99e:	f1bb 0f10 	cmp.w	fp, #16
    c9a2:	f340 8133 	ble.w	cc0c <_svfprintf_r+0x124c>
    c9a6:	3301      	adds	r3, #1
    c9a8:	3410      	adds	r4, #16
    c9aa:	2b07      	cmp	r3, #7
    c9ac:	9429      	str	r4, [sp, #164]	; 0xa4
    c9ae:	9328      	str	r3, [sp, #160]	; 0xa0
    c9b0:	e882 0060 	stmia.w	r2, {r5, r6}
    c9b4:	ddf0      	ble.n	c998 <_svfprintf_r+0xfd8>
    c9b6:	4640      	mov	r0, r8
    c9b8:	4651      	mov	r1, sl
    c9ba:	aa27      	add	r2, sp, #156	; 0x9c
    c9bc:	f004 f80a 	bl	109d4 <__ssprint_r>
    c9c0:	2800      	cmp	r0, #0
    c9c2:	f47f a914 	bne.w	bbee <_svfprintf_r+0x22e>
    c9c6:	9c29      	ldr	r4, [sp, #164]	; 0xa4
    c9c8:	9b28      	ldr	r3, [sp, #160]	; 0xa0
    c9ca:	aa34      	add	r2, sp, #208	; 0xd0
    c9cc:	e7e5      	b.n	c99a <_svfprintf_r+0xfda>
    c9ce:	9c05      	ldr	r4, [sp, #20]
    c9d0:	f893 8001 	ldrb.w	r8, [r3, #1]
    c9d4:	f044 0420 	orr.w	r4, r4, #32
    c9d8:	f109 0901 	add.w	r9, r9, #1
    c9dc:	9405      	str	r4, [sp, #20]
    c9de:	f7ff b84a 	b.w	ba76 <_svfprintf_r+0xb6>
    c9e2:	9809      	ldr	r0, [sp, #36]	; 0x24
    c9e4:	9908      	ldr	r1, [sp, #32]
    c9e6:	aa27      	add	r2, sp, #156	; 0x9c
    c9e8:	f003 fff4 	bl	109d4 <__ssprint_r>
    c9ec:	2800      	cmp	r0, #0
    c9ee:	f47f a8fe 	bne.w	bbee <_svfprintf_r+0x22e>
    c9f2:	f8dd c0a4 	ldr.w	ip, [sp, #164]	; 0xa4
    c9f6:	ae34      	add	r6, sp, #208	; 0xd0
    c9f8:	e4a8      	b.n	c34c <_svfprintf_r+0x98c>
    c9fa:	9c06      	ldr	r4, [sp, #24]
    c9fc:	3401      	adds	r4, #1
    c9fe:	f028 0a20 	bic.w	sl, r8, #32
    ca02:	f000 80a2 	beq.w	cb4a <_svfprintf_r+0x118a>
    ca06:	f1ba 0f47 	cmp.w	sl, #71	; 0x47
    ca0a:	d104      	bne.n	ca16 <_svfprintf_r+0x1056>
    ca0c:	9c06      	ldr	r4, [sp, #24]
    ca0e:	2c00      	cmp	r4, #0
    ca10:	bf08      	it	eq
    ca12:	2401      	moveq	r4, #1
    ca14:	9406      	str	r4, [sp, #24]
    ca16:	e9dd 2312 	ldrd	r2, r3, [sp, #72]	; 0x48
    ca1a:	9d05      	ldr	r5, [sp, #20]
    ca1c:	2b00      	cmp	r3, #0
    ca1e:	f445 7580 	orr.w	r5, r5, #256	; 0x100
    ca22:	950e      	str	r5, [sp, #56]	; 0x38
    ca24:	f2c0 81a9 	blt.w	cd7a <_svfprintf_r+0x13ba>
    ca28:	ed9d 7b12 	vldr	d7, [sp, #72]	; 0x48
    ca2c:	ed8d 7b1c 	vstr	d7, [sp, #112]	; 0x70
    ca30:	f04f 0b00 	mov.w	fp, #0
    ca34:	f1b8 0f66 	cmp.w	r8, #102	; 0x66
    ca38:	f000 8139 	beq.w	ccae <_svfprintf_r+0x12ee>
    ca3c:	f1b8 0f46 	cmp.w	r8, #70	; 0x46
    ca40:	f000 8135 	beq.w	ccae <_svfprintf_r+0x12ee>
    ca44:	f1ba 0f45 	cmp.w	sl, #69	; 0x45
    ca48:	bf0c      	ite	eq
    ca4a:	9c06      	ldreq	r4, [sp, #24]
    ca4c:	9d06      	ldrne	r5, [sp, #24]
    ca4e:	9809      	ldr	r0, [sp, #36]	; 0x24
    ca50:	bf08      	it	eq
    ca52:	1c65      	addeq	r5, r4, #1
    ca54:	aa22      	add	r2, sp, #136	; 0x88
    ca56:	ab25      	add	r3, sp, #148	; 0x94
    ca58:	e88d 000c 	stmia.w	sp, {r2, r3}
    ca5c:	ed9d 0b1c 	vldr	d0, [sp, #112]	; 0x70
    ca60:	2102      	movs	r1, #2
    ca62:	462a      	mov	r2, r5
    ca64:	ab21      	add	r3, sp, #132	; 0x84
    ca66:	f001 fe0b 	bl	e680 <_dtoa_r>
    ca6a:	f1b8 0f67 	cmp.w	r8, #103	; 0x67
    ca6e:	4607      	mov	r7, r0
    ca70:	d002      	beq.n	ca78 <_svfprintf_r+0x10b8>
    ca72:	f1b8 0f47 	cmp.w	r8, #71	; 0x47
    ca76:	d105      	bne.n	ca84 <_svfprintf_r+0x10c4>
    ca78:	f8dd c014 	ldr.w	ip, [sp, #20]
    ca7c:	f01c 0f01 	tst.w	ip, #1
    ca80:	f000 8192 	beq.w	cda8 <_svfprintf_r+0x13e8>
    ca84:	f1ba 0f46 	cmp.w	sl, #70	; 0x46
    ca88:	eb07 0405 	add.w	r4, r7, r5
    ca8c:	f000 8143 	beq.w	cd16 <_svfprintf_r+0x1356>
    ca90:	e9dd 011c 	ldrd	r0, r1, [sp, #112]	; 0x70
    ca94:	2200      	movs	r2, #0
    ca96:	2300      	movs	r3, #0
    ca98:	f7fd fed4 	bl	a844 <__aeabi_dcmpeq>
    ca9c:	2800      	cmp	r0, #0
    ca9e:	f040 8104 	bne.w	ccaa <_svfprintf_r+0x12ea>
    caa2:	9b25      	ldr	r3, [sp, #148]	; 0x94
    caa4:	429c      	cmp	r4, r3
    caa6:	d906      	bls.n	cab6 <_svfprintf_r+0x10f6>
    caa8:	2130      	movs	r1, #48	; 0x30
    caaa:	1c5a      	adds	r2, r3, #1
    caac:	9225      	str	r2, [sp, #148]	; 0x94
    caae:	7019      	strb	r1, [r3, #0]
    cab0:	9b25      	ldr	r3, [sp, #148]	; 0x94
    cab2:	429c      	cmp	r4, r3
    cab4:	d8f9      	bhi.n	caaa <_svfprintf_r+0x10ea>
    cab6:	1bdb      	subs	r3, r3, r7
    cab8:	f1ba 0f47 	cmp.w	sl, #71	; 0x47
    cabc:	930d      	str	r3, [sp, #52]	; 0x34
    cabe:	f000 80db 	beq.w	cc78 <_svfprintf_r+0x12b8>
    cac2:	f1b8 0f65 	cmp.w	r8, #101	; 0x65
    cac6:	f340 81e1 	ble.w	ce8c <_svfprintf_r+0x14cc>
    caca:	f1b8 0f66 	cmp.w	r8, #102	; 0x66
    cace:	f000 815d 	beq.w	cd8c <_svfprintf_r+0x13cc>
    cad2:	9c21      	ldr	r4, [sp, #132]	; 0x84
    cad4:	9410      	str	r4, [sp, #64]	; 0x40
    cad6:	9c0d      	ldr	r4, [sp, #52]	; 0x34
    cad8:	9d10      	ldr	r5, [sp, #64]	; 0x40
    cada:	42ac      	cmp	r4, r5
    cadc:	f300 8140 	bgt.w	cd60 <_svfprintf_r+0x13a0>
    cae0:	f8dd c014 	ldr.w	ip, [sp, #20]
    cae4:	f01c 0f01 	tst.w	ip, #1
    cae8:	f040 818e 	bne.w	ce08 <_svfprintf_r+0x1448>
    caec:	ea25 73e5 	bic.w	r3, r5, r5, asr #31
    caf0:	462c      	mov	r4, r5
    caf2:	f04f 0867 	mov.w	r8, #103	; 0x67
    caf6:	f1bb 0f00 	cmp.w	fp, #0
    cafa:	f040 80c5 	bne.w	cc88 <_svfprintf_r+0x12c8>
    cafe:	9d0e      	ldr	r5, [sp, #56]	; 0x38
    cb00:	9307      	str	r3, [sp, #28]
    cb02:	9505      	str	r5, [sp, #20]
    cb04:	f8cd b018 	str.w	fp, [sp, #24]
    cb08:	f89d a07f 	ldrb.w	sl, [sp, #127]	; 0x7f
    cb0c:	f7ff b8f4 	b.w	bcf8 <_svfprintf_r+0x338>
    cb10:	9809      	ldr	r0, [sp, #36]	; 0x24
    cb12:	2140      	movs	r1, #64	; 0x40
    cb14:	f7fe fa46 	bl	afa4 <_malloc_r>
    cb18:	6020      	str	r0, [r4, #0]
    cb1a:	6120      	str	r0, [r4, #16]
    cb1c:	2800      	cmp	r0, #0
    cb1e:	f000 81b7 	beq.w	ce90 <_svfprintf_r+0x14d0>
    cb22:	f8dd c020 	ldr.w	ip, [sp, #32]
    cb26:	2340      	movs	r3, #64	; 0x40
    cb28:	f8cc 3014 	str.w	r3, [ip, #20]
    cb2c:	f7fe bf5e 	b.w	b9ec <_svfprintf_r+0x2c>
    cb30:	9809      	ldr	r0, [sp, #36]	; 0x24
    cb32:	9908      	ldr	r1, [sp, #32]
    cb34:	aa27      	add	r2, sp, #156	; 0x9c
    cb36:	f003 ff4d 	bl	109d4 <__ssprint_r>
    cb3a:	2800      	cmp	r0, #0
    cb3c:	f47f a857 	bne.w	bbee <_svfprintf_r+0x22e>
    cb40:	9c21      	ldr	r4, [sp, #132]	; 0x84
    cb42:	f8dd c0a4 	ldr.w	ip, [sp, #164]	; 0xa4
    cb46:	ae34      	add	r6, sp, #208	; 0xd0
    cb48:	e700      	b.n	c94c <_svfprintf_r+0xf8c>
    cb4a:	2506      	movs	r5, #6
    cb4c:	9506      	str	r5, [sp, #24]
    cb4e:	e762      	b.n	ca16 <_svfprintf_r+0x1056>
    cb50:	9d0c      	ldr	r5, [sp, #48]	; 0x30
    cb52:	682c      	ldr	r4, [r5, #0]
    cb54:	3504      	adds	r5, #4
    cb56:	950c      	str	r5, [sp, #48]	; 0x30
    cb58:	2500      	movs	r5, #0
    cb5a:	f7ff b88c 	b.w	bc76 <_svfprintf_r+0x2b6>
    cb5e:	f8dd c014 	ldr.w	ip, [sp, #20]
    cb62:	f01c 0f40 	tst.w	ip, #64	; 0x40
    cb66:	d07b      	beq.n	cc60 <_svfprintf_r+0x12a0>
    cb68:	9c0c      	ldr	r4, [sp, #48]	; 0x30
    cb6a:	9d0a      	ldr	r5, [sp, #40]	; 0x28
    cb6c:	6823      	ldr	r3, [r4, #0]
    cb6e:	3404      	adds	r4, #4
    cb70:	940c      	str	r4, [sp, #48]	; 0x30
    cb72:	801d      	strh	r5, [r3, #0]
    cb74:	f7fe bf49 	b.w	ba0a <_svfprintf_r+0x4a>
    cb78:	f8cd a018 	str.w	sl, [sp, #24]
    cb7c:	f7fe fef0 	bl	b960 <strlen>
    cb80:	950c      	str	r5, [sp, #48]	; 0x30
    cb82:	ea20 7ce0 	bic.w	ip, r0, r0, asr #31
    cb86:	9d06      	ldr	r5, [sp, #24]
    cb88:	f8cd c01c 	str.w	ip, [sp, #28]
    cb8c:	4604      	mov	r4, r0
    cb8e:	9510      	str	r5, [sp, #64]	; 0x40
    cb90:	f89d a07f 	ldrb.w	sl, [sp, #127]	; 0x7f
    cb94:	f7ff b8b0 	b.w	bcf8 <_svfprintf_r+0x338>
    cb98:	9809      	ldr	r0, [sp, #36]	; 0x24
    cb9a:	9908      	ldr	r1, [sp, #32]
    cb9c:	aa27      	add	r2, sp, #156	; 0x9c
    cb9e:	f003 ff19 	bl	109d4 <__ssprint_r>
    cba2:	2800      	cmp	r0, #0
    cba4:	f47f a823 	bne.w	bbee <_svfprintf_r+0x22e>
    cba8:	9929      	ldr	r1, [sp, #164]	; 0xa4
    cbaa:	9b28      	ldr	r3, [sp, #160]	; 0xa0
    cbac:	aa34      	add	r2, sp, #208	; 0xd0
    cbae:	f8dd c034 	ldr.w	ip, [sp, #52]	; 0x34
    cbb2:	9c0d      	ldr	r4, [sp, #52]	; 0x34
    cbb4:	6017      	str	r7, [r2, #0]
    cbb6:	3301      	adds	r3, #1
    cbb8:	448c      	add	ip, r1
    cbba:	2b07      	cmp	r3, #7
    cbbc:	f8cd c0a4 	str.w	ip, [sp, #164]	; 0xa4
    cbc0:	9328      	str	r3, [sp, #160]	; 0xa0
    cbc2:	6054      	str	r4, [r2, #4]
    cbc4:	f73f ac82 	bgt.w	c4cc <_svfprintf_r+0xb0c>
    cbc8:	f102 0608 	add.w	r6, r2, #8
    cbcc:	f7ff b96f 	b.w	beae <_svfprintf_r+0x4ee>
    cbd0:	9809      	ldr	r0, [sp, #36]	; 0x24
    cbd2:	9908      	ldr	r1, [sp, #32]
    cbd4:	aa27      	add	r2, sp, #156	; 0x9c
    cbd6:	f003 fefd 	bl	109d4 <__ssprint_r>
    cbda:	2800      	cmp	r0, #0
    cbdc:	f47f a807 	bne.w	bbee <_svfprintf_r+0x22e>
    cbe0:	f8dd c0a4 	ldr.w	ip, [sp, #164]	; 0xa4
    cbe4:	ae34      	add	r6, sp, #208	; 0xd0
    cbe6:	e4cc      	b.n	c582 <_svfprintf_r+0xbc2>
    cbe8:	9809      	ldr	r0, [sp, #36]	; 0x24
    cbea:	9908      	ldr	r1, [sp, #32]
    cbec:	aa27      	add	r2, sp, #156	; 0x9c
    cbee:	f003 fef1 	bl	109d4 <__ssprint_r>
    cbf2:	2800      	cmp	r0, #0
    cbf4:	f47e affb 	bne.w	bbee <_svfprintf_r+0x22e>
    cbf8:	9c21      	ldr	r4, [sp, #132]	; 0x84
    cbfa:	f8dd c0a4 	ldr.w	ip, [sp, #164]	; 0xa4
    cbfe:	ae34      	add	r6, sp, #208	; 0xd0
    cc00:	e5aa      	b.n	c758 <_svfprintf_r+0xd98>
    cc02:	bf00      	nop
    cc04:	00011794 	.word	0x00011794
    cc08:	00011744 	.word	0x00011744
    cc0c:	4621      	mov	r1, r4
    cc0e:	465c      	mov	r4, fp
    cc10:	3301      	adds	r3, #1
    cc12:	4421      	add	r1, r4
    cc14:	2b07      	cmp	r3, #7
    cc16:	9129      	str	r1, [sp, #164]	; 0xa4
    cc18:	9328      	str	r3, [sp, #160]	; 0xa0
    cc1a:	6015      	str	r5, [r2, #0]
    cc1c:	6054      	str	r4, [r2, #4]
    cc1e:	dcbb      	bgt.n	cb98 <_svfprintf_r+0x11d8>
    cc20:	3208      	adds	r2, #8
    cc22:	e7c4      	b.n	cbae <_svfprintf_r+0x11ee>
    cc24:	9809      	ldr	r0, [sp, #36]	; 0x24
    cc26:	9908      	ldr	r1, [sp, #32]
    cc28:	aa27      	add	r2, sp, #156	; 0x9c
    cc2a:	f003 fed3 	bl	109d4 <__ssprint_r>
    cc2e:	2800      	cmp	r0, #0
    cc30:	f47e afdd 	bne.w	bbee <_svfprintf_r+0x22e>
    cc34:	9c21      	ldr	r4, [sp, #132]	; 0x84
    cc36:	990d      	ldr	r1, [sp, #52]	; 0x34
    cc38:	f8dd c0a4 	ldr.w	ip, [sp, #164]	; 0xa4
    cc3c:	1b0c      	subs	r4, r1, r4
    cc3e:	ae34      	add	r6, sp, #208	; 0xd0
    cc40:	e59f      	b.n	c782 <_svfprintf_r+0xdc2>
    cc42:	9c06      	ldr	r4, [sp, #24]
    cc44:	9710      	str	r7, [sp, #64]	; 0x40
    cc46:	2c06      	cmp	r4, #6
    cc48:	bf28      	it	cs
    cc4a:	2406      	movcs	r4, #6
    cc4c:	ea24 7ce4 	bic.w	ip, r4, r4, asr #31
    cc50:	46ba      	mov	sl, r7
    cc52:	9706      	str	r7, [sp, #24]
    cc54:	950c      	str	r5, [sp, #48]	; 0x30
    cc56:	f8cd c01c 	str.w	ip, [sp, #28]
    cc5a:	4f92      	ldr	r7, [pc, #584]	; (cea4 <_svfprintf_r+0x14e4>)
    cc5c:	f7ff b84c 	b.w	bcf8 <_svfprintf_r+0x338>
    cc60:	f8dd c030 	ldr.w	ip, [sp, #48]	; 0x30
    cc64:	9c0a      	ldr	r4, [sp, #40]	; 0x28
    cc66:	f8dc 3000 	ldr.w	r3, [ip]
    cc6a:	f10c 0c04 	add.w	ip, ip, #4
    cc6e:	f8cd c030 	str.w	ip, [sp, #48]	; 0x30
    cc72:	601c      	str	r4, [r3, #0]
    cc74:	f7fe bec9 	b.w	ba0a <_svfprintf_r+0x4a>
    cc78:	9b21      	ldr	r3, [sp, #132]	; 0x84
    cc7a:	1cdc      	adds	r4, r3, #3
    cc7c:	db26      	blt.n	cccc <_svfprintf_r+0x130c>
    cc7e:	9c06      	ldr	r4, [sp, #24]
    cc80:	429c      	cmp	r4, r3
    cc82:	db23      	blt.n	cccc <_svfprintf_r+0x130c>
    cc84:	9310      	str	r3, [sp, #64]	; 0x40
    cc86:	e726      	b.n	cad6 <_svfprintf_r+0x1116>
    cc88:	9d0e      	ldr	r5, [sp, #56]	; 0x38
    cc8a:	9505      	str	r5, [sp, #20]
    cc8c:	f04f 0a2d 	mov.w	sl, #45	; 0x2d
    cc90:	2500      	movs	r5, #0
    cc92:	9307      	str	r3, [sp, #28]
    cc94:	f88d a07f 	strb.w	sl, [sp, #127]	; 0x7f
    cc98:	9506      	str	r5, [sp, #24]
    cc9a:	f7ff b830 	b.w	bcfe <_svfprintf_r+0x33e>
    cc9e:	f04f 0a2d 	mov.w	sl, #45	; 0x2d
    cca2:	f88d a07f 	strb.w	sl, [sp, #127]	; 0x7f
    cca6:	f7ff ba87 	b.w	c1b8 <_svfprintf_r+0x7f8>
    ccaa:	4623      	mov	r3, r4
    ccac:	e703      	b.n	cab6 <_svfprintf_r+0x10f6>
    ccae:	aa22      	add	r2, sp, #136	; 0x88
    ccb0:	ab25      	add	r3, sp, #148	; 0x94
    ccb2:	e88d 000c 	stmia.w	sp, {r2, r3}
    ccb6:	9809      	ldr	r0, [sp, #36]	; 0x24
    ccb8:	9a06      	ldr	r2, [sp, #24]
    ccba:	ed9d 0b1c 	vldr	d0, [sp, #112]	; 0x70
    ccbe:	2103      	movs	r1, #3
    ccc0:	ab21      	add	r3, sp, #132	; 0x84
    ccc2:	f001 fcdd 	bl	e680 <_dtoa_r>
    ccc6:	9d06      	ldr	r5, [sp, #24]
    ccc8:	4607      	mov	r7, r0
    ccca:	e6db      	b.n	ca84 <_svfprintf_r+0x10c4>
    cccc:	f1a8 0802 	sub.w	r8, r8, #2
    ccd0:	3b01      	subs	r3, #1
    ccd2:	2b00      	cmp	r3, #0
    ccd4:	9321      	str	r3, [sp, #132]	; 0x84
    ccd6:	bfba      	itte	lt
    ccd8:	425b      	neglt	r3, r3
    ccda:	222d      	movlt	r2, #45	; 0x2d
    ccdc:	222b      	movge	r2, #43	; 0x2b
    ccde:	2b09      	cmp	r3, #9
    cce0:	f88d 808c 	strb.w	r8, [sp, #140]	; 0x8c
    cce4:	f88d 208d 	strb.w	r2, [sp, #141]	; 0x8d
    cce8:	dc60      	bgt.n	cdac <_svfprintf_r+0x13ec>
    ccea:	3330      	adds	r3, #48	; 0x30
    ccec:	2230      	movs	r2, #48	; 0x30
    ccee:	f88d 308f 	strb.w	r3, [sp, #143]	; 0x8f
    ccf2:	f88d 208e 	strb.w	r2, [sp, #142]	; 0x8e
    ccf6:	ab24      	add	r3, sp, #144	; 0x90
    ccf8:	9d0d      	ldr	r5, [sp, #52]	; 0x34
    ccfa:	9c0d      	ldr	r4, [sp, #52]	; 0x34
    ccfc:	aa23      	add	r2, sp, #140	; 0x8c
    ccfe:	1a9a      	subs	r2, r3, r2
    cd00:	2d01      	cmp	r5, #1
    cd02:	9215      	str	r2, [sp, #84]	; 0x54
    cd04:	4414      	add	r4, r2
    cd06:	f340 80b2 	ble.w	ce6e <_svfprintf_r+0x14ae>
    cd0a:	3401      	adds	r4, #1
    cd0c:	2500      	movs	r5, #0
    cd0e:	ea24 73e4 	bic.w	r3, r4, r4, asr #31
    cd12:	9510      	str	r5, [sp, #64]	; 0x40
    cd14:	e6ef      	b.n	caf6 <_svfprintf_r+0x1136>
    cd16:	783b      	ldrb	r3, [r7, #0]
    cd18:	2b30      	cmp	r3, #48	; 0x30
    cd1a:	f000 8083 	beq.w	ce24 <_svfprintf_r+0x1464>
    cd1e:	9d21      	ldr	r5, [sp, #132]	; 0x84
    cd20:	442c      	add	r4, r5
    cd22:	e6b5      	b.n	ca90 <_svfprintf_r+0x10d0>
    cd24:	ea24 7ce4 	bic.w	ip, r4, r4, asr #31
    cd28:	f8cd c01c 	str.w	ip, [sp, #28]
    cd2c:	9c06      	ldr	r4, [sp, #24]
    cd2e:	950c      	str	r5, [sp, #48]	; 0x30
    cd30:	9006      	str	r0, [sp, #24]
    cd32:	9010      	str	r0, [sp, #64]	; 0x40
    cd34:	f89d a07f 	ldrb.w	sl, [sp, #127]	; 0x7f
    cd38:	f7fe bfde 	b.w	bcf8 <_svfprintf_r+0x338>
    cd3c:	2400      	movs	r4, #0
    cd3e:	4681      	mov	r9, r0
    cd40:	9406      	str	r4, [sp, #24]
    cd42:	f7fe be9a 	b.w	ba7a <_svfprintf_r+0xba>
    cd46:	9809      	ldr	r0, [sp, #36]	; 0x24
    cd48:	9908      	ldr	r1, [sp, #32]
    cd4a:	aa27      	add	r2, sp, #156	; 0x9c
    cd4c:	f003 fe42 	bl	109d4 <__ssprint_r>
    cd50:	2800      	cmp	r0, #0
    cd52:	f47e af4c 	bne.w	bbee <_svfprintf_r+0x22e>
    cd56:	9c21      	ldr	r4, [sp, #132]	; 0x84
    cd58:	9929      	ldr	r1, [sp, #164]	; 0xa4
    cd5a:	9b28      	ldr	r3, [sp, #160]	; 0xa0
    cd5c:	aa34      	add	r2, sp, #208	; 0xd0
    cd5e:	e60b      	b.n	c978 <_svfprintf_r+0xfb8>
    cd60:	9c10      	ldr	r4, [sp, #64]	; 0x40
    cd62:	9d0d      	ldr	r5, [sp, #52]	; 0x34
    cd64:	2c00      	cmp	r4, #0
    cd66:	bfd4      	ite	le
    cd68:	f1c4 0402 	rsble	r4, r4, #2
    cd6c:	2401      	movgt	r4, #1
    cd6e:	442c      	add	r4, r5
    cd70:	ea24 73e4 	bic.w	r3, r4, r4, asr #31
    cd74:	f04f 0867 	mov.w	r8, #103	; 0x67
    cd78:	e6bd      	b.n	caf6 <_svfprintf_r+0x1136>
    cd7a:	9913      	ldr	r1, [sp, #76]	; 0x4c
    cd7c:	9812      	ldr	r0, [sp, #72]	; 0x48
    cd7e:	901c      	str	r0, [sp, #112]	; 0x70
    cd80:	f101 4100 	add.w	r1, r1, #2147483648	; 0x80000000
    cd84:	911d      	str	r1, [sp, #116]	; 0x74
    cd86:	f04f 0b2d 	mov.w	fp, #45	; 0x2d
    cd8a:	e653      	b.n	ca34 <_svfprintf_r+0x1074>
    cd8c:	9d21      	ldr	r5, [sp, #132]	; 0x84
    cd8e:	9510      	str	r5, [sp, #64]	; 0x40
    cd90:	2d00      	cmp	r5, #0
    cd92:	9c06      	ldr	r4, [sp, #24]
    cd94:	dd54      	ble.n	ce40 <_svfprintf_r+0x1480>
    cd96:	2c00      	cmp	r4, #0
    cd98:	d13d      	bne.n	ce16 <_svfprintf_r+0x1456>
    cd9a:	9d05      	ldr	r5, [sp, #20]
    cd9c:	07e8      	lsls	r0, r5, #31
    cd9e:	d43a      	bmi.n	ce16 <_svfprintf_r+0x1456>
    cda0:	9c10      	ldr	r4, [sp, #64]	; 0x40
    cda2:	ea24 73e4 	bic.w	r3, r4, r4, asr #31
    cda6:	e6a6      	b.n	caf6 <_svfprintf_r+0x1136>
    cda8:	9b25      	ldr	r3, [sp, #148]	; 0x94
    cdaa:	e684      	b.n	cab6 <_svfprintf_r+0x10f6>
    cdac:	f10d 009a 	add.w	r0, sp, #154	; 0x9a
    cdb0:	4d3d      	ldr	r5, [pc, #244]	; (cea8 <_svfprintf_r+0x14e8>)
    cdb2:	17da      	asrs	r2, r3, #31
    cdb4:	fb85 5103 	smull	r5, r1, r5, r3
    cdb8:	ebc2 01a1 	rsb	r1, r2, r1, asr #2
    cdbc:	eb01 0481 	add.w	r4, r1, r1, lsl #2
    cdc0:	4602      	mov	r2, r0
    cdc2:	eba3 0344 	sub.w	r3, r3, r4, lsl #1
    cdc6:	f103 0030 	add.w	r0, r3, #48	; 0x30
    cdca:	2909      	cmp	r1, #9
    cdcc:	7010      	strb	r0, [r2, #0]
    cdce:	460b      	mov	r3, r1
    cdd0:	f102 30ff 	add.w	r0, r2, #4294967295	; 0xffffffff
    cdd4:	dcec      	bgt.n	cdb0 <_svfprintf_r+0x13f0>
    cdd6:	f101 0330 	add.w	r3, r1, #48	; 0x30
    cdda:	f10d 049b 	add.w	r4, sp, #155	; 0x9b
    cdde:	b2d9      	uxtb	r1, r3
    cde0:	4284      	cmp	r4, r0
    cde2:	f802 1c01 	strb.w	r1, [r2, #-1]
    cde6:	d95a      	bls.n	ce9e <_svfprintf_r+0x14de>
    cde8:	f10d 008d 	add.w	r0, sp, #141	; 0x8d
    cdec:	4613      	mov	r3, r2
    cdee:	e001      	b.n	cdf4 <_svfprintf_r+0x1434>
    cdf0:	f813 1b01 	ldrb.w	r1, [r3], #1
    cdf4:	42a3      	cmp	r3, r4
    cdf6:	f800 1f01 	strb.w	r1, [r0, #1]!
    cdfa:	d1f9      	bne.n	cdf0 <_svfprintf_r+0x1430>
    cdfc:	f50d 7c88 	add.w	ip, sp, #272	; 0x110
    ce00:	ebc2 034c 	rsb	r3, r2, ip, lsl #1
    ce04:	3bf6      	subs	r3, #246	; 0xf6
    ce06:	e777      	b.n	ccf8 <_svfprintf_r+0x1338>
    ce08:	9d10      	ldr	r5, [sp, #64]	; 0x40
    ce0a:	1c6c      	adds	r4, r5, #1
    ce0c:	ea24 73e4 	bic.w	r3, r4, r4, asr #31
    ce10:	f04f 0867 	mov.w	r8, #103	; 0x67
    ce14:	e66f      	b.n	caf6 <_svfprintf_r+0x1136>
    ce16:	9d06      	ldr	r5, [sp, #24]
    ce18:	1c6c      	adds	r4, r5, #1
    ce1a:	9d10      	ldr	r5, [sp, #64]	; 0x40
    ce1c:	442c      	add	r4, r5
    ce1e:	ea24 73e4 	bic.w	r3, r4, r4, asr #31
    ce22:	e668      	b.n	caf6 <_svfprintf_r+0x1136>
    ce24:	e9dd 011c 	ldrd	r0, r1, [sp, #112]	; 0x70
    ce28:	2200      	movs	r2, #0
    ce2a:	2300      	movs	r3, #0
    ce2c:	f7fd fd0a 	bl	a844 <__aeabi_dcmpeq>
    ce30:	2800      	cmp	r0, #0
    ce32:	f47f af74 	bne.w	cd1e <_svfprintf_r+0x135e>
    ce36:	f1c5 0501 	rsb	r5, r5, #1
    ce3a:	9521      	str	r5, [sp, #132]	; 0x84
    ce3c:	442c      	add	r4, r5
    ce3e:	e627      	b.n	ca90 <_svfprintf_r+0x10d0>
    ce40:	b9fc      	cbnz	r4, ce82 <_svfprintf_r+0x14c2>
    ce42:	9d05      	ldr	r5, [sp, #20]
    ce44:	07e9      	lsls	r1, r5, #31
    ce46:	d41c      	bmi.n	ce82 <_svfprintf_r+0x14c2>
    ce48:	2301      	movs	r3, #1
    ce4a:	461c      	mov	r4, r3
    ce4c:	e653      	b.n	caf6 <_svfprintf_r+0x1136>
    ce4e:	9d0c      	ldr	r5, [sp, #48]	; 0x30
    ce50:	f8dd c030 	ldr.w	ip, [sp, #48]	; 0x30
    ce54:	682d      	ldr	r5, [r5, #0]
    ce56:	f899 8001 	ldrb.w	r8, [r9, #1]
    ce5a:	9506      	str	r5, [sp, #24]
    ce5c:	f10c 0304 	add.w	r3, ip, #4
    ce60:	2d00      	cmp	r5, #0
    ce62:	930c      	str	r3, [sp, #48]	; 0x30
    ce64:	4681      	mov	r9, r0
    ce66:	f6be ae06 	bge.w	ba76 <_svfprintf_r+0xb6>
    ce6a:	f7fe be01 	b.w	ba70 <_svfprintf_r+0xb0>
    ce6e:	f8dd c014 	ldr.w	ip, [sp, #20]
    ce72:	f01c 0301 	ands.w	r3, ip, #1
    ce76:	f47f af48 	bne.w	cd0a <_svfprintf_r+0x134a>
    ce7a:	9310      	str	r3, [sp, #64]	; 0x40
    ce7c:	ea24 73e4 	bic.w	r3, r4, r4, asr #31
    ce80:	e639      	b.n	caf6 <_svfprintf_r+0x1136>
    ce82:	9d06      	ldr	r5, [sp, #24]
    ce84:	1cac      	adds	r4, r5, #2
    ce86:	ea24 73e4 	bic.w	r3, r4, r4, asr #31
    ce8a:	e634      	b.n	caf6 <_svfprintf_r+0x1136>
    ce8c:	9b21      	ldr	r3, [sp, #132]	; 0x84
    ce8e:	e71f      	b.n	ccd0 <_svfprintf_r+0x1310>
    ce90:	9d09      	ldr	r5, [sp, #36]	; 0x24
    ce92:	230c      	movs	r3, #12
    ce94:	602b      	str	r3, [r5, #0]
    ce96:	f04f 30ff 	mov.w	r0, #4294967295	; 0xffffffff
    ce9a:	f7fe beb0 	b.w	bbfe <_svfprintf_r+0x23e>
    ce9e:	f10d 038e 	add.w	r3, sp, #142	; 0x8e
    cea2:	e729      	b.n	ccf8 <_svfprintf_r+0x1338>
    cea4:	0001178c 	.word	0x0001178c
    cea8:	66666667 	.word	0x66666667
    ceac:	f3af 8000 	nop.w

0000ceb0 <_vfprintf_r>:
    ceb0:	e92d 4ff0 	stmdb	sp!, {r4, r5, r6, r7, r8, r9, sl, fp, lr}
    ceb4:	b0c5      	sub	sp, #276	; 0x114
    ceb6:	461c      	mov	r4, r3
    ceb8:	4689      	mov	r9, r1
    ceba:	9206      	str	r2, [sp, #24]
    cebc:	9009      	str	r0, [sp, #36]	; 0x24
    cebe:	f002 ff3f 	bl	fd40 <_localeconv_r>
    cec2:	6800      	ldr	r0, [r0, #0]
    cec4:	9011      	str	r0, [sp, #68]	; 0x44
    cec6:	f7fe fd4b 	bl	b960 <strlen>
    ceca:	9d09      	ldr	r5, [sp, #36]	; 0x24
    cecc:	9014      	str	r0, [sp, #80]	; 0x50
    cece:	940b      	str	r4, [sp, #44]	; 0x2c
    ced0:	b11d      	cbz	r5, ceda <_vfprintf_r+0x2a>
    ced2:	6bab      	ldr	r3, [r5, #56]	; 0x38
    ced4:	2b00      	cmp	r3, #0
    ced6:	f000 810b 	beq.w	d0f0 <_vfprintf_r+0x240>
    ceda:	f8b9 200c 	ldrh.w	r2, [r9, #12]
    cede:	b293      	uxth	r3, r2
    cee0:	0499      	lsls	r1, r3, #18
    cee2:	d40a      	bmi.n	cefa <_vfprintf_r+0x4a>
    cee4:	f8d9 1064 	ldr.w	r1, [r9, #100]	; 0x64
    cee8:	f442 5300 	orr.w	r3, r2, #8192	; 0x2000
    ceec:	f421 5100 	bic.w	r1, r1, #8192	; 0x2000
    cef0:	f8a9 300c 	strh.w	r3, [r9, #12]
    cef4:	f8c9 1064 	str.w	r1, [r9, #100]	; 0x64
    cef8:	b29b      	uxth	r3, r3
    cefa:	071a      	lsls	r2, r3, #28
    cefc:	f140 80c2 	bpl.w	d084 <_vfprintf_r+0x1d4>
    cf00:	f8d9 2010 	ldr.w	r2, [r9, #16]
    cf04:	2a00      	cmp	r2, #0
    cf06:	f000 80bd 	beq.w	d084 <_vfprintf_r+0x1d4>
    cf0a:	f003 031a 	and.w	r3, r3, #26
    cf0e:	2b0a      	cmp	r3, #10
    cf10:	f000 80c4 	beq.w	d09c <_vfprintf_r+0x1ec>
    cf14:	ed9f 7b7a 	vldr	d7, [pc, #488]	; d100 <_vfprintf_r+0x250>
    cf18:	ed8d 7b12 	vstr	d7, [sp, #72]	; 0x48
    cf1c:	2300      	movs	r3, #0
    cf1e:	ac34      	add	r4, sp, #208	; 0xd0
    cf20:	930d      	str	r3, [sp, #52]	; 0x34
    cf22:	9404      	str	r4, [sp, #16]
    cf24:	9329      	str	r3, [sp, #164]	; 0xa4
    cf26:	9328      	str	r3, [sp, #160]	; 0xa0
    cf28:	9316      	str	r3, [sp, #88]	; 0x58
    cf2a:	9315      	str	r3, [sp, #84]	; 0x54
    cf2c:	930c      	str	r3, [sp, #48]	; 0x30
    cf2e:	9427      	str	r4, [sp, #156]	; 0x9c
    cf30:	4626      	mov	r6, r4
    cf32:	f8dd c018 	ldr.w	ip, [sp, #24]
    cf36:	f89c 3000 	ldrb.w	r3, [ip]
    cf3a:	2b00      	cmp	r3, #0
    cf3c:	f000 80dc 	beq.w	d0f8 <_vfprintf_r+0x248>
    cf40:	2b25      	cmp	r3, #37	; 0x25
    cf42:	f000 80d9 	beq.w	d0f8 <_vfprintf_r+0x248>
    cf46:	f10c 0201 	add.w	r2, ip, #1
    cf4a:	e002      	b.n	cf52 <_vfprintf_r+0xa2>
    cf4c:	2b25      	cmp	r3, #37	; 0x25
    cf4e:	f000 808b 	beq.w	d068 <_vfprintf_r+0x1b8>
    cf52:	4614      	mov	r4, r2
    cf54:	3201      	adds	r2, #1
    cf56:	7823      	ldrb	r3, [r4, #0]
    cf58:	2b00      	cmp	r3, #0
    cf5a:	d1f7      	bne.n	cf4c <_vfprintf_r+0x9c>
    cf5c:	9806      	ldr	r0, [sp, #24]
    cf5e:	1a25      	subs	r5, r4, r0
    cf60:	b17d      	cbz	r5, cf82 <_vfprintf_r+0xd2>
    cf62:	9b28      	ldr	r3, [sp, #160]	; 0xa0
    cf64:	9a29      	ldr	r2, [sp, #164]	; 0xa4
    cf66:	9806      	ldr	r0, [sp, #24]
    cf68:	6030      	str	r0, [r6, #0]
    cf6a:	3301      	adds	r3, #1
    cf6c:	442a      	add	r2, r5
    cf6e:	2b07      	cmp	r3, #7
    cf70:	6075      	str	r5, [r6, #4]
    cf72:	9229      	str	r2, [sp, #164]	; 0xa4
    cf74:	9328      	str	r3, [sp, #160]	; 0xa0
    cf76:	f300 80a4 	bgt.w	d0c2 <_vfprintf_r+0x212>
    cf7a:	3608      	adds	r6, #8
    cf7c:	990c      	ldr	r1, [sp, #48]	; 0x30
    cf7e:	4429      	add	r1, r5
    cf80:	910c      	str	r1, [sp, #48]	; 0x30
    cf82:	7823      	ldrb	r3, [r4, #0]
    cf84:	2b00      	cmp	r3, #0
    cf86:	f000 80a4 	beq.w	d0d2 <_vfprintf_r+0x222>
    cf8a:	2300      	movs	r3, #0
    cf8c:	1c65      	adds	r5, r4, #1
    cf8e:	f894 8001 	ldrb.w	r8, [r4, #1]
    cf92:	f88d 307f 	strb.w	r3, [sp, #127]	; 0x7f
    cf96:	f04f 34ff 	mov.w	r4, #4294967295	; 0xffffffff
    cf9a:	461a      	mov	r2, r3
    cf9c:	930a      	str	r3, [sp, #40]	; 0x28
    cf9e:	9305      	str	r3, [sp, #20]
    cfa0:	9506      	str	r5, [sp, #24]
    cfa2:	9407      	str	r4, [sp, #28]
    cfa4:	462b      	mov	r3, r5
    cfa6:	3301      	adds	r3, #1
    cfa8:	f1a8 0120 	sub.w	r1, r8, #32
    cfac:	2958      	cmp	r1, #88	; 0x58
    cfae:	f200 83fe 	bhi.w	d7ae <_vfprintf_r+0x8fe>
    cfb2:	e8df f011 	tbh	[pc, r1, lsl #1]
    cfb6:	023d      	.short	0x023d
    cfb8:	03fc03fc 	.word	0x03fc03fc
    cfbc:	03fc0309 	.word	0x03fc0309
    cfc0:	03fc03fc 	.word	0x03fc03fc
    cfc4:	03fc03fc 	.word	0x03fc03fc
    cfc8:	024403fc 	.word	0x024403fc
    cfcc:	03fc0239 	.word	0x03fc0239
    cfd0:	033b0060 	.word	0x033b0060
    cfd4:	037b03fc 	.word	0x037b03fc
    cfd8:	03820382 	.word	0x03820382
    cfdc:	03820382 	.word	0x03820382
    cfe0:	03820382 	.word	0x03820382
    cfe4:	03820382 	.word	0x03820382
    cfe8:	03fc0382 	.word	0x03fc0382
    cfec:	03fc03fc 	.word	0x03fc03fc
    cff0:	03fc03fc 	.word	0x03fc03fc
    cff4:	03fc03fc 	.word	0x03fc03fc
    cff8:	03fc03fc 	.word	0x03fc03fc
    cffc:	035903fc 	.word	0x035903fc
    d000:	03fc03a3 	.word	0x03fc03a3
    d004:	03fc03a3 	.word	0x03fc03a3
    d008:	03fc03fc 	.word	0x03fc03fc
    d00c:	039303fc 	.word	0x039303fc
    d010:	03fc03fc 	.word	0x03fc03fc
    d014:	03fc03da 	.word	0x03fc03da
    d018:	03fc03fc 	.word	0x03fc03fc
    d01c:	03fc03fc 	.word	0x03fc03fc
    d020:	03fc02a9 	.word	0x03fc02a9
    d024:	02c903fc 	.word	0x02c903fc
    d028:	03fc03fc 	.word	0x03fc03fc
    d02c:	03fc03fc 	.word	0x03fc03fc
    d030:	03fc03fc 	.word	0x03fc03fc
    d034:	03fc03fc 	.word	0x03fc03fc
    d038:	03fc03fc 	.word	0x03fc03fc
    d03c:	03220310 	.word	0x03220310
    d040:	03a303a3 	.word	0x03a303a3
    d044:	02df03a3 	.word	0x02df03a3
    d048:	03fc0322 	.word	0x03fc0322
    d04c:	02e803fc 	.word	0x02e803fc
    d050:	02f403fc 	.word	0x02f403fc
    d054:	02220210 	.word	0x02220210
    d058:	03fc0251 	.word	0x03fc0251
    d05c:	03fc025a 	.word	0x03fc025a
    d060:	03fc00a9 	.word	0x03fc00a9
    d064:	028103fc 	.word	0x028103fc
    d068:	9906      	ldr	r1, [sp, #24]
    d06a:	1a65      	subs	r5, r4, r1
    d06c:	e778      	b.n	cf60 <_vfprintf_r+0xb0>
    d06e:	9c0a      	ldr	r4, [sp, #40]	; 0x28
    d070:	910b      	str	r1, [sp, #44]	; 0x2c
    d072:	4264      	negs	r4, r4
    d074:	940a      	str	r4, [sp, #40]	; 0x28
    d076:	9d05      	ldr	r5, [sp, #20]
    d078:	f045 0504 	orr.w	r5, r5, #4
    d07c:	9505      	str	r5, [sp, #20]
    d07e:	f893 8000 	ldrb.w	r8, [r3]
    d082:	e790      	b.n	cfa6 <_vfprintf_r+0xf6>
    d084:	9809      	ldr	r0, [sp, #36]	; 0x24
    d086:	4649      	mov	r1, r9
    d088:	f001 f9ee 	bl	e468 <__swsetup_r>
    d08c:	b9a0      	cbnz	r0, d0b8 <_vfprintf_r+0x208>
    d08e:	f8b9 300c 	ldrh.w	r3, [r9, #12]
    d092:	f003 031a 	and.w	r3, r3, #26
    d096:	2b0a      	cmp	r3, #10
    d098:	f47f af3c 	bne.w	cf14 <_vfprintf_r+0x64>
    d09c:	f9b9 300e 	ldrsh.w	r3, [r9, #14]
    d0a0:	2b00      	cmp	r3, #0
    d0a2:	f6ff af37 	blt.w	cf14 <_vfprintf_r+0x64>
    d0a6:	9809      	ldr	r0, [sp, #36]	; 0x24
    d0a8:	9a06      	ldr	r2, [sp, #24]
    d0aa:	4649      	mov	r1, r9
    d0ac:	4623      	mov	r3, r4
    d0ae:	f001 f99f 	bl	e3f0 <__sbprintf>
    d0b2:	b045      	add	sp, #276	; 0x114
    d0b4:	e8bd 8ff0 	ldmia.w	sp!, {r4, r5, r6, r7, r8, r9, sl, fp, pc}
    d0b8:	f04f 30ff 	mov.w	r0, #4294967295	; 0xffffffff
    d0bc:	b045      	add	sp, #276	; 0x114
    d0be:	e8bd 8ff0 	ldmia.w	sp!, {r4, r5, r6, r7, r8, r9, sl, fp, pc}
    d0c2:	9809      	ldr	r0, [sp, #36]	; 0x24
    d0c4:	4649      	mov	r1, r9
    d0c6:	aa27      	add	r2, sp, #156	; 0x9c
    d0c8:	f003 fd40 	bl	10b4c <__sprint_r>
    d0cc:	b940      	cbnz	r0, d0e0 <_vfprintf_r+0x230>
    d0ce:	ae34      	add	r6, sp, #208	; 0xd0
    d0d0:	e754      	b.n	cf7c <_vfprintf_r+0xcc>
    d0d2:	9b29      	ldr	r3, [sp, #164]	; 0xa4
    d0d4:	b123      	cbz	r3, d0e0 <_vfprintf_r+0x230>
    d0d6:	9809      	ldr	r0, [sp, #36]	; 0x24
    d0d8:	4649      	mov	r1, r9
    d0da:	aa27      	add	r2, sp, #156	; 0x9c
    d0dc:	f003 fd36 	bl	10b4c <__sprint_r>
    d0e0:	f8b9 300c 	ldrh.w	r3, [r9, #12]
    d0e4:	065b      	lsls	r3, r3, #25
    d0e6:	d4e7      	bmi.n	d0b8 <_vfprintf_r+0x208>
    d0e8:	980c      	ldr	r0, [sp, #48]	; 0x30
    d0ea:	b045      	add	sp, #276	; 0x114
    d0ec:	e8bd 8ff0 	ldmia.w	sp!, {r4, r5, r6, r7, r8, r9, sl, fp, pc}
    d0f0:	4628      	mov	r0, r5
    d0f2:	f002 fab7 	bl	f664 <__sinit>
    d0f6:	e6f0      	b.n	ceda <_vfprintf_r+0x2a>
    d0f8:	9c06      	ldr	r4, [sp, #24]
    d0fa:	e742      	b.n	cf82 <_vfprintf_r+0xd2>
    d0fc:	f3af 8000 	nop.w
	...
    d108:	9c05      	ldr	r4, [sp, #20]
    d10a:	9306      	str	r3, [sp, #24]
    d10c:	06a2      	lsls	r2, r4, #26
    d10e:	f140 8206 	bpl.w	d51e <_vfprintf_r+0x66e>
    d112:	9d0b      	ldr	r5, [sp, #44]	; 0x2c
    d114:	1deb      	adds	r3, r5, #7
    d116:	f023 0307 	bic.w	r3, r3, #7
    d11a:	f103 0c08 	add.w	ip, r3, #8
    d11e:	e9d3 4500 	ldrd	r4, r5, [r3]
    d122:	f8cd c02c 	str.w	ip, [sp, #44]	; 0x2c
    d126:	2301      	movs	r3, #1
    d128:	f04f 0a00 	mov.w	sl, #0
    d12c:	f88d a07f 	strb.w	sl, [sp, #127]	; 0x7f
    d130:	9907      	ldr	r1, [sp, #28]
    d132:	2900      	cmp	r1, #0
    d134:	db05      	blt.n	d142 <_vfprintf_r+0x292>
    d136:	f8dd c014 	ldr.w	ip, [sp, #20]
    d13a:	f02c 0c80 	bic.w	ip, ip, #128	; 0x80
    d13e:	f8cd c014 	str.w	ip, [sp, #20]
    d142:	ea54 0005 	orrs.w	r0, r4, r5
    d146:	f040 834b 	bne.w	d7e0 <_vfprintf_r+0x930>
    d14a:	9907      	ldr	r1, [sp, #28]
    d14c:	2900      	cmp	r1, #0
    d14e:	f040 8347 	bne.w	d7e0 <_vfprintf_r+0x930>
    d152:	2b00      	cmp	r3, #0
    d154:	f040 84bd 	bne.w	dad2 <_vfprintf_r+0xc22>
    d158:	f8dd c014 	ldr.w	ip, [sp, #20]
    d15c:	f01c 0f01 	tst.w	ip, #1
    d160:	f000 84b7 	beq.w	dad2 <_vfprintf_r+0xc22>
    d164:	af44      	add	r7, sp, #272	; 0x110
    d166:	2330      	movs	r3, #48	; 0x30
    d168:	f807 3d41 	strb.w	r3, [r7, #-65]!
    d16c:	9d04      	ldr	r5, [sp, #16]
    d16e:	1bec      	subs	r4, r5, r7
    d170:	f8dd c01c 	ldr.w	ip, [sp, #28]
    d174:	2500      	movs	r5, #0
    d176:	4564      	cmp	r4, ip
    d178:	bfa8      	it	ge
    d17a:	46a4      	movge	ip, r4
    d17c:	f8cd c020 	str.w	ip, [sp, #32]
    d180:	9510      	str	r5, [sp, #64]	; 0x40
    d182:	f1ba 0f00 	cmp.w	sl, #0
    d186:	d002      	beq.n	d18e <_vfprintf_r+0x2de>
    d188:	9d08      	ldr	r5, [sp, #32]
    d18a:	3501      	adds	r5, #1
    d18c:	9508      	str	r5, [sp, #32]
    d18e:	9b05      	ldr	r3, [sp, #20]
    d190:	f013 0302 	ands.w	r3, r3, #2
    d194:	930e      	str	r3, [sp, #56]	; 0x38
    d196:	d002      	beq.n	d19e <_vfprintf_r+0x2ee>
    d198:	9d08      	ldr	r5, [sp, #32]
    d19a:	3502      	adds	r5, #2
    d19c:	9508      	str	r5, [sp, #32]
    d19e:	f8dd c014 	ldr.w	ip, [sp, #20]
    d1a2:	f01c 0c84 	ands.w	ip, ip, #132	; 0x84
    d1a6:	f8cd c03c 	str.w	ip, [sp, #60]	; 0x3c
    d1aa:	f040 8316 	bne.w	d7da <_vfprintf_r+0x92a>
    d1ae:	9d0a      	ldr	r5, [sp, #40]	; 0x28
    d1b0:	f8dd c020 	ldr.w	ip, [sp, #32]
    d1b4:	ebcc 0b05 	rsb	fp, ip, r5
    d1b8:	f1bb 0f00 	cmp.w	fp, #0
    d1bc:	f340 830d 	ble.w	d7da <_vfprintf_r+0x92a>
    d1c0:	f1bb 0f10 	cmp.w	fp, #16
    d1c4:	9929      	ldr	r1, [sp, #164]	; 0xa4
    d1c6:	9a28      	ldr	r2, [sp, #160]	; 0xa0
    d1c8:	f8df a528 	ldr.w	sl, [pc, #1320]	; d6f4 <_vfprintf_r+0x844>
    d1cc:	dd27      	ble.n	d21e <_vfprintf_r+0x36e>
    d1ce:	9717      	str	r7, [sp, #92]	; 0x5c
    d1d0:	2510      	movs	r5, #16
    d1d2:	4657      	mov	r7, sl
    d1d4:	46a2      	mov	sl, r4
    d1d6:	9c09      	ldr	r4, [sp, #36]	; 0x24
    d1d8:	e006      	b.n	d1e8 <_vfprintf_r+0x338>
    d1da:	f1ab 0b10 	sub.w	fp, fp, #16
    d1de:	f1bb 0f10 	cmp.w	fp, #16
    d1e2:	f106 0608 	add.w	r6, r6, #8
    d1e6:	dd17      	ble.n	d218 <_vfprintf_r+0x368>
    d1e8:	3201      	adds	r2, #1
    d1ea:	3110      	adds	r1, #16
    d1ec:	2a07      	cmp	r2, #7
    d1ee:	9129      	str	r1, [sp, #164]	; 0xa4
    d1f0:	9228      	str	r2, [sp, #160]	; 0xa0
    d1f2:	6037      	str	r7, [r6, #0]
    d1f4:	6075      	str	r5, [r6, #4]
    d1f6:	ddf0      	ble.n	d1da <_vfprintf_r+0x32a>
    d1f8:	4620      	mov	r0, r4
    d1fa:	4649      	mov	r1, r9
    d1fc:	aa27      	add	r2, sp, #156	; 0x9c
    d1fe:	f003 fca5 	bl	10b4c <__sprint_r>
    d202:	2800      	cmp	r0, #0
    d204:	f47f af6c 	bne.w	d0e0 <_vfprintf_r+0x230>
    d208:	f1ab 0b10 	sub.w	fp, fp, #16
    d20c:	f1bb 0f10 	cmp.w	fp, #16
    d210:	9929      	ldr	r1, [sp, #164]	; 0xa4
    d212:	9a28      	ldr	r2, [sp, #160]	; 0xa0
    d214:	ae34      	add	r6, sp, #208	; 0xd0
    d216:	dce7      	bgt.n	d1e8 <_vfprintf_r+0x338>
    d218:	4654      	mov	r4, sl
    d21a:	46ba      	mov	sl, r7
    d21c:	9f17      	ldr	r7, [sp, #92]	; 0x5c
    d21e:	3201      	adds	r2, #1
    d220:	eb0b 0c01 	add.w	ip, fp, r1
    d224:	2a07      	cmp	r2, #7
    d226:	f8cd c0a4 	str.w	ip, [sp, #164]	; 0xa4
    d22a:	9228      	str	r2, [sp, #160]	; 0xa0
    d22c:	e886 0c00 	stmia.w	r6, {sl, fp}
    d230:	f300 849e 	bgt.w	db70 <_vfprintf_r+0xcc0>
    d234:	f89d a07f 	ldrb.w	sl, [sp, #127]	; 0x7f
    d238:	3608      	adds	r6, #8
    d23a:	f1ba 0f00 	cmp.w	sl, #0
    d23e:	d00f      	beq.n	d260 <_vfprintf_r+0x3b0>
    d240:	9b28      	ldr	r3, [sp, #160]	; 0xa0
    d242:	3301      	adds	r3, #1
    d244:	f10c 0c01 	add.w	ip, ip, #1
    d248:	f10d 017f 	add.w	r1, sp, #127	; 0x7f
    d24c:	2201      	movs	r2, #1
    d24e:	2b07      	cmp	r3, #7
    d250:	f8cd c0a4 	str.w	ip, [sp, #164]	; 0xa4
    d254:	9328      	str	r3, [sp, #160]	; 0xa0
    d256:	e886 0006 	stmia.w	r6, {r1, r2}
    d25a:	f300 8420 	bgt.w	da9e <_vfprintf_r+0xbee>
    d25e:	3608      	adds	r6, #8
    d260:	9b0e      	ldr	r3, [sp, #56]	; 0x38
    d262:	b173      	cbz	r3, d282 <_vfprintf_r+0x3d2>
    d264:	9b28      	ldr	r3, [sp, #160]	; 0xa0
    d266:	3301      	adds	r3, #1
    d268:	f10c 0c02 	add.w	ip, ip, #2
    d26c:	a920      	add	r1, sp, #128	; 0x80
    d26e:	2202      	movs	r2, #2
    d270:	2b07      	cmp	r3, #7
    d272:	f8cd c0a4 	str.w	ip, [sp, #164]	; 0xa4
    d276:	9328      	str	r3, [sp, #160]	; 0xa0
    d278:	e886 0006 	stmia.w	r6, {r1, r2}
    d27c:	f300 841c 	bgt.w	dab8 <_vfprintf_r+0xc08>
    d280:	3608      	adds	r6, #8
    d282:	9d0f      	ldr	r5, [sp, #60]	; 0x3c
    d284:	2d80      	cmp	r5, #128	; 0x80
    d286:	f000 834c 	beq.w	d922 <_vfprintf_r+0xa72>
    d28a:	9a07      	ldr	r2, [sp, #28]
    d28c:	1b15      	subs	r5, r2, r4
    d28e:	2d00      	cmp	r5, #0
    d290:	dd3d      	ble.n	d30e <_vfprintf_r+0x45e>
    d292:	2d10      	cmp	r5, #16
    d294:	9b28      	ldr	r3, [sp, #160]	; 0xa0
    d296:	f8df a460 	ldr.w	sl, [pc, #1120]	; d6f8 <_vfprintf_r+0x848>
    d29a:	dd2c      	ble.n	d2f6 <_vfprintf_r+0x446>
    d29c:	4651      	mov	r1, sl
    d29e:	9407      	str	r4, [sp, #28]
    d2a0:	46aa      	mov	sl, r5
    d2a2:	f04f 0b10 	mov.w	fp, #16
    d2a6:	4662      	mov	r2, ip
    d2a8:	9c09      	ldr	r4, [sp, #36]	; 0x24
    d2aa:	460d      	mov	r5, r1
    d2ac:	e006      	b.n	d2bc <_vfprintf_r+0x40c>
    d2ae:	f1aa 0a10 	sub.w	sl, sl, #16
    d2b2:	f1ba 0f10 	cmp.w	sl, #16
    d2b6:	f106 0608 	add.w	r6, r6, #8
    d2ba:	dd17      	ble.n	d2ec <_vfprintf_r+0x43c>
    d2bc:	3301      	adds	r3, #1
    d2be:	3210      	adds	r2, #16
    d2c0:	2b07      	cmp	r3, #7
    d2c2:	9229      	str	r2, [sp, #164]	; 0xa4
    d2c4:	9328      	str	r3, [sp, #160]	; 0xa0
    d2c6:	e886 0820 	stmia.w	r6, {r5, fp}
    d2ca:	ddf0      	ble.n	d2ae <_vfprintf_r+0x3fe>
    d2cc:	4620      	mov	r0, r4
    d2ce:	4649      	mov	r1, r9
    d2d0:	aa27      	add	r2, sp, #156	; 0x9c
    d2d2:	f003 fc3b 	bl	10b4c <__sprint_r>
    d2d6:	2800      	cmp	r0, #0
    d2d8:	f47f af02 	bne.w	d0e0 <_vfprintf_r+0x230>
    d2dc:	f1aa 0a10 	sub.w	sl, sl, #16
    d2e0:	f1ba 0f10 	cmp.w	sl, #16
    d2e4:	9a29      	ldr	r2, [sp, #164]	; 0xa4
    d2e6:	9b28      	ldr	r3, [sp, #160]	; 0xa0
    d2e8:	ae34      	add	r6, sp, #208	; 0xd0
    d2ea:	dce7      	bgt.n	d2bc <_vfprintf_r+0x40c>
    d2ec:	4694      	mov	ip, r2
    d2ee:	9c07      	ldr	r4, [sp, #28]
    d2f0:	462a      	mov	r2, r5
    d2f2:	4655      	mov	r5, sl
    d2f4:	4692      	mov	sl, r2
    d2f6:	3301      	adds	r3, #1
    d2f8:	44ac      	add	ip, r5
    d2fa:	2b07      	cmp	r3, #7
    d2fc:	f8cd c0a4 	str.w	ip, [sp, #164]	; 0xa4
    d300:	9328      	str	r3, [sp, #160]	; 0xa0
    d302:	f8c6 a000 	str.w	sl, [r6]
    d306:	6075      	str	r5, [r6, #4]
    d308:	f300 83bd 	bgt.w	da86 <_vfprintf_r+0xbd6>
    d30c:	3608      	adds	r6, #8
    d30e:	9d05      	ldr	r5, [sp, #20]
    d310:	05eb      	lsls	r3, r5, #23
    d312:	f100 82a6 	bmi.w	d862 <_vfprintf_r+0x9b2>
    d316:	9b28      	ldr	r3, [sp, #160]	; 0xa0
    d318:	6037      	str	r7, [r6, #0]
    d31a:	3301      	adds	r3, #1
    d31c:	44a4      	add	ip, r4
    d31e:	2b07      	cmp	r3, #7
    d320:	f8cd c0a4 	str.w	ip, [sp, #164]	; 0xa4
    d324:	6074      	str	r4, [r6, #4]
    d326:	9328      	str	r3, [sp, #160]	; 0xa0
    d328:	f300 8397 	bgt.w	da5a <_vfprintf_r+0xbaa>
    d32c:	3608      	adds	r6, #8
    d32e:	9c05      	ldr	r4, [sp, #20]
    d330:	0762      	lsls	r2, r4, #29
    d332:	d540      	bpl.n	d3b6 <_vfprintf_r+0x506>
    d334:	9d0a      	ldr	r5, [sp, #40]	; 0x28
    d336:	9808      	ldr	r0, [sp, #32]
    d338:	1a2c      	subs	r4, r5, r0
    d33a:	2c00      	cmp	r4, #0
    d33c:	dd3b      	ble.n	d3b6 <_vfprintf_r+0x506>
    d33e:	2c10      	cmp	r4, #16
    d340:	9b28      	ldr	r3, [sp, #160]	; 0xa0
    d342:	f8df a3b0 	ldr.w	sl, [pc, #944]	; d6f4 <_vfprintf_r+0x844>
    d346:	dd22      	ble.n	d38e <_vfprintf_r+0x4de>
    d348:	2510      	movs	r5, #16
    d34a:	4662      	mov	r2, ip
    d34c:	f8dd 8024 	ldr.w	r8, [sp, #36]	; 0x24
    d350:	4657      	mov	r7, sl
    d352:	e004      	b.n	d35e <_vfprintf_r+0x4ae>
    d354:	3c10      	subs	r4, #16
    d356:	2c10      	cmp	r4, #16
    d358:	f106 0608 	add.w	r6, r6, #8
    d35c:	dd15      	ble.n	d38a <_vfprintf_r+0x4da>
    d35e:	3301      	adds	r3, #1
    d360:	3210      	adds	r2, #16
    d362:	2b07      	cmp	r3, #7
    d364:	9229      	str	r2, [sp, #164]	; 0xa4
    d366:	9328      	str	r3, [sp, #160]	; 0xa0
    d368:	6037      	str	r7, [r6, #0]
    d36a:	6075      	str	r5, [r6, #4]
    d36c:	ddf2      	ble.n	d354 <_vfprintf_r+0x4a4>
    d36e:	4640      	mov	r0, r8
    d370:	4649      	mov	r1, r9
    d372:	aa27      	add	r2, sp, #156	; 0x9c
    d374:	f003 fbea 	bl	10b4c <__sprint_r>
    d378:	2800      	cmp	r0, #0
    d37a:	f47f aeb1 	bne.w	d0e0 <_vfprintf_r+0x230>
    d37e:	3c10      	subs	r4, #16
    d380:	2c10      	cmp	r4, #16
    d382:	9a29      	ldr	r2, [sp, #164]	; 0xa4
    d384:	9b28      	ldr	r3, [sp, #160]	; 0xa0
    d386:	ae34      	add	r6, sp, #208	; 0xd0
    d388:	dce9      	bgt.n	d35e <_vfprintf_r+0x4ae>
    d38a:	4694      	mov	ip, r2
    d38c:	46ba      	mov	sl, r7
    d38e:	3301      	adds	r3, #1
    d390:	44a4      	add	ip, r4
    d392:	2b07      	cmp	r3, #7
    d394:	f8cd c0a4 	str.w	ip, [sp, #164]	; 0xa4
    d398:	9328      	str	r3, [sp, #160]	; 0xa0
    d39a:	f8c6 a000 	str.w	sl, [r6]
    d39e:	6074      	str	r4, [r6, #4]
    d3a0:	dd09      	ble.n	d3b6 <_vfprintf_r+0x506>
    d3a2:	9809      	ldr	r0, [sp, #36]	; 0x24
    d3a4:	4649      	mov	r1, r9
    d3a6:	aa27      	add	r2, sp, #156	; 0x9c
    d3a8:	f003 fbd0 	bl	10b4c <__sprint_r>
    d3ac:	2800      	cmp	r0, #0
    d3ae:	f47f ae97 	bne.w	d0e0 <_vfprintf_r+0x230>
    d3b2:	f8dd c0a4 	ldr.w	ip, [sp, #164]	; 0xa4
    d3b6:	9c0c      	ldr	r4, [sp, #48]	; 0x30
    d3b8:	9808      	ldr	r0, [sp, #32]
    d3ba:	9d0a      	ldr	r5, [sp, #40]	; 0x28
    d3bc:	42a8      	cmp	r0, r5
    d3be:	bfac      	ite	ge
    d3c0:	1824      	addge	r4, r4, r0
    d3c2:	1964      	addlt	r4, r4, r5
    d3c4:	940c      	str	r4, [sp, #48]	; 0x30
    d3c6:	f1bc 0f00 	cmp.w	ip, #0
    d3ca:	f040 8352 	bne.w	da72 <_vfprintf_r+0xbc2>
    d3ce:	2300      	movs	r3, #0
    d3d0:	9328      	str	r3, [sp, #160]	; 0xa0
    d3d2:	ae34      	add	r6, sp, #208	; 0xd0
    d3d4:	e5ad      	b.n	cf32 <_vfprintf_r+0x82>
    d3d6:	f8dd c014 	ldr.w	ip, [sp, #20]
    d3da:	9306      	str	r3, [sp, #24]
    d3dc:	f01c 0320 	ands.w	r3, ip, #32
    d3e0:	f000 81ce 	beq.w	d780 <_vfprintf_r+0x8d0>
    d3e4:	9c0b      	ldr	r4, [sp, #44]	; 0x2c
    d3e6:	1de3      	adds	r3, r4, #7
    d3e8:	f023 0307 	bic.w	r3, r3, #7
    d3ec:	f103 0508 	add.w	r5, r3, #8
    d3f0:	950b      	str	r5, [sp, #44]	; 0x2c
    d3f2:	e9d3 4500 	ldrd	r4, r5, [r3]
    d3f6:	2300      	movs	r3, #0
    d3f8:	e696      	b.n	d128 <_vfprintf_r+0x278>
    d3fa:	9a0b      	ldr	r2, [sp, #44]	; 0x2c
    d3fc:	f8dd c014 	ldr.w	ip, [sp, #20]
    d400:	9306      	str	r3, [sp, #24]
    d402:	1d15      	adds	r5, r2, #4
    d404:	2330      	movs	r3, #48	; 0x30
    d406:	f04f 0878 	mov.w	r8, #120	; 0x78
    d40a:	f04c 0c02 	orr.w	ip, ip, #2
    d40e:	48b7      	ldr	r0, [pc, #732]	; (d6ec <_vfprintf_r+0x83c>)
    d410:	f88d 3080 	strb.w	r3, [sp, #128]	; 0x80
    d414:	950b      	str	r5, [sp, #44]	; 0x2c
    d416:	6814      	ldr	r4, [r2, #0]
    d418:	f8cd c014 	str.w	ip, [sp, #20]
    d41c:	2500      	movs	r5, #0
    d41e:	f88d 8081 	strb.w	r8, [sp, #129]	; 0x81
    d422:	9016      	str	r0, [sp, #88]	; 0x58
    d424:	2302      	movs	r3, #2
    d426:	e67f      	b.n	d128 <_vfprintf_r+0x278>
    d428:	f893 8000 	ldrb.w	r8, [r3]
    d42c:	222b      	movs	r2, #43	; 0x2b
    d42e:	e5ba      	b.n	cfa6 <_vfprintf_r+0xf6>
    d430:	f893 8000 	ldrb.w	r8, [r3]
    d434:	2a00      	cmp	r2, #0
    d436:	f47f adb6 	bne.w	cfa6 <_vfprintf_r+0xf6>
    d43a:	2220      	movs	r2, #32
    d43c:	e5b3      	b.n	cfa6 <_vfprintf_r+0xf6>
    d43e:	9c0b      	ldr	r4, [sp, #44]	; 0x2c
    d440:	9d0b      	ldr	r5, [sp, #44]	; 0x2c
    d442:	6824      	ldr	r4, [r4, #0]
    d444:	940a      	str	r4, [sp, #40]	; 0x28
    d446:	2c00      	cmp	r4, #0
    d448:	f105 0104 	add.w	r1, r5, #4
    d44c:	f6ff ae0f 	blt.w	d06e <_vfprintf_r+0x1be>
    d450:	910b      	str	r1, [sp, #44]	; 0x2c
    d452:	f893 8000 	ldrb.w	r8, [r3]
    d456:	e5a6      	b.n	cfa6 <_vfprintf_r+0xf6>
    d458:	f8dd c014 	ldr.w	ip, [sp, #20]
    d45c:	f04c 0c20 	orr.w	ip, ip, #32
    d460:	f8cd c014 	str.w	ip, [sp, #20]
    d464:	f893 8000 	ldrb.w	r8, [r3]
    d468:	e59d      	b.n	cfa6 <_vfprintf_r+0xf6>
    d46a:	9c0b      	ldr	r4, [sp, #44]	; 0x2c
    d46c:	9306      	str	r3, [sp, #24]
    d46e:	6827      	ldr	r7, [r4, #0]
    d470:	f04f 0a00 	mov.w	sl, #0
    d474:	f88d a07f 	strb.w	sl, [sp, #127]	; 0x7f
    d478:	1d25      	adds	r5, r4, #4
    d47a:	2f00      	cmp	r7, #0
    d47c:	f000 8679 	beq.w	e172 <_vfprintf_r+0x12c2>
    d480:	9c07      	ldr	r4, [sp, #28]
    d482:	2c00      	cmp	r4, #0
    d484:	4638      	mov	r0, r7
    d486:	f2c0 862e 	blt.w	e0e6 <_vfprintf_r+0x1236>
    d48a:	4651      	mov	r1, sl
    d48c:	4622      	mov	r2, r4
    d48e:	f002 fccb 	bl	fe28 <memchr>
    d492:	2800      	cmp	r0, #0
    d494:	f000 86b2 	beq.w	e1fc <_vfprintf_r+0x134c>
    d498:	9c07      	ldr	r4, [sp, #28]
    d49a:	950b      	str	r5, [sp, #44]	; 0x2c
    d49c:	1bc0      	subs	r0, r0, r7
    d49e:	42a0      	cmp	r0, r4
    d4a0:	bfb8      	it	lt
    d4a2:	4604      	movlt	r4, r0
    d4a4:	ea24 75e4 	bic.w	r5, r4, r4, asr #31
    d4a8:	f8cd a01c 	str.w	sl, [sp, #28]
    d4ac:	f8cd a040 	str.w	sl, [sp, #64]	; 0x40
    d4b0:	9508      	str	r5, [sp, #32]
    d4b2:	f89d a07f 	ldrb.w	sl, [sp, #127]	; 0x7f
    d4b6:	e664      	b.n	d182 <_vfprintf_r+0x2d2>
    d4b8:	9d05      	ldr	r5, [sp, #20]
    d4ba:	4c8c      	ldr	r4, [pc, #560]	; (d6ec <_vfprintf_r+0x83c>)
    d4bc:	9306      	str	r3, [sp, #24]
    d4be:	06af      	lsls	r7, r5, #26
    d4c0:	9416      	str	r4, [sp, #88]	; 0x58
    d4c2:	f88d 207f 	strb.w	r2, [sp, #127]	; 0x7f
    d4c6:	d547      	bpl.n	d558 <_vfprintf_r+0x6a8>
    d4c8:	f8dd c02c 	ldr.w	ip, [sp, #44]	; 0x2c
    d4cc:	f10c 0307 	add.w	r3, ip, #7
    d4d0:	f023 0307 	bic.w	r3, r3, #7
    d4d4:	f103 0408 	add.w	r4, r3, #8
    d4d8:	940b      	str	r4, [sp, #44]	; 0x2c
    d4da:	e9d3 4500 	ldrd	r4, r5, [r3]
    d4de:	f8dd c014 	ldr.w	ip, [sp, #20]
    d4e2:	f01c 0f01 	tst.w	ip, #1
    d4e6:	f000 82f8 	beq.w	dada <_vfprintf_r+0xc2a>
    d4ea:	ea54 0005 	orrs.w	r0, r4, r5
    d4ee:	f000 82f4 	beq.w	dada <_vfprintf_r+0xc2a>
    d4f2:	2330      	movs	r3, #48	; 0x30
    d4f4:	f04c 0c02 	orr.w	ip, ip, #2
    d4f8:	f88d 3080 	strb.w	r3, [sp, #128]	; 0x80
    d4fc:	f88d 8081 	strb.w	r8, [sp, #129]	; 0x81
    d500:	f8cd c014 	str.w	ip, [sp, #20]
    d504:	2302      	movs	r3, #2
    d506:	e60f      	b.n	d128 <_vfprintf_r+0x278>
    d508:	f8dd c014 	ldr.w	ip, [sp, #20]
    d50c:	9306      	str	r3, [sp, #24]
    d50e:	f04c 0c10 	orr.w	ip, ip, #16
    d512:	f8cd c014 	str.w	ip, [sp, #20]
    d516:	9c05      	ldr	r4, [sp, #20]
    d518:	06a2      	lsls	r2, r4, #26
    d51a:	f53f adfa 	bmi.w	d112 <_vfprintf_r+0x262>
    d51e:	9c05      	ldr	r4, [sp, #20]
    d520:	06e3      	lsls	r3, r4, #27
    d522:	f100 8334 	bmi.w	db8e <_vfprintf_r+0xcde>
    d526:	f8dd c014 	ldr.w	ip, [sp, #20]
    d52a:	f01c 0f40 	tst.w	ip, #64	; 0x40
    d52e:	f000 832e 	beq.w	db8e <_vfprintf_r+0xcde>
    d532:	f8dd c02c 	ldr.w	ip, [sp, #44]	; 0x2c
    d536:	f8bc 4000 	ldrh.w	r4, [ip]
    d53a:	f10c 0c04 	add.w	ip, ip, #4
    d53e:	2500      	movs	r5, #0
    d540:	2301      	movs	r3, #1
    d542:	f8cd c02c 	str.w	ip, [sp, #44]	; 0x2c
    d546:	e5ef      	b.n	d128 <_vfprintf_r+0x278>
    d548:	9d05      	ldr	r5, [sp, #20]
    d54a:	4c69      	ldr	r4, [pc, #420]	; (d6f0 <_vfprintf_r+0x840>)
    d54c:	9306      	str	r3, [sp, #24]
    d54e:	06af      	lsls	r7, r5, #26
    d550:	f88d 207f 	strb.w	r2, [sp, #127]	; 0x7f
    d554:	9416      	str	r4, [sp, #88]	; 0x58
    d556:	d4b7      	bmi.n	d4c8 <_vfprintf_r+0x618>
    d558:	9d05      	ldr	r5, [sp, #20]
    d55a:	06ed      	lsls	r5, r5, #27
    d55c:	f140 84ef 	bpl.w	df3e <_vfprintf_r+0x108e>
    d560:	f8dd c02c 	ldr.w	ip, [sp, #44]	; 0x2c
    d564:	f8dc 4000 	ldr.w	r4, [ip]
    d568:	f10c 0c04 	add.w	ip, ip, #4
    d56c:	f8cd c02c 	str.w	ip, [sp, #44]	; 0x2c
    d570:	2500      	movs	r5, #0
    d572:	e7b4      	b.n	d4de <_vfprintf_r+0x62e>
    d574:	f8dd c014 	ldr.w	ip, [sp, #20]
    d578:	f04c 0c40 	orr.w	ip, ip, #64	; 0x40
    d57c:	f8cd c014 	str.w	ip, [sp, #20]
    d580:	f893 8000 	ldrb.w	r8, [r3]
    d584:	e50f      	b.n	cfa6 <_vfprintf_r+0xf6>
    d586:	f893 8000 	ldrb.w	r8, [r3]
    d58a:	f1b8 0f6c 	cmp.w	r8, #108	; 0x6c
    d58e:	4619      	mov	r1, r3
    d590:	f000 857b 	beq.w	e08a <_vfprintf_r+0x11da>
    d594:	9d05      	ldr	r5, [sp, #20]
    d596:	f045 0510 	orr.w	r5, r5, #16
    d59a:	9505      	str	r5, [sp, #20]
    d59c:	e503      	b.n	cfa6 <_vfprintf_r+0xf6>
    d59e:	f8dd c014 	ldr.w	ip, [sp, #20]
    d5a2:	9306      	str	r3, [sp, #24]
    d5a4:	f01c 0f20 	tst.w	ip, #32
    d5a8:	f88d 207f 	strb.w	r2, [sp, #127]	; 0x7f
    d5ac:	f000 84a7 	beq.w	defe <_vfprintf_r+0x104e>
    d5b0:	9c0b      	ldr	r4, [sp, #44]	; 0x2c
    d5b2:	6821      	ldr	r1, [r4, #0]
    d5b4:	9c0c      	ldr	r4, [sp, #48]	; 0x30
    d5b6:	17e5      	asrs	r5, r4, #31
    d5b8:	462b      	mov	r3, r5
    d5ba:	9d0b      	ldr	r5, [sp, #44]	; 0x2c
    d5bc:	4622      	mov	r2, r4
    d5be:	3504      	adds	r5, #4
    d5c0:	950b      	str	r5, [sp, #44]	; 0x2c
    d5c2:	e9c1 2300 	strd	r2, r3, [r1]
    d5c6:	e4b4      	b.n	cf32 <_vfprintf_r+0x82>
    d5c8:	9d05      	ldr	r5, [sp, #20]
    d5ca:	f045 0501 	orr.w	r5, r5, #1
    d5ce:	9505      	str	r5, [sp, #20]
    d5d0:	f893 8000 	ldrb.w	r8, [r3]
    d5d4:	e4e7      	b.n	cfa6 <_vfprintf_r+0xf6>
    d5d6:	9a0b      	ldr	r2, [sp, #44]	; 0x2c
    d5d8:	9d0b      	ldr	r5, [sp, #44]	; 0x2c
    d5da:	9306      	str	r3, [sp, #24]
    d5dc:	6812      	ldr	r2, [r2, #0]
    d5de:	f88d 20a8 	strb.w	r2, [sp, #168]	; 0xa8
    d5e2:	2300      	movs	r3, #0
    d5e4:	2401      	movs	r4, #1
    d5e6:	3504      	adds	r5, #4
    d5e8:	469a      	mov	sl, r3
    d5ea:	9408      	str	r4, [sp, #32]
    d5ec:	950b      	str	r5, [sp, #44]	; 0x2c
    d5ee:	f88d 307f 	strb.w	r3, [sp, #127]	; 0x7f
    d5f2:	9307      	str	r3, [sp, #28]
    d5f4:	9310      	str	r3, [sp, #64]	; 0x40
    d5f6:	af2a      	add	r7, sp, #168	; 0xa8
    d5f8:	e5c9      	b.n	d18e <_vfprintf_r+0x2de>
    d5fa:	9c05      	ldr	r4, [sp, #20]
    d5fc:	9306      	str	r3, [sp, #24]
    d5fe:	06a3      	lsls	r3, r4, #26
    d600:	f88d 207f 	strb.w	r2, [sp, #127]	; 0x7f
    d604:	d53c      	bpl.n	d680 <_vfprintf_r+0x7d0>
    d606:	9d0b      	ldr	r5, [sp, #44]	; 0x2c
    d608:	1de9      	adds	r1, r5, #7
    d60a:	f021 0107 	bic.w	r1, r1, #7
    d60e:	e9d1 2300 	ldrd	r2, r3, [r1]
    d612:	3108      	adds	r1, #8
    d614:	910b      	str	r1, [sp, #44]	; 0x2c
    d616:	4614      	mov	r4, r2
    d618:	461d      	mov	r5, r3
    d61a:	2a00      	cmp	r2, #0
    d61c:	f173 0000 	sbcs.w	r0, r3, #0
    d620:	f2c0 83d1 	blt.w	ddc6 <_vfprintf_r+0xf16>
    d624:	f89d a07f 	ldrb.w	sl, [sp, #127]	; 0x7f
    d628:	2301      	movs	r3, #1
    d62a:	e581      	b.n	d130 <_vfprintf_r+0x280>
    d62c:	f893 8000 	ldrb.w	r8, [r3]
    d630:	f1b8 0f2a 	cmp.w	r8, #42	; 0x2a
    d634:	f103 0001 	add.w	r0, r3, #1
    d638:	f000 86b8 	beq.w	e3ac <_vfprintf_r+0x14fc>
    d63c:	f1a8 0130 	sub.w	r1, r8, #48	; 0x30
    d640:	2909      	cmp	r1, #9
    d642:	bf98      	it	ls
    d644:	2300      	movls	r3, #0
    d646:	f200 8629 	bhi.w	e29c <_vfprintf_r+0x13ec>
    d64a:	f810 8b01 	ldrb.w	r8, [r0], #1
    d64e:	eb03 0383 	add.w	r3, r3, r3, lsl #2
    d652:	eb01 0343 	add.w	r3, r1, r3, lsl #1
    d656:	f1a8 0130 	sub.w	r1, r8, #48	; 0x30
    d65a:	2909      	cmp	r1, #9
    d65c:	d9f5      	bls.n	d64a <_vfprintf_r+0x79a>
    d65e:	ea43 73e3 	orr.w	r3, r3, r3, asr #31
    d662:	9307      	str	r3, [sp, #28]
    d664:	4603      	mov	r3, r0
    d666:	e49f      	b.n	cfa8 <_vfprintf_r+0xf8>
    d668:	f8dd c014 	ldr.w	ip, [sp, #20]
    d66c:	9306      	str	r3, [sp, #24]
    d66e:	f04c 0c10 	orr.w	ip, ip, #16
    d672:	f8cd c014 	str.w	ip, [sp, #20]
    d676:	9c05      	ldr	r4, [sp, #20]
    d678:	f88d 207f 	strb.w	r2, [sp, #127]	; 0x7f
    d67c:	06a3      	lsls	r3, r4, #26
    d67e:	d4c2      	bmi.n	d606 <_vfprintf_r+0x756>
    d680:	f8dd c014 	ldr.w	ip, [sp, #20]
    d684:	f01c 0f10 	tst.w	ip, #16
    d688:	f040 82b3 	bne.w	dbf2 <_vfprintf_r+0xd42>
    d68c:	9c05      	ldr	r4, [sp, #20]
    d68e:	0667      	lsls	r7, r4, #25
    d690:	f140 82af 	bpl.w	dbf2 <_vfprintf_r+0xd42>
    d694:	f8dd c02c 	ldr.w	ip, [sp, #44]	; 0x2c
    d698:	f9bc 4000 	ldrsh.w	r4, [ip]
    d69c:	f10c 0c04 	add.w	ip, ip, #4
    d6a0:	17e5      	asrs	r5, r4, #31
    d6a2:	4622      	mov	r2, r4
    d6a4:	462b      	mov	r3, r5
    d6a6:	f8cd c02c 	str.w	ip, [sp, #44]	; 0x2c
    d6aa:	e7b6      	b.n	d61a <_vfprintf_r+0x76a>
    d6ac:	9d05      	ldr	r5, [sp, #20]
    d6ae:	f045 0580 	orr.w	r5, r5, #128	; 0x80
    d6b2:	9505      	str	r5, [sp, #20]
    d6b4:	f893 8000 	ldrb.w	r8, [r3]
    d6b8:	e475      	b.n	cfa6 <_vfprintf_r+0xf6>
    d6ba:	2400      	movs	r4, #0
    d6bc:	f1a8 0130 	sub.w	r1, r8, #48	; 0x30
    d6c0:	940a      	str	r4, [sp, #40]	; 0x28
    d6c2:	4620      	mov	r0, r4
    d6c4:	f813 8b01 	ldrb.w	r8, [r3], #1
    d6c8:	eb00 0080 	add.w	r0, r0, r0, lsl #2
    d6cc:	eb01 0040 	add.w	r0, r1, r0, lsl #1
    d6d0:	f1a8 0130 	sub.w	r1, r8, #48	; 0x30
    d6d4:	2909      	cmp	r1, #9
    d6d6:	d9f5      	bls.n	d6c4 <_vfprintf_r+0x814>
    d6d8:	900a      	str	r0, [sp, #40]	; 0x28
    d6da:	e465      	b.n	cfa8 <_vfprintf_r+0xf8>
    d6dc:	9d05      	ldr	r5, [sp, #20]
    d6de:	f045 0508 	orr.w	r5, r5, #8
    d6e2:	9505      	str	r5, [sp, #20]
    d6e4:	f893 8000 	ldrb.w	r8, [r3]
    d6e8:	e45d      	b.n	cfa6 <_vfprintf_r+0xf6>
    d6ea:	bf00      	nop
    d6ec:	00011778 	.word	0x00011778
    d6f0:	00011764 	.word	0x00011764
    d6f4:	000117a8 	.word	0x000117a8
    d6f8:	000117b8 	.word	0x000117b8
    d6fc:	9c05      	ldr	r4, [sp, #20]
    d6fe:	9306      	str	r3, [sp, #24]
    d700:	0725      	lsls	r5, r4, #28
    d702:	f88d 207f 	strb.w	r2, [sp, #127]	; 0x7f
    d706:	f140 840e 	bpl.w	df26 <_vfprintf_r+0x1076>
    d70a:	9d0b      	ldr	r5, [sp, #44]	; 0x2c
    d70c:	1deb      	adds	r3, r5, #7
    d70e:	f023 0307 	bic.w	r3, r3, #7
    d712:	ed93 7b00 	vldr	d7, [r3]
    d716:	ed8d 7b12 	vstr	d7, [sp, #72]	; 0x48
    d71a:	f103 0c08 	add.w	ip, r3, #8
    d71e:	f8cd c02c 	str.w	ip, [sp, #44]	; 0x2c
    d722:	ed9d 0b12 	vldr	d0, [sp, #72]	; 0x48
    d726:	f7fc fc43 	bl	9fb0 <__fpclassifyd>
    d72a:	2801      	cmp	r0, #1
    d72c:	f040 8355 	bne.w	ddda <_vfprintf_r+0xf2a>
    d730:	e9dd 0112 	ldrd	r0, r1, [sp, #72]	; 0x48
    d734:	2200      	movs	r2, #0
    d736:	2300      	movs	r3, #0
    d738:	f7fd f88e 	bl	a858 <__aeabi_dcmplt>
    d73c:	2800      	cmp	r0, #0
    d73e:	f040 8533 	bne.w	e1a8 <_vfprintf_r+0x12f8>
    d742:	f89d a07f 	ldrb.w	sl, [sp, #127]	; 0x7f
    d746:	f8dd c014 	ldr.w	ip, [sp, #20]
    d74a:	4f9f      	ldr	r7, [pc, #636]	; (d9c8 <_vfprintf_r+0xb18>)
    d74c:	4b9f      	ldr	r3, [pc, #636]	; (d9cc <_vfprintf_r+0xb1c>)
    d74e:	2500      	movs	r5, #0
    d750:	2403      	movs	r4, #3
    d752:	f02c 0c80 	bic.w	ip, ip, #128	; 0x80
    d756:	9408      	str	r4, [sp, #32]
    d758:	9507      	str	r5, [sp, #28]
    d75a:	f8cd c014 	str.w	ip, [sp, #20]
    d75e:	f1b8 0f47 	cmp.w	r8, #71	; 0x47
    d762:	bfd8      	it	le
    d764:	461f      	movle	r7, r3
    d766:	9510      	str	r5, [sp, #64]	; 0x40
    d768:	e50b      	b.n	d182 <_vfprintf_r+0x2d2>
    d76a:	9d05      	ldr	r5, [sp, #20]
    d76c:	9306      	str	r3, [sp, #24]
    d76e:	f045 0510 	orr.w	r5, r5, #16
    d772:	9505      	str	r5, [sp, #20]
    d774:	f8dd c014 	ldr.w	ip, [sp, #20]
    d778:	f01c 0320 	ands.w	r3, ip, #32
    d77c:	f47f ae32 	bne.w	d3e4 <_vfprintf_r+0x534>
    d780:	f8dd c014 	ldr.w	ip, [sp, #20]
    d784:	f01c 0210 	ands.w	r2, ip, #16
    d788:	f040 823f 	bne.w	dc0a <_vfprintf_r+0xd5a>
    d78c:	f8dd c014 	ldr.w	ip, [sp, #20]
    d790:	f01c 0340 	ands.w	r3, ip, #64	; 0x40
    d794:	f000 8239 	beq.w	dc0a <_vfprintf_r+0xd5a>
    d798:	f8dd c02c 	ldr.w	ip, [sp, #44]	; 0x2c
    d79c:	f8bc 4000 	ldrh.w	r4, [ip]
    d7a0:	f10c 0c04 	add.w	ip, ip, #4
    d7a4:	4613      	mov	r3, r2
    d7a6:	2500      	movs	r5, #0
    d7a8:	f8cd c02c 	str.w	ip, [sp, #44]	; 0x2c
    d7ac:	e4bc      	b.n	d128 <_vfprintf_r+0x278>
    d7ae:	9306      	str	r3, [sp, #24]
    d7b0:	f88d 207f 	strb.w	r2, [sp, #127]	; 0x7f
    d7b4:	f1b8 0f00 	cmp.w	r8, #0
    d7b8:	f43f ac8b 	beq.w	d0d2 <_vfprintf_r+0x222>
    d7bc:	2300      	movs	r3, #0
    d7be:	f04f 0c01 	mov.w	ip, #1
    d7c2:	469a      	mov	sl, r3
    d7c4:	f8cd c020 	str.w	ip, [sp, #32]
    d7c8:	f88d 80a8 	strb.w	r8, [sp, #168]	; 0xa8
    d7cc:	f88d 307f 	strb.w	r3, [sp, #127]	; 0x7f
    d7d0:	9307      	str	r3, [sp, #28]
    d7d2:	9310      	str	r3, [sp, #64]	; 0x40
    d7d4:	4664      	mov	r4, ip
    d7d6:	af2a      	add	r7, sp, #168	; 0xa8
    d7d8:	e4d9      	b.n	d18e <_vfprintf_r+0x2de>
    d7da:	f8dd c0a4 	ldr.w	ip, [sp, #164]	; 0xa4
    d7de:	e52c      	b.n	d23a <_vfprintf_r+0x38a>
    d7e0:	2b01      	cmp	r3, #1
    d7e2:	f000 80e3 	beq.w	d9ac <_vfprintf_r+0xafc>
    d7e6:	2b02      	cmp	r3, #2
    d7e8:	f10d 03cf 	add.w	r3, sp, #207	; 0xcf
    d7ec:	d118      	bne.n	d820 <_vfprintf_r+0x970>
    d7ee:	f8dd c058 	ldr.w	ip, [sp, #88]	; 0x58
    d7f2:	4619      	mov	r1, r3
    d7f4:	f004 000f 	and.w	r0, r4, #15
    d7f8:	0922      	lsrs	r2, r4, #4
    d7fa:	ea42 7205 	orr.w	r2, r2, r5, lsl #28
    d7fe:	460f      	mov	r7, r1
    d800:	092b      	lsrs	r3, r5, #4
    d802:	f81c 1000 	ldrb.w	r1, [ip, r0]
    d806:	7039      	strb	r1, [r7, #0]
    d808:	ea52 0003 	orrs.w	r0, r2, r3
    d80c:	4614      	mov	r4, r2
    d80e:	461d      	mov	r5, r3
    d810:	f107 31ff 	add.w	r1, r7, #4294967295	; 0xffffffff
    d814:	d1ee      	bne.n	d7f4 <_vfprintf_r+0x944>
    d816:	9d04      	ldr	r5, [sp, #16]
    d818:	e9cd 231a 	strd	r2, r3, [sp, #104]	; 0x68
    d81c:	1bec      	subs	r4, r5, r7
    d81e:	e4a7      	b.n	d170 <_vfprintf_r+0x2c0>
    d820:	08e0      	lsrs	r0, r4, #3
    d822:	ea40 7045 	orr.w	r0, r0, r5, lsl #29
    d826:	f004 0207 	and.w	r2, r4, #7
    d82a:	08e9      	lsrs	r1, r5, #3
    d82c:	3230      	adds	r2, #48	; 0x30
    d82e:	ea50 0c01 	orrs.w	ip, r0, r1
    d832:	461f      	mov	r7, r3
    d834:	701a      	strb	r2, [r3, #0]
    d836:	4604      	mov	r4, r0
    d838:	460d      	mov	r5, r1
    d83a:	f103 33ff 	add.w	r3, r3, #4294967295	; 0xffffffff
    d83e:	d1ef      	bne.n	d820 <_vfprintf_r+0x970>
    d840:	9c05      	ldr	r4, [sp, #20]
    d842:	e9cd 0118 	strd	r0, r1, [sp, #96]	; 0x60
    d846:	07e0      	lsls	r0, r4, #31
    d848:	4639      	mov	r1, r7
    d84a:	f140 80b8 	bpl.w	d9be <_vfprintf_r+0xb0e>
    d84e:	2a30      	cmp	r2, #48	; 0x30
    d850:	f000 80b5 	beq.w	d9be <_vfprintf_r+0xb0e>
    d854:	9d04      	ldr	r5, [sp, #16]
    d856:	461f      	mov	r7, r3
    d858:	2330      	movs	r3, #48	; 0x30
    d85a:	1bec      	subs	r4, r5, r7
    d85c:	f801 3c01 	strb.w	r3, [r1, #-1]
    d860:	e486      	b.n	d170 <_vfprintf_r+0x2c0>
    d862:	f1b8 0f65 	cmp.w	r8, #101	; 0x65
    d866:	f340 80b7 	ble.w	d9d8 <_vfprintf_r+0xb28>
    d86a:	e9dd 0112 	ldrd	r0, r1, [sp, #72]	; 0x48
    d86e:	2200      	movs	r2, #0
    d870:	2300      	movs	r3, #0
    d872:	f8cd c00c 	str.w	ip, [sp, #12]
    d876:	f7fc ffe5 	bl	a844 <__aeabi_dcmpeq>
    d87a:	f8dd c00c 	ldr.w	ip, [sp, #12]
    d87e:	2800      	cmp	r0, #0
    d880:	f000 812e 	beq.w	dae0 <_vfprintf_r+0xc30>
    d884:	9b28      	ldr	r3, [sp, #160]	; 0xa0
    d886:	4a52      	ldr	r2, [pc, #328]	; (d9d0 <_vfprintf_r+0xb20>)
    d888:	6032      	str	r2, [r6, #0]
    d88a:	3301      	adds	r3, #1
    d88c:	f10c 0c01 	add.w	ip, ip, #1
    d890:	2201      	movs	r2, #1
    d892:	2b07      	cmp	r3, #7
    d894:	f8cd c0a4 	str.w	ip, [sp, #164]	; 0xa4
    d898:	9328      	str	r3, [sp, #160]	; 0xa0
    d89a:	6072      	str	r2, [r6, #4]
    d89c:	f300 836f 	bgt.w	df7e <_vfprintf_r+0x10ce>
    d8a0:	3608      	adds	r6, #8
    d8a2:	9b21      	ldr	r3, [sp, #132]	; 0x84
    d8a4:	9c0d      	ldr	r4, [sp, #52]	; 0x34
    d8a6:	42a3      	cmp	r3, r4
    d8a8:	db03      	blt.n	d8b2 <_vfprintf_r+0xa02>
    d8aa:	9d05      	ldr	r5, [sp, #20]
    d8ac:	07ef      	lsls	r7, r5, #31
    d8ae:	f57f ad3e 	bpl.w	d32e <_vfprintf_r+0x47e>
    d8b2:	9b28      	ldr	r3, [sp, #160]	; 0xa0
    d8b4:	9d14      	ldr	r5, [sp, #80]	; 0x50
    d8b6:	9c11      	ldr	r4, [sp, #68]	; 0x44
    d8b8:	6034      	str	r4, [r6, #0]
    d8ba:	3301      	adds	r3, #1
    d8bc:	44ac      	add	ip, r5
    d8be:	2b07      	cmp	r3, #7
    d8c0:	f8cd c0a4 	str.w	ip, [sp, #164]	; 0xa4
    d8c4:	6075      	str	r5, [r6, #4]
    d8c6:	9328      	str	r3, [sp, #160]	; 0xa0
    d8c8:	f300 83e8 	bgt.w	e09c <_vfprintf_r+0x11ec>
    d8cc:	3608      	adds	r6, #8
    d8ce:	9d0d      	ldr	r5, [sp, #52]	; 0x34
    d8d0:	1e6c      	subs	r4, r5, #1
    d8d2:	2c00      	cmp	r4, #0
    d8d4:	f77f ad2b 	ble.w	d32e <_vfprintf_r+0x47e>
    d8d8:	2c10      	cmp	r4, #16
    d8da:	9b28      	ldr	r3, [sp, #160]	; 0xa0
    d8dc:	f8df a0f4 	ldr.w	sl, [pc, #244]	; d9d4 <_vfprintf_r+0xb24>
    d8e0:	f340 819c 	ble.w	dc1c <_vfprintf_r+0xd6c>
    d8e4:	2510      	movs	r5, #16
    d8e6:	4662      	mov	r2, ip
    d8e8:	f8dd 8024 	ldr.w	r8, [sp, #36]	; 0x24
    d8ec:	4657      	mov	r7, sl
    d8ee:	e004      	b.n	d8fa <_vfprintf_r+0xa4a>
    d8f0:	3608      	adds	r6, #8
    d8f2:	3c10      	subs	r4, #16
    d8f4:	2c10      	cmp	r4, #16
    d8f6:	f340 818f 	ble.w	dc18 <_vfprintf_r+0xd68>
    d8fa:	3301      	adds	r3, #1
    d8fc:	3210      	adds	r2, #16
    d8fe:	2b07      	cmp	r3, #7
    d900:	9229      	str	r2, [sp, #164]	; 0xa4
    d902:	9328      	str	r3, [sp, #160]	; 0xa0
    d904:	6037      	str	r7, [r6, #0]
    d906:	6075      	str	r5, [r6, #4]
    d908:	ddf2      	ble.n	d8f0 <_vfprintf_r+0xa40>
    d90a:	4640      	mov	r0, r8
    d90c:	4649      	mov	r1, r9
    d90e:	aa27      	add	r2, sp, #156	; 0x9c
    d910:	f003 f91c 	bl	10b4c <__sprint_r>
    d914:	2800      	cmp	r0, #0
    d916:	f47f abe3 	bne.w	d0e0 <_vfprintf_r+0x230>
    d91a:	9a29      	ldr	r2, [sp, #164]	; 0xa4
    d91c:	9b28      	ldr	r3, [sp, #160]	; 0xa0
    d91e:	ae34      	add	r6, sp, #208	; 0xd0
    d920:	e7e7      	b.n	d8f2 <_vfprintf_r+0xa42>
    d922:	980a      	ldr	r0, [sp, #40]	; 0x28
    d924:	9908      	ldr	r1, [sp, #32]
    d926:	1a45      	subs	r5, r0, r1
    d928:	2d00      	cmp	r5, #0
    d92a:	f77f acae 	ble.w	d28a <_vfprintf_r+0x3da>
    d92e:	2d10      	cmp	r5, #16
    d930:	9b28      	ldr	r3, [sp, #160]	; 0xa0
    d932:	f8df a0a0 	ldr.w	sl, [pc, #160]	; d9d4 <_vfprintf_r+0xb24>
    d936:	dd2c      	ble.n	d992 <_vfprintf_r+0xae2>
    d938:	4651      	mov	r1, sl
    d93a:	940e      	str	r4, [sp, #56]	; 0x38
    d93c:	46aa      	mov	sl, r5
    d93e:	f04f 0b10 	mov.w	fp, #16
    d942:	4662      	mov	r2, ip
    d944:	9c09      	ldr	r4, [sp, #36]	; 0x24
    d946:	460d      	mov	r5, r1
    d948:	e006      	b.n	d958 <_vfprintf_r+0xaa8>
    d94a:	f1aa 0a10 	sub.w	sl, sl, #16
    d94e:	f1ba 0f10 	cmp.w	sl, #16
    d952:	f106 0608 	add.w	r6, r6, #8
    d956:	dd17      	ble.n	d988 <_vfprintf_r+0xad8>
    d958:	3301      	adds	r3, #1
    d95a:	3210      	adds	r2, #16
    d95c:	2b07      	cmp	r3, #7
    d95e:	9229      	str	r2, [sp, #164]	; 0xa4
    d960:	9328      	str	r3, [sp, #160]	; 0xa0
    d962:	e886 0820 	stmia.w	r6, {r5, fp}
    d966:	ddf0      	ble.n	d94a <_vfprintf_r+0xa9a>
    d968:	4620      	mov	r0, r4
    d96a:	4649      	mov	r1, r9
    d96c:	aa27      	add	r2, sp, #156	; 0x9c
    d96e:	f003 f8ed 	bl	10b4c <__sprint_r>
    d972:	2800      	cmp	r0, #0
    d974:	f47f abb4 	bne.w	d0e0 <_vfprintf_r+0x230>
    d978:	f1aa 0a10 	sub.w	sl, sl, #16
    d97c:	f1ba 0f10 	cmp.w	sl, #16
    d980:	9a29      	ldr	r2, [sp, #164]	; 0xa4
    d982:	9b28      	ldr	r3, [sp, #160]	; 0xa0
    d984:	ae34      	add	r6, sp, #208	; 0xd0
    d986:	dce7      	bgt.n	d958 <_vfprintf_r+0xaa8>
    d988:	4694      	mov	ip, r2
    d98a:	9c0e      	ldr	r4, [sp, #56]	; 0x38
    d98c:	462a      	mov	r2, r5
    d98e:	4655      	mov	r5, sl
    d990:	4692      	mov	sl, r2
    d992:	3301      	adds	r3, #1
    d994:	44ac      	add	ip, r5
    d996:	2b07      	cmp	r3, #7
    d998:	f8cd c0a4 	str.w	ip, [sp, #164]	; 0xa4
    d99c:	9328      	str	r3, [sp, #160]	; 0xa0
    d99e:	f8c6 a000 	str.w	sl, [r6]
    d9a2:	6075      	str	r5, [r6, #4]
    d9a4:	f300 8202 	bgt.w	ddac <_vfprintf_r+0xefc>
    d9a8:	3608      	adds	r6, #8
    d9aa:	e46e      	b.n	d28a <_vfprintf_r+0x3da>
    d9ac:	2d00      	cmp	r5, #0
    d9ae:	bf08      	it	eq
    d9b0:	2c0a      	cmpeq	r4, #10
    d9b2:	f080 813f 	bcs.w	dc34 <_vfprintf_r+0xd84>
    d9b6:	af44      	add	r7, sp, #272	; 0x110
    d9b8:	3430      	adds	r4, #48	; 0x30
    d9ba:	f807 4d41 	strb.w	r4, [r7, #-65]!
    d9be:	9d04      	ldr	r5, [sp, #16]
    d9c0:	1bec      	subs	r4, r5, r7
    d9c2:	f7ff bbd5 	b.w	d170 <_vfprintf_r+0x2c0>
    d9c6:	bf00      	nop
    d9c8:	00011758 	.word	0x00011758
    d9cc:	00011754 	.word	0x00011754
    d9d0:	00011794 	.word	0x00011794
    d9d4:	000117b8 	.word	0x000117b8
    d9d8:	9c0d      	ldr	r4, [sp, #52]	; 0x34
    d9da:	2c01      	cmp	r4, #1
    d9dc:	9c28      	ldr	r4, [sp, #160]	; 0xa0
    d9de:	f340 81a7 	ble.w	dd30 <_vfprintf_r+0xe80>
    d9e2:	3401      	adds	r4, #1
    d9e4:	f10c 0501 	add.w	r5, ip, #1
    d9e8:	2301      	movs	r3, #1
    d9ea:	2c07      	cmp	r4, #7
    d9ec:	9529      	str	r5, [sp, #164]	; 0xa4
    d9ee:	9428      	str	r4, [sp, #160]	; 0xa0
    d9f0:	6037      	str	r7, [r6, #0]
    d9f2:	6073      	str	r3, [r6, #4]
    d9f4:	f300 81b7 	bgt.w	dd66 <_vfprintf_r+0xeb6>
    d9f8:	3608      	adds	r6, #8
    d9fa:	9814      	ldr	r0, [sp, #80]	; 0x50
    d9fc:	9911      	ldr	r1, [sp, #68]	; 0x44
    d9fe:	6031      	str	r1, [r6, #0]
    da00:	3401      	adds	r4, #1
    da02:	4405      	add	r5, r0
    da04:	2c07      	cmp	r4, #7
    da06:	9529      	str	r5, [sp, #164]	; 0xa4
    da08:	9428      	str	r4, [sp, #160]	; 0xa0
    da0a:	6070      	str	r0, [r6, #4]
    da0c:	f300 81c2 	bgt.w	dd94 <_vfprintf_r+0xee4>
    da10:	3608      	adds	r6, #8
    da12:	e9dd 0112 	ldrd	r0, r1, [sp, #72]	; 0x48
    da16:	2200      	movs	r2, #0
    da18:	2300      	movs	r3, #0
    da1a:	f7fc ff13 	bl	a844 <__aeabi_dcmpeq>
    da1e:	2800      	cmp	r0, #0
    da20:	f040 80bd 	bne.w	db9e <_vfprintf_r+0xcee>
    da24:	9a0d      	ldr	r2, [sp, #52]	; 0x34
    da26:	3401      	adds	r4, #1
    da28:	1e53      	subs	r3, r2, #1
    da2a:	3701      	adds	r7, #1
    da2c:	441d      	add	r5, r3
    da2e:	2c07      	cmp	r4, #7
    da30:	9428      	str	r4, [sp, #160]	; 0xa0
    da32:	9529      	str	r5, [sp, #164]	; 0xa4
    da34:	6037      	str	r7, [r6, #0]
    da36:	6073      	str	r3, [r6, #4]
    da38:	f300 8189 	bgt.w	dd4e <_vfprintf_r+0xe9e>
    da3c:	3608      	adds	r6, #8
    da3e:	f8dd c054 	ldr.w	ip, [sp, #84]	; 0x54
    da42:	3401      	adds	r4, #1
    da44:	44ac      	add	ip, r5
    da46:	9d15      	ldr	r5, [sp, #84]	; 0x54
    da48:	f8cd c0a4 	str.w	ip, [sp, #164]	; 0xa4
    da4c:	ab23      	add	r3, sp, #140	; 0x8c
    da4e:	2c07      	cmp	r4, #7
    da50:	9428      	str	r4, [sp, #160]	; 0xa0
    da52:	e886 0028 	stmia.w	r6, {r3, r5}
    da56:	f77f ac69 	ble.w	d32c <_vfprintf_r+0x47c>
    da5a:	9809      	ldr	r0, [sp, #36]	; 0x24
    da5c:	4649      	mov	r1, r9
    da5e:	aa27      	add	r2, sp, #156	; 0x9c
    da60:	f003 f874 	bl	10b4c <__sprint_r>
    da64:	2800      	cmp	r0, #0
    da66:	f47f ab3b 	bne.w	d0e0 <_vfprintf_r+0x230>
    da6a:	f8dd c0a4 	ldr.w	ip, [sp, #164]	; 0xa4
    da6e:	ae34      	add	r6, sp, #208	; 0xd0
    da70:	e45d      	b.n	d32e <_vfprintf_r+0x47e>
    da72:	9809      	ldr	r0, [sp, #36]	; 0x24
    da74:	4649      	mov	r1, r9
    da76:	aa27      	add	r2, sp, #156	; 0x9c
    da78:	f003 f868 	bl	10b4c <__sprint_r>
    da7c:	2800      	cmp	r0, #0
    da7e:	f43f aca6 	beq.w	d3ce <_vfprintf_r+0x51e>
    da82:	f7ff bb2d 	b.w	d0e0 <_vfprintf_r+0x230>
    da86:	9809      	ldr	r0, [sp, #36]	; 0x24
    da88:	4649      	mov	r1, r9
    da8a:	aa27      	add	r2, sp, #156	; 0x9c
    da8c:	f003 f85e 	bl	10b4c <__sprint_r>
    da90:	2800      	cmp	r0, #0
    da92:	f47f ab25 	bne.w	d0e0 <_vfprintf_r+0x230>
    da96:	f8dd c0a4 	ldr.w	ip, [sp, #164]	; 0xa4
    da9a:	ae34      	add	r6, sp, #208	; 0xd0
    da9c:	e437      	b.n	d30e <_vfprintf_r+0x45e>
    da9e:	9809      	ldr	r0, [sp, #36]	; 0x24
    daa0:	4649      	mov	r1, r9
    daa2:	aa27      	add	r2, sp, #156	; 0x9c
    daa4:	f003 f852 	bl	10b4c <__sprint_r>
    daa8:	2800      	cmp	r0, #0
    daaa:	f47f ab19 	bne.w	d0e0 <_vfprintf_r+0x230>
    daae:	f8dd c0a4 	ldr.w	ip, [sp, #164]	; 0xa4
    dab2:	ae34      	add	r6, sp, #208	; 0xd0
    dab4:	f7ff bbd4 	b.w	d260 <_vfprintf_r+0x3b0>
    dab8:	9809      	ldr	r0, [sp, #36]	; 0x24
    daba:	4649      	mov	r1, r9
    dabc:	aa27      	add	r2, sp, #156	; 0x9c
    dabe:	f003 f845 	bl	10b4c <__sprint_r>
    dac2:	2800      	cmp	r0, #0
    dac4:	f47f ab0c 	bne.w	d0e0 <_vfprintf_r+0x230>
    dac8:	f8dd c0a4 	ldr.w	ip, [sp, #164]	; 0xa4
    dacc:	ae34      	add	r6, sp, #208	; 0xd0
    dace:	f7ff bbd8 	b.w	d282 <_vfprintf_r+0x3d2>
    dad2:	9c07      	ldr	r4, [sp, #28]
    dad4:	af34      	add	r7, sp, #208	; 0xd0
    dad6:	f7ff bb4b 	b.w	d170 <_vfprintf_r+0x2c0>
    dada:	2302      	movs	r3, #2
    dadc:	f7ff bb24 	b.w	d128 <_vfprintf_r+0x278>
    dae0:	9b21      	ldr	r3, [sp, #132]	; 0x84
    dae2:	2b00      	cmp	r3, #0
    dae4:	f340 8257 	ble.w	df96 <_vfprintf_r+0x10e6>
    dae8:	9c0d      	ldr	r4, [sp, #52]	; 0x34
    daea:	9d10      	ldr	r5, [sp, #64]	; 0x40
    daec:	f8dd 8034 	ldr.w	r8, [sp, #52]	; 0x34
    daf0:	42ac      	cmp	r4, r5
    daf2:	bfa8      	it	ge
    daf4:	462c      	movge	r4, r5
    daf6:	2c00      	cmp	r4, #0
    daf8:	44b8      	add	r8, r7
    dafa:	dd0b      	ble.n	db14 <_vfprintf_r+0xc64>
    dafc:	9b28      	ldr	r3, [sp, #160]	; 0xa0
    dafe:	6037      	str	r7, [r6, #0]
    db00:	3301      	adds	r3, #1
    db02:	44a4      	add	ip, r4
    db04:	2b07      	cmp	r3, #7
    db06:	f8cd c0a4 	str.w	ip, [sp, #164]	; 0xa4
    db0a:	6074      	str	r4, [r6, #4]
    db0c:	9328      	str	r3, [sp, #160]	; 0xa0
    db0e:	f300 82fa 	bgt.w	e106 <_vfprintf_r+0x1256>
    db12:	3608      	adds	r6, #8
    db14:	9d10      	ldr	r5, [sp, #64]	; 0x40
    db16:	ea24 74e4 	bic.w	r4, r4, r4, asr #31
    db1a:	1b2c      	subs	r4, r5, r4
    db1c:	2c00      	cmp	r4, #0
    db1e:	f340 80b1 	ble.w	dc84 <_vfprintf_r+0xdd4>
    db22:	2c10      	cmp	r4, #16
    db24:	9b28      	ldr	r3, [sp, #160]	; 0xa0
    db26:	f8df a70c 	ldr.w	sl, [pc, #1804]	; e234 <_vfprintf_r+0x1384>
    db2a:	f340 821b 	ble.w	df64 <_vfprintf_r+0x10b4>
    db2e:	4651      	mov	r1, sl
    db30:	2510      	movs	r5, #16
    db32:	46ba      	mov	sl, r7
    db34:	4662      	mov	r2, ip
    db36:	f8dd b024 	ldr.w	fp, [sp, #36]	; 0x24
    db3a:	460f      	mov	r7, r1
    db3c:	e004      	b.n	db48 <_vfprintf_r+0xc98>
    db3e:	3608      	adds	r6, #8
    db40:	3c10      	subs	r4, #16
    db42:	2c10      	cmp	r4, #16
    db44:	f340 820a 	ble.w	df5c <_vfprintf_r+0x10ac>
    db48:	3301      	adds	r3, #1
    db4a:	3210      	adds	r2, #16
    db4c:	2b07      	cmp	r3, #7
    db4e:	9229      	str	r2, [sp, #164]	; 0xa4
    db50:	9328      	str	r3, [sp, #160]	; 0xa0
    db52:	6037      	str	r7, [r6, #0]
    db54:	6075      	str	r5, [r6, #4]
    db56:	ddf2      	ble.n	db3e <_vfprintf_r+0xc8e>
    db58:	4658      	mov	r0, fp
    db5a:	4649      	mov	r1, r9
    db5c:	aa27      	add	r2, sp, #156	; 0x9c
    db5e:	f002 fff5 	bl	10b4c <__sprint_r>
    db62:	2800      	cmp	r0, #0
    db64:	f47f aabc 	bne.w	d0e0 <_vfprintf_r+0x230>
    db68:	9a29      	ldr	r2, [sp, #164]	; 0xa4
    db6a:	9b28      	ldr	r3, [sp, #160]	; 0xa0
    db6c:	ae34      	add	r6, sp, #208	; 0xd0
    db6e:	e7e7      	b.n	db40 <_vfprintf_r+0xc90>
    db70:	9809      	ldr	r0, [sp, #36]	; 0x24
    db72:	4649      	mov	r1, r9
    db74:	aa27      	add	r2, sp, #156	; 0x9c
    db76:	f002 ffe9 	bl	10b4c <__sprint_r>
    db7a:	2800      	cmp	r0, #0
    db7c:	f47f aab0 	bne.w	d0e0 <_vfprintf_r+0x230>
    db80:	f89d a07f 	ldrb.w	sl, [sp, #127]	; 0x7f
    db84:	f8dd c0a4 	ldr.w	ip, [sp, #164]	; 0xa4
    db88:	ae34      	add	r6, sp, #208	; 0xd0
    db8a:	f7ff bb56 	b.w	d23a <_vfprintf_r+0x38a>
    db8e:	9d0b      	ldr	r5, [sp, #44]	; 0x2c
    db90:	682c      	ldr	r4, [r5, #0]
    db92:	3504      	adds	r5, #4
    db94:	950b      	str	r5, [sp, #44]	; 0x2c
    db96:	2301      	movs	r3, #1
    db98:	2500      	movs	r5, #0
    db9a:	f7ff bac5 	b.w	d128 <_vfprintf_r+0x278>
    db9e:	9b0d      	ldr	r3, [sp, #52]	; 0x34
    dba0:	1e5f      	subs	r7, r3, #1
    dba2:	2f00      	cmp	r7, #0
    dba4:	f77f af4b 	ble.w	da3e <_vfprintf_r+0xb8e>
    dba8:	2f10      	cmp	r7, #16
    dbaa:	f8df a688 	ldr.w	sl, [pc, #1672]	; e234 <_vfprintf_r+0x1384>
    dbae:	f340 80e6 	ble.w	dd7e <_vfprintf_r+0xece>
    dbb2:	f04f 0810 	mov.w	r8, #16
    dbb6:	f8dd b024 	ldr.w	fp, [sp, #36]	; 0x24
    dbba:	e004      	b.n	dbc6 <_vfprintf_r+0xd16>
    dbbc:	3608      	adds	r6, #8
    dbbe:	3f10      	subs	r7, #16
    dbc0:	2f10      	cmp	r7, #16
    dbc2:	f340 80dc 	ble.w	dd7e <_vfprintf_r+0xece>
    dbc6:	3401      	adds	r4, #1
    dbc8:	3510      	adds	r5, #16
    dbca:	2c07      	cmp	r4, #7
    dbcc:	9529      	str	r5, [sp, #164]	; 0xa4
    dbce:	9428      	str	r4, [sp, #160]	; 0xa0
    dbd0:	f8c6 a000 	str.w	sl, [r6]
    dbd4:	f8c6 8004 	str.w	r8, [r6, #4]
    dbd8:	ddf0      	ble.n	dbbc <_vfprintf_r+0xd0c>
    dbda:	4658      	mov	r0, fp
    dbdc:	4649      	mov	r1, r9
    dbde:	aa27      	add	r2, sp, #156	; 0x9c
    dbe0:	f002 ffb4 	bl	10b4c <__sprint_r>
    dbe4:	2800      	cmp	r0, #0
    dbe6:	f47f aa7b 	bne.w	d0e0 <_vfprintf_r+0x230>
    dbea:	9d29      	ldr	r5, [sp, #164]	; 0xa4
    dbec:	9c28      	ldr	r4, [sp, #160]	; 0xa0
    dbee:	ae34      	add	r6, sp, #208	; 0xd0
    dbf0:	e7e5      	b.n	dbbe <_vfprintf_r+0xd0e>
    dbf2:	9d0b      	ldr	r5, [sp, #44]	; 0x2c
    dbf4:	f8dd c02c 	ldr.w	ip, [sp, #44]	; 0x2c
    dbf8:	682c      	ldr	r4, [r5, #0]
    dbfa:	f10c 0c04 	add.w	ip, ip, #4
    dbfe:	17e5      	asrs	r5, r4, #31
    dc00:	f8cd c02c 	str.w	ip, [sp, #44]	; 0x2c
    dc04:	4622      	mov	r2, r4
    dc06:	462b      	mov	r3, r5
    dc08:	e507      	b.n	d61a <_vfprintf_r+0x76a>
    dc0a:	9d0b      	ldr	r5, [sp, #44]	; 0x2c
    dc0c:	682c      	ldr	r4, [r5, #0]
    dc0e:	3504      	adds	r5, #4
    dc10:	950b      	str	r5, [sp, #44]	; 0x2c
    dc12:	2500      	movs	r5, #0
    dc14:	f7ff ba88 	b.w	d128 <_vfprintf_r+0x278>
    dc18:	4694      	mov	ip, r2
    dc1a:	46ba      	mov	sl, r7
    dc1c:	3301      	adds	r3, #1
    dc1e:	44a4      	add	ip, r4
    dc20:	2b07      	cmp	r3, #7
    dc22:	f8cd c0a4 	str.w	ip, [sp, #164]	; 0xa4
    dc26:	9328      	str	r3, [sp, #160]	; 0xa0
    dc28:	f8c6 a000 	str.w	sl, [r6]
    dc2c:	6074      	str	r4, [r6, #4]
    dc2e:	f77f ab7d 	ble.w	d32c <_vfprintf_r+0x47c>
    dc32:	e712      	b.n	da5a <_vfprintf_r+0xbaa>
    dc34:	f10d 0bcf 	add.w	fp, sp, #207	; 0xcf
    dc38:	4620      	mov	r0, r4
    dc3a:	4629      	mov	r1, r5
    dc3c:	220a      	movs	r2, #10
    dc3e:	2300      	movs	r3, #0
    dc40:	f7fc fea2 	bl	a988 <__aeabi_uldivmod>
    dc44:	3230      	adds	r2, #48	; 0x30
    dc46:	f88b 2000 	strb.w	r2, [fp]
    dc4a:	4620      	mov	r0, r4
    dc4c:	4629      	mov	r1, r5
    dc4e:	220a      	movs	r2, #10
    dc50:	2300      	movs	r3, #0
    dc52:	f7fc fe99 	bl	a988 <__aeabi_uldivmod>
    dc56:	4604      	mov	r4, r0
    dc58:	460d      	mov	r5, r1
    dc5a:	ea54 0c05 	orrs.w	ip, r4, r5
    dc5e:	465f      	mov	r7, fp
    dc60:	f10b 3bff 	add.w	fp, fp, #4294967295	; 0xffffffff
    dc64:	d1e8      	bne.n	dc38 <_vfprintf_r+0xd88>
    dc66:	9d04      	ldr	r5, [sp, #16]
    dc68:	1bec      	subs	r4, r5, r7
    dc6a:	f7ff ba81 	b.w	d170 <_vfprintf_r+0x2c0>
    dc6e:	9809      	ldr	r0, [sp, #36]	; 0x24
    dc70:	4649      	mov	r1, r9
    dc72:	aa27      	add	r2, sp, #156	; 0x9c
    dc74:	f002 ff6a 	bl	10b4c <__sprint_r>
    dc78:	2800      	cmp	r0, #0
    dc7a:	f47f aa31 	bne.w	d0e0 <_vfprintf_r+0x230>
    dc7e:	f8dd c0a4 	ldr.w	ip, [sp, #164]	; 0xa4
    dc82:	ae34      	add	r6, sp, #208	; 0xd0
    dc84:	9d10      	ldr	r5, [sp, #64]	; 0x40
    dc86:	9c21      	ldr	r4, [sp, #132]	; 0x84
    dc88:	442f      	add	r7, r5
    dc8a:	9d0d      	ldr	r5, [sp, #52]	; 0x34
    dc8c:	42ac      	cmp	r4, r5
    dc8e:	db40      	blt.n	dd12 <_vfprintf_r+0xe62>
    dc90:	9d05      	ldr	r5, [sp, #20]
    dc92:	07e8      	lsls	r0, r5, #31
    dc94:	d43d      	bmi.n	dd12 <_vfprintf_r+0xe62>
    dc96:	980d      	ldr	r0, [sp, #52]	; 0x34
    dc98:	ebc7 0508 	rsb	r5, r7, r8
    dc9c:	1b04      	subs	r4, r0, r4
    dc9e:	42ac      	cmp	r4, r5
    dca0:	bfb8      	it	lt
    dca2:	4625      	movlt	r5, r4
    dca4:	2d00      	cmp	r5, #0
    dca6:	dd0b      	ble.n	dcc0 <_vfprintf_r+0xe10>
    dca8:	9b28      	ldr	r3, [sp, #160]	; 0xa0
    dcaa:	6037      	str	r7, [r6, #0]
    dcac:	3301      	adds	r3, #1
    dcae:	44ac      	add	ip, r5
    dcb0:	2b07      	cmp	r3, #7
    dcb2:	f8cd c0a4 	str.w	ip, [sp, #164]	; 0xa4
    dcb6:	6075      	str	r5, [r6, #4]
    dcb8:	9328      	str	r3, [sp, #160]	; 0xa0
    dcba:	f300 824b 	bgt.w	e154 <_vfprintf_r+0x12a4>
    dcbe:	3608      	adds	r6, #8
    dcc0:	ea25 75e5 	bic.w	r5, r5, r5, asr #31
    dcc4:	1b64      	subs	r4, r4, r5
    dcc6:	2c00      	cmp	r4, #0
    dcc8:	f77f ab31 	ble.w	d32e <_vfprintf_r+0x47e>
    dccc:	2c10      	cmp	r4, #16
    dcce:	9b28      	ldr	r3, [sp, #160]	; 0xa0
    dcd0:	f8df a560 	ldr.w	sl, [pc, #1376]	; e234 <_vfprintf_r+0x1384>
    dcd4:	dda2      	ble.n	dc1c <_vfprintf_r+0xd6c>
    dcd6:	2510      	movs	r5, #16
    dcd8:	4662      	mov	r2, ip
    dcda:	f8dd 8024 	ldr.w	r8, [sp, #36]	; 0x24
    dcde:	4657      	mov	r7, sl
    dce0:	e003      	b.n	dcea <_vfprintf_r+0xe3a>
    dce2:	3608      	adds	r6, #8
    dce4:	3c10      	subs	r4, #16
    dce6:	2c10      	cmp	r4, #16
    dce8:	dd96      	ble.n	dc18 <_vfprintf_r+0xd68>
    dcea:	3301      	adds	r3, #1
    dcec:	3210      	adds	r2, #16
    dcee:	2b07      	cmp	r3, #7
    dcf0:	9229      	str	r2, [sp, #164]	; 0xa4
    dcf2:	9328      	str	r3, [sp, #160]	; 0xa0
    dcf4:	6037      	str	r7, [r6, #0]
    dcf6:	6075      	str	r5, [r6, #4]
    dcf8:	ddf3      	ble.n	dce2 <_vfprintf_r+0xe32>
    dcfa:	4640      	mov	r0, r8
    dcfc:	4649      	mov	r1, r9
    dcfe:	aa27      	add	r2, sp, #156	; 0x9c
    dd00:	f002 ff24 	bl	10b4c <__sprint_r>
    dd04:	2800      	cmp	r0, #0
    dd06:	f47f a9eb 	bne.w	d0e0 <_vfprintf_r+0x230>
    dd0a:	9a29      	ldr	r2, [sp, #164]	; 0xa4
    dd0c:	9b28      	ldr	r3, [sp, #160]	; 0xa0
    dd0e:	ae34      	add	r6, sp, #208	; 0xd0
    dd10:	e7e8      	b.n	dce4 <_vfprintf_r+0xe34>
    dd12:	9b28      	ldr	r3, [sp, #160]	; 0xa0
    dd14:	9d11      	ldr	r5, [sp, #68]	; 0x44
    dd16:	6035      	str	r5, [r6, #0]
    dd18:	9d14      	ldr	r5, [sp, #80]	; 0x50
    dd1a:	6075      	str	r5, [r6, #4]
    dd1c:	3301      	adds	r3, #1
    dd1e:	44ac      	add	ip, r5
    dd20:	2b07      	cmp	r3, #7
    dd22:	f8cd c0a4 	str.w	ip, [sp, #164]	; 0xa4
    dd26:	9328      	str	r3, [sp, #160]	; 0xa0
    dd28:	f300 8207 	bgt.w	e13a <_vfprintf_r+0x128a>
    dd2c:	3608      	adds	r6, #8
    dd2e:	e7b2      	b.n	dc96 <_vfprintf_r+0xde6>
    dd30:	9d05      	ldr	r5, [sp, #20]
    dd32:	07e9      	lsls	r1, r5, #31
    dd34:	f53f ae55 	bmi.w	d9e2 <_vfprintf_r+0xb32>
    dd38:	3401      	adds	r4, #1
    dd3a:	f10c 0501 	add.w	r5, ip, #1
    dd3e:	2301      	movs	r3, #1
    dd40:	2c07      	cmp	r4, #7
    dd42:	9529      	str	r5, [sp, #164]	; 0xa4
    dd44:	9428      	str	r4, [sp, #160]	; 0xa0
    dd46:	6037      	str	r7, [r6, #0]
    dd48:	6073      	str	r3, [r6, #4]
    dd4a:	f77f ae77 	ble.w	da3c <_vfprintf_r+0xb8c>
    dd4e:	9809      	ldr	r0, [sp, #36]	; 0x24
    dd50:	4649      	mov	r1, r9
    dd52:	aa27      	add	r2, sp, #156	; 0x9c
    dd54:	f002 fefa 	bl	10b4c <__sprint_r>
    dd58:	2800      	cmp	r0, #0
    dd5a:	f47f a9c1 	bne.w	d0e0 <_vfprintf_r+0x230>
    dd5e:	9d29      	ldr	r5, [sp, #164]	; 0xa4
    dd60:	9c28      	ldr	r4, [sp, #160]	; 0xa0
    dd62:	ae34      	add	r6, sp, #208	; 0xd0
    dd64:	e66b      	b.n	da3e <_vfprintf_r+0xb8e>
    dd66:	9809      	ldr	r0, [sp, #36]	; 0x24
    dd68:	4649      	mov	r1, r9
    dd6a:	aa27      	add	r2, sp, #156	; 0x9c
    dd6c:	f002 feee 	bl	10b4c <__sprint_r>
    dd70:	2800      	cmp	r0, #0
    dd72:	f47f a9b5 	bne.w	d0e0 <_vfprintf_r+0x230>
    dd76:	9d29      	ldr	r5, [sp, #164]	; 0xa4
    dd78:	9c28      	ldr	r4, [sp, #160]	; 0xa0
    dd7a:	ae34      	add	r6, sp, #208	; 0xd0
    dd7c:	e63d      	b.n	d9fa <_vfprintf_r+0xb4a>
    dd7e:	3401      	adds	r4, #1
    dd80:	443d      	add	r5, r7
    dd82:	2c07      	cmp	r4, #7
    dd84:	9529      	str	r5, [sp, #164]	; 0xa4
    dd86:	9428      	str	r4, [sp, #160]	; 0xa0
    dd88:	f8c6 a000 	str.w	sl, [r6]
    dd8c:	6077      	str	r7, [r6, #4]
    dd8e:	f77f ae55 	ble.w	da3c <_vfprintf_r+0xb8c>
    dd92:	e7dc      	b.n	dd4e <_vfprintf_r+0xe9e>
    dd94:	9809      	ldr	r0, [sp, #36]	; 0x24
    dd96:	4649      	mov	r1, r9
    dd98:	aa27      	add	r2, sp, #156	; 0x9c
    dd9a:	f002 fed7 	bl	10b4c <__sprint_r>
    dd9e:	2800      	cmp	r0, #0
    dda0:	f47f a99e 	bne.w	d0e0 <_vfprintf_r+0x230>
    dda4:	9d29      	ldr	r5, [sp, #164]	; 0xa4
    dda6:	9c28      	ldr	r4, [sp, #160]	; 0xa0
    dda8:	ae34      	add	r6, sp, #208	; 0xd0
    ddaa:	e632      	b.n	da12 <_vfprintf_r+0xb62>
    ddac:	9809      	ldr	r0, [sp, #36]	; 0x24
    ddae:	4649      	mov	r1, r9
    ddb0:	aa27      	add	r2, sp, #156	; 0x9c
    ddb2:	f002 fecb 	bl	10b4c <__sprint_r>
    ddb6:	2800      	cmp	r0, #0
    ddb8:	f47f a992 	bne.w	d0e0 <_vfprintf_r+0x230>
    ddbc:	f8dd c0a4 	ldr.w	ip, [sp, #164]	; 0xa4
    ddc0:	ae34      	add	r6, sp, #208	; 0xd0
    ddc2:	f7ff ba62 	b.w	d28a <_vfprintf_r+0x3da>
    ddc6:	f04f 0a2d 	mov.w	sl, #45	; 0x2d
    ddca:	4264      	negs	r4, r4
    ddcc:	eb65 0545 	sbc.w	r5, r5, r5, lsl #1
    ddd0:	f88d a07f 	strb.w	sl, [sp, #127]	; 0x7f
    ddd4:	2301      	movs	r3, #1
    ddd6:	f7ff b9ab 	b.w	d130 <_vfprintf_r+0x280>
    ddda:	ed9d 0b12 	vldr	d0, [sp, #72]	; 0x48
    ddde:	f7fc f8e7 	bl	9fb0 <__fpclassifyd>
    dde2:	2800      	cmp	r0, #0
    dde4:	f000 8123 	beq.w	e02e <_vfprintf_r+0x117e>
    dde8:	9c07      	ldr	r4, [sp, #28]
    ddea:	3401      	adds	r4, #1
    ddec:	f028 0a20 	bic.w	sl, r8, #32
    ddf0:	f000 826f 	beq.w	e2d2 <_vfprintf_r+0x1422>
    ddf4:	f1ba 0f47 	cmp.w	sl, #71	; 0x47
    ddf8:	d104      	bne.n	de04 <_vfprintf_r+0xf54>
    ddfa:	9c07      	ldr	r4, [sp, #28]
    ddfc:	2c00      	cmp	r4, #0
    ddfe:	bf08      	it	eq
    de00:	2401      	moveq	r4, #1
    de02:	9407      	str	r4, [sp, #28]
    de04:	e9dd 2312 	ldrd	r2, r3, [sp, #72]	; 0x48
    de08:	9d05      	ldr	r5, [sp, #20]
    de0a:	2b00      	cmp	r3, #0
    de0c:	f445 7580 	orr.w	r5, r5, #256	; 0x100
    de10:	950e      	str	r5, [sp, #56]	; 0x38
    de12:	f2c0 8255 	blt.w	e2c0 <_vfprintf_r+0x1410>
    de16:	ed9d 7b12 	vldr	d7, [sp, #72]	; 0x48
    de1a:	ed8d 7b1c 	vstr	d7, [sp, #112]	; 0x70
    de1e:	f04f 0b00 	mov.w	fp, #0
    de22:	f1b8 0f66 	cmp.w	r8, #102	; 0x66
    de26:	f000 81da 	beq.w	e1de <_vfprintf_r+0x132e>
    de2a:	f1b8 0f46 	cmp.w	r8, #70	; 0x46
    de2e:	f000 81d6 	beq.w	e1de <_vfprintf_r+0x132e>
    de32:	f1ba 0f45 	cmp.w	sl, #69	; 0x45
    de36:	bf0c      	ite	eq
    de38:	9c07      	ldreq	r4, [sp, #28]
    de3a:	9d07      	ldrne	r5, [sp, #28]
    de3c:	9809      	ldr	r0, [sp, #36]	; 0x24
    de3e:	bf08      	it	eq
    de40:	1c65      	addeq	r5, r4, #1
    de42:	aa22      	add	r2, sp, #136	; 0x88
    de44:	ab25      	add	r3, sp, #148	; 0x94
    de46:	e88d 000c 	stmia.w	sp, {r2, r3}
    de4a:	ed9d 0b1c 	vldr	d0, [sp, #112]	; 0x70
    de4e:	2102      	movs	r1, #2
    de50:	462a      	mov	r2, r5
    de52:	ab21      	add	r3, sp, #132	; 0x84
    de54:	f000 fc14 	bl	e680 <_dtoa_r>
    de58:	f1b8 0f67 	cmp.w	r8, #103	; 0x67
    de5c:	4607      	mov	r7, r0
    de5e:	d002      	beq.n	de66 <_vfprintf_r+0xfb6>
    de60:	f1b8 0f47 	cmp.w	r8, #71	; 0x47
    de64:	d105      	bne.n	de72 <_vfprintf_r+0xfc2>
    de66:	f8dd c014 	ldr.w	ip, [sp, #20]
    de6a:	f01c 0f01 	tst.w	ip, #1
    de6e:	f000 8233 	beq.w	e2d8 <_vfprintf_r+0x1428>
    de72:	f1ba 0f46 	cmp.w	sl, #70	; 0x46
    de76:	eb07 0405 	add.w	r4, r7, r5
    de7a:	f000 81cb 	beq.w	e214 <_vfprintf_r+0x1364>
    de7e:	e9dd 011c 	ldrd	r0, r1, [sp, #112]	; 0x70
    de82:	2200      	movs	r2, #0
    de84:	2300      	movs	r3, #0
    de86:	f7fc fcdd 	bl	a844 <__aeabi_dcmpeq>
    de8a:	2800      	cmp	r0, #0
    de8c:	f040 81a5 	bne.w	e1da <_vfprintf_r+0x132a>
    de90:	9b25      	ldr	r3, [sp, #148]	; 0x94
    de92:	429c      	cmp	r4, r3
    de94:	d906      	bls.n	dea4 <_vfprintf_r+0xff4>
    de96:	2130      	movs	r1, #48	; 0x30
    de98:	1c5a      	adds	r2, r3, #1
    de9a:	9225      	str	r2, [sp, #148]	; 0x94
    de9c:	7019      	strb	r1, [r3, #0]
    de9e:	9b25      	ldr	r3, [sp, #148]	; 0x94
    dea0:	429c      	cmp	r4, r3
    dea2:	d8f9      	bhi.n	de98 <_vfprintf_r+0xfe8>
    dea4:	1bdb      	subs	r3, r3, r7
    dea6:	f1ba 0f47 	cmp.w	sl, #71	; 0x47
    deaa:	930d      	str	r3, [sp, #52]	; 0x34
    deac:	f000 818d 	beq.w	e1ca <_vfprintf_r+0x131a>
    deb0:	f1b8 0f65 	cmp.w	r8, #101	; 0x65
    deb4:	f340 8292 	ble.w	e3dc <_vfprintf_r+0x152c>
    deb8:	f1b8 0f66 	cmp.w	r8, #102	; 0x66
    debc:	f000 823c 	beq.w	e338 <_vfprintf_r+0x1488>
    dec0:	9c21      	ldr	r4, [sp, #132]	; 0x84
    dec2:	9410      	str	r4, [sp, #64]	; 0x40
    dec4:	9c0d      	ldr	r4, [sp, #52]	; 0x34
    dec6:	9d10      	ldr	r5, [sp, #64]	; 0x40
    dec8:	42ac      	cmp	r4, r5
    deca:	f300 81ec 	bgt.w	e2a6 <_vfprintf_r+0x13f6>
    dece:	f8dd c014 	ldr.w	ip, [sp, #20]
    ded2:	f01c 0f01 	tst.w	ip, #1
    ded6:	f040 823c 	bne.w	e352 <_vfprintf_r+0x14a2>
    deda:	ea25 73e5 	bic.w	r3, r5, r5, asr #31
    dede:	462c      	mov	r4, r5
    dee0:	f04f 0867 	mov.w	r8, #103	; 0x67
    dee4:	f1bb 0f00 	cmp.w	fp, #0
    dee8:	f040 8164 	bne.w	e1b4 <_vfprintf_r+0x1304>
    deec:	9d0e      	ldr	r5, [sp, #56]	; 0x38
    deee:	9308      	str	r3, [sp, #32]
    def0:	9505      	str	r5, [sp, #20]
    def2:	f8cd b01c 	str.w	fp, [sp, #28]
    def6:	f89d a07f 	ldrb.w	sl, [sp, #127]	; 0x7f
    defa:	f7ff b942 	b.w	d182 <_vfprintf_r+0x2d2>
    defe:	f8dd c014 	ldr.w	ip, [sp, #20]
    df02:	f01c 0f10 	tst.w	ip, #16
    df06:	f040 80ab 	bne.w	e060 <_vfprintf_r+0x11b0>
    df0a:	f8dd c014 	ldr.w	ip, [sp, #20]
    df0e:	f01c 0f40 	tst.w	ip, #64	; 0x40
    df12:	f000 813d 	beq.w	e190 <_vfprintf_r+0x12e0>
    df16:	9c0b      	ldr	r4, [sp, #44]	; 0x2c
    df18:	9d0c      	ldr	r5, [sp, #48]	; 0x30
    df1a:	6823      	ldr	r3, [r4, #0]
    df1c:	3404      	adds	r4, #4
    df1e:	940b      	str	r4, [sp, #44]	; 0x2c
    df20:	801d      	strh	r5, [r3, #0]
    df22:	f7ff b806 	b.w	cf32 <_vfprintf_r+0x82>
    df26:	9c0b      	ldr	r4, [sp, #44]	; 0x2c
    df28:	1de3      	adds	r3, r4, #7
    df2a:	f023 0307 	bic.w	r3, r3, #7
    df2e:	ed93 7b00 	vldr	d7, [r3]
    df32:	3308      	adds	r3, #8
    df34:	ed8d 7b12 	vstr	d7, [sp, #72]	; 0x48
    df38:	930b      	str	r3, [sp, #44]	; 0x2c
    df3a:	f7ff bbf2 	b.w	d722 <_vfprintf_r+0x872>
    df3e:	9c05      	ldr	r4, [sp, #20]
    df40:	0664      	lsls	r4, r4, #25
    df42:	f140 8086 	bpl.w	e052 <_vfprintf_r+0x11a2>
    df46:	f8dd c02c 	ldr.w	ip, [sp, #44]	; 0x2c
    df4a:	f8bc 4000 	ldrh.w	r4, [ip]
    df4e:	f10c 0c04 	add.w	ip, ip, #4
    df52:	2500      	movs	r5, #0
    df54:	f8cd c02c 	str.w	ip, [sp, #44]	; 0x2c
    df58:	f7ff bac1 	b.w	d4de <_vfprintf_r+0x62e>
    df5c:	4694      	mov	ip, r2
    df5e:	463a      	mov	r2, r7
    df60:	4657      	mov	r7, sl
    df62:	4692      	mov	sl, r2
    df64:	3301      	adds	r3, #1
    df66:	44a4      	add	ip, r4
    df68:	2b07      	cmp	r3, #7
    df6a:	f8cd c0a4 	str.w	ip, [sp, #164]	; 0xa4
    df6e:	9328      	str	r3, [sp, #160]	; 0xa0
    df70:	f8c6 a000 	str.w	sl, [r6]
    df74:	6074      	str	r4, [r6, #4]
    df76:	f73f ae7a 	bgt.w	dc6e <_vfprintf_r+0xdbe>
    df7a:	3608      	adds	r6, #8
    df7c:	e682      	b.n	dc84 <_vfprintf_r+0xdd4>
    df7e:	9809      	ldr	r0, [sp, #36]	; 0x24
    df80:	4649      	mov	r1, r9
    df82:	aa27      	add	r2, sp, #156	; 0x9c
    df84:	f002 fde2 	bl	10b4c <__sprint_r>
    df88:	2800      	cmp	r0, #0
    df8a:	f47f a8a9 	bne.w	d0e0 <_vfprintf_r+0x230>
    df8e:	f8dd c0a4 	ldr.w	ip, [sp, #164]	; 0xa4
    df92:	ae34      	add	r6, sp, #208	; 0xd0
    df94:	e485      	b.n	d8a2 <_vfprintf_r+0x9f2>
    df96:	9a28      	ldr	r2, [sp, #160]	; 0xa0
    df98:	49a2      	ldr	r1, [pc, #648]	; (e224 <_vfprintf_r+0x1374>)
    df9a:	6031      	str	r1, [r6, #0]
    df9c:	3201      	adds	r2, #1
    df9e:	f10c 0c01 	add.w	ip, ip, #1
    dfa2:	2101      	movs	r1, #1
    dfa4:	2a07      	cmp	r2, #7
    dfa6:	f8cd c0a4 	str.w	ip, [sp, #164]	; 0xa4
    dfaa:	9228      	str	r2, [sp, #160]	; 0xa0
    dfac:	6071      	str	r1, [r6, #4]
    dfae:	dc5f      	bgt.n	e070 <_vfprintf_r+0x11c0>
    dfb0:	3608      	adds	r6, #8
    dfb2:	461c      	mov	r4, r3
    dfb4:	b92c      	cbnz	r4, dfc2 <_vfprintf_r+0x1112>
    dfb6:	9d0d      	ldr	r5, [sp, #52]	; 0x34
    dfb8:	b91d      	cbnz	r5, dfc2 <_vfprintf_r+0x1112>
    dfba:	9d05      	ldr	r5, [sp, #20]
    dfbc:	07ed      	lsls	r5, r5, #31
    dfbe:	f57f a9b6 	bpl.w	d32e <_vfprintf_r+0x47e>
    dfc2:	9b28      	ldr	r3, [sp, #160]	; 0xa0
    dfc4:	9a14      	ldr	r2, [sp, #80]	; 0x50
    dfc6:	9d11      	ldr	r5, [sp, #68]	; 0x44
    dfc8:	6035      	str	r5, [r6, #0]
    dfca:	3301      	adds	r3, #1
    dfcc:	4462      	add	r2, ip
    dfce:	9d14      	ldr	r5, [sp, #80]	; 0x50
    dfd0:	9229      	str	r2, [sp, #164]	; 0xa4
    dfd2:	2b07      	cmp	r3, #7
    dfd4:	6075      	str	r5, [r6, #4]
    dfd6:	9328      	str	r3, [sp, #160]	; 0xa0
    dfd8:	f300 8153 	bgt.w	e282 <_vfprintf_r+0x13d2>
    dfdc:	3608      	adds	r6, #8
    dfde:	4264      	negs	r4, r4
    dfe0:	2c00      	cmp	r4, #0
    dfe2:	dd72      	ble.n	e0ca <_vfprintf_r+0x121a>
    dfe4:	2c10      	cmp	r4, #16
    dfe6:	f8df a24c 	ldr.w	sl, [pc, #588]	; e234 <_vfprintf_r+0x1384>
    dfea:	f340 809b 	ble.w	e124 <_vfprintf_r+0x1274>
    dfee:	4651      	mov	r1, sl
    dff0:	2510      	movs	r5, #16
    dff2:	46ba      	mov	sl, r7
    dff4:	f8dd 8024 	ldr.w	r8, [sp, #36]	; 0x24
    dff8:	460f      	mov	r7, r1
    dffa:	e004      	b.n	e006 <_vfprintf_r+0x1156>
    dffc:	3608      	adds	r6, #8
    dffe:	3c10      	subs	r4, #16
    e000:	2c10      	cmp	r4, #16
    e002:	f340 808c 	ble.w	e11e <_vfprintf_r+0x126e>
    e006:	3301      	adds	r3, #1
    e008:	3210      	adds	r2, #16
    e00a:	2b07      	cmp	r3, #7
    e00c:	9229      	str	r2, [sp, #164]	; 0xa4
    e00e:	9328      	str	r3, [sp, #160]	; 0xa0
    e010:	6037      	str	r7, [r6, #0]
    e012:	6075      	str	r5, [r6, #4]
    e014:	ddf2      	ble.n	dffc <_vfprintf_r+0x114c>
    e016:	4640      	mov	r0, r8
    e018:	4649      	mov	r1, r9
    e01a:	aa27      	add	r2, sp, #156	; 0x9c
    e01c:	f002 fd96 	bl	10b4c <__sprint_r>
    e020:	2800      	cmp	r0, #0
    e022:	f47f a85d 	bne.w	d0e0 <_vfprintf_r+0x230>
    e026:	9a29      	ldr	r2, [sp, #164]	; 0xa4
    e028:	9b28      	ldr	r3, [sp, #160]	; 0xa0
    e02a:	ae34      	add	r6, sp, #208	; 0xd0
    e02c:	e7e7      	b.n	dffe <_vfprintf_r+0x114e>
    e02e:	9d05      	ldr	r5, [sp, #20]
    e030:	4f7d      	ldr	r7, [pc, #500]	; (e228 <_vfprintf_r+0x1378>)
    e032:	4b7e      	ldr	r3, [pc, #504]	; (e22c <_vfprintf_r+0x137c>)
    e034:	f89d a07f 	ldrb.w	sl, [sp, #127]	; 0x7f
    e038:	9007      	str	r0, [sp, #28]
    e03a:	2403      	movs	r4, #3
    e03c:	f025 0580 	bic.w	r5, r5, #128	; 0x80
    e040:	9408      	str	r4, [sp, #32]
    e042:	9505      	str	r5, [sp, #20]
    e044:	9010      	str	r0, [sp, #64]	; 0x40
    e046:	f1b8 0f47 	cmp.w	r8, #71	; 0x47
    e04a:	bfd8      	it	le
    e04c:	461f      	movle	r7, r3
    e04e:	f7ff b898 	b.w	d182 <_vfprintf_r+0x2d2>
    e052:	9d0b      	ldr	r5, [sp, #44]	; 0x2c
    e054:	682c      	ldr	r4, [r5, #0]
    e056:	3504      	adds	r5, #4
    e058:	950b      	str	r5, [sp, #44]	; 0x2c
    e05a:	2500      	movs	r5, #0
    e05c:	f7ff ba3f 	b.w	d4de <_vfprintf_r+0x62e>
    e060:	9c0b      	ldr	r4, [sp, #44]	; 0x2c
    e062:	9d0c      	ldr	r5, [sp, #48]	; 0x30
    e064:	6823      	ldr	r3, [r4, #0]
    e066:	3404      	adds	r4, #4
    e068:	940b      	str	r4, [sp, #44]	; 0x2c
    e06a:	601d      	str	r5, [r3, #0]
    e06c:	f7fe bf61 	b.w	cf32 <_vfprintf_r+0x82>
    e070:	9809      	ldr	r0, [sp, #36]	; 0x24
    e072:	4649      	mov	r1, r9
    e074:	aa27      	add	r2, sp, #156	; 0x9c
    e076:	f002 fd69 	bl	10b4c <__sprint_r>
    e07a:	2800      	cmp	r0, #0
    e07c:	f47f a830 	bne.w	d0e0 <_vfprintf_r+0x230>
    e080:	9c21      	ldr	r4, [sp, #132]	; 0x84
    e082:	f8dd c0a4 	ldr.w	ip, [sp, #164]	; 0xa4
    e086:	ae34      	add	r6, sp, #208	; 0xd0
    e088:	e794      	b.n	dfb4 <_vfprintf_r+0x1104>
    e08a:	9c05      	ldr	r4, [sp, #20]
    e08c:	f891 8001 	ldrb.w	r8, [r1, #1]
    e090:	f044 0420 	orr.w	r4, r4, #32
    e094:	3301      	adds	r3, #1
    e096:	9405      	str	r4, [sp, #20]
    e098:	f7fe bf85 	b.w	cfa6 <_vfprintf_r+0xf6>
    e09c:	9809      	ldr	r0, [sp, #36]	; 0x24
    e09e:	4649      	mov	r1, r9
    e0a0:	aa27      	add	r2, sp, #156	; 0x9c
    e0a2:	f002 fd53 	bl	10b4c <__sprint_r>
    e0a6:	2800      	cmp	r0, #0
    e0a8:	f47f a81a 	bne.w	d0e0 <_vfprintf_r+0x230>
    e0ac:	f8dd c0a4 	ldr.w	ip, [sp, #164]	; 0xa4
    e0b0:	ae34      	add	r6, sp, #208	; 0xd0
    e0b2:	e40c      	b.n	d8ce <_vfprintf_r+0xa1e>
    e0b4:	9809      	ldr	r0, [sp, #36]	; 0x24
    e0b6:	4649      	mov	r1, r9
    e0b8:	aa27      	add	r2, sp, #156	; 0x9c
    e0ba:	f002 fd47 	bl	10b4c <__sprint_r>
    e0be:	2800      	cmp	r0, #0
    e0c0:	f47f a80e 	bne.w	d0e0 <_vfprintf_r+0x230>
    e0c4:	9a29      	ldr	r2, [sp, #164]	; 0xa4
    e0c6:	9b28      	ldr	r3, [sp, #160]	; 0xa0
    e0c8:	ae34      	add	r6, sp, #208	; 0xd0
    e0ca:	f8dd c034 	ldr.w	ip, [sp, #52]	; 0x34
    e0ce:	9c0d      	ldr	r4, [sp, #52]	; 0x34
    e0d0:	6037      	str	r7, [r6, #0]
    e0d2:	3301      	adds	r3, #1
    e0d4:	4494      	add	ip, r2
    e0d6:	2b07      	cmp	r3, #7
    e0d8:	f8cd c0a4 	str.w	ip, [sp, #164]	; 0xa4
    e0dc:	9328      	str	r3, [sp, #160]	; 0xa0
    e0de:	6074      	str	r4, [r6, #4]
    e0e0:	f77f a924 	ble.w	d32c <_vfprintf_r+0x47c>
    e0e4:	e4b9      	b.n	da5a <_vfprintf_r+0xbaa>
    e0e6:	f8cd a01c 	str.w	sl, [sp, #28]
    e0ea:	f7fd fc39 	bl	b960 <strlen>
    e0ee:	950b      	str	r5, [sp, #44]	; 0x2c
    e0f0:	ea20 7ce0 	bic.w	ip, r0, r0, asr #31
    e0f4:	9d07      	ldr	r5, [sp, #28]
    e0f6:	f8cd c020 	str.w	ip, [sp, #32]
    e0fa:	4604      	mov	r4, r0
    e0fc:	9510      	str	r5, [sp, #64]	; 0x40
    e0fe:	f89d a07f 	ldrb.w	sl, [sp, #127]	; 0x7f
    e102:	f7ff b83e 	b.w	d182 <_vfprintf_r+0x2d2>
    e106:	9809      	ldr	r0, [sp, #36]	; 0x24
    e108:	4649      	mov	r1, r9
    e10a:	aa27      	add	r2, sp, #156	; 0x9c
    e10c:	f002 fd1e 	bl	10b4c <__sprint_r>
    e110:	2800      	cmp	r0, #0
    e112:	f47e afe5 	bne.w	d0e0 <_vfprintf_r+0x230>
    e116:	f8dd c0a4 	ldr.w	ip, [sp, #164]	; 0xa4
    e11a:	ae34      	add	r6, sp, #208	; 0xd0
    e11c:	e4fa      	b.n	db14 <_vfprintf_r+0xc64>
    e11e:	4639      	mov	r1, r7
    e120:	4657      	mov	r7, sl
    e122:	468a      	mov	sl, r1
    e124:	3301      	adds	r3, #1
    e126:	4422      	add	r2, r4
    e128:	2b07      	cmp	r3, #7
    e12a:	9229      	str	r2, [sp, #164]	; 0xa4
    e12c:	9328      	str	r3, [sp, #160]	; 0xa0
    e12e:	f8c6 a000 	str.w	sl, [r6]
    e132:	6074      	str	r4, [r6, #4]
    e134:	dcbe      	bgt.n	e0b4 <_vfprintf_r+0x1204>
    e136:	3608      	adds	r6, #8
    e138:	e7c7      	b.n	e0ca <_vfprintf_r+0x121a>
    e13a:	9809      	ldr	r0, [sp, #36]	; 0x24
    e13c:	4649      	mov	r1, r9
    e13e:	aa27      	add	r2, sp, #156	; 0x9c
    e140:	f002 fd04 	bl	10b4c <__sprint_r>
    e144:	2800      	cmp	r0, #0
    e146:	f47e afcb 	bne.w	d0e0 <_vfprintf_r+0x230>
    e14a:	9c21      	ldr	r4, [sp, #132]	; 0x84
    e14c:	f8dd c0a4 	ldr.w	ip, [sp, #164]	; 0xa4
    e150:	ae34      	add	r6, sp, #208	; 0xd0
    e152:	e5a0      	b.n	dc96 <_vfprintf_r+0xde6>
    e154:	9809      	ldr	r0, [sp, #36]	; 0x24
    e156:	4649      	mov	r1, r9
    e158:	aa27      	add	r2, sp, #156	; 0x9c
    e15a:	f002 fcf7 	bl	10b4c <__sprint_r>
    e15e:	2800      	cmp	r0, #0
    e160:	f47e afbe 	bne.w	d0e0 <_vfprintf_r+0x230>
    e164:	9c21      	ldr	r4, [sp, #132]	; 0x84
    e166:	990d      	ldr	r1, [sp, #52]	; 0x34
    e168:	f8dd c0a4 	ldr.w	ip, [sp, #164]	; 0xa4
    e16c:	1b0c      	subs	r4, r1, r4
    e16e:	ae34      	add	r6, sp, #208	; 0xd0
    e170:	e5a6      	b.n	dcc0 <_vfprintf_r+0xe10>
    e172:	9c07      	ldr	r4, [sp, #28]
    e174:	9710      	str	r7, [sp, #64]	; 0x40
    e176:	2c06      	cmp	r4, #6
    e178:	bf28      	it	cs
    e17a:	2406      	movcs	r4, #6
    e17c:	ea24 7ce4 	bic.w	ip, r4, r4, asr #31
    e180:	46ba      	mov	sl, r7
    e182:	9707      	str	r7, [sp, #28]
    e184:	950b      	str	r5, [sp, #44]	; 0x2c
    e186:	f8cd c020 	str.w	ip, [sp, #32]
    e18a:	4f29      	ldr	r7, [pc, #164]	; (e230 <_vfprintf_r+0x1380>)
    e18c:	f7fe bff9 	b.w	d182 <_vfprintf_r+0x2d2>
    e190:	f8dd c02c 	ldr.w	ip, [sp, #44]	; 0x2c
    e194:	9c0c      	ldr	r4, [sp, #48]	; 0x30
    e196:	f8dc 3000 	ldr.w	r3, [ip]
    e19a:	f10c 0c04 	add.w	ip, ip, #4
    e19e:	f8cd c02c 	str.w	ip, [sp, #44]	; 0x2c
    e1a2:	601c      	str	r4, [r3, #0]
    e1a4:	f7fe bec5 	b.w	cf32 <_vfprintf_r+0x82>
    e1a8:	f04f 0a2d 	mov.w	sl, #45	; 0x2d
    e1ac:	f88d a07f 	strb.w	sl, [sp, #127]	; 0x7f
    e1b0:	f7ff bac9 	b.w	d746 <_vfprintf_r+0x896>
    e1b4:	9d0e      	ldr	r5, [sp, #56]	; 0x38
    e1b6:	9505      	str	r5, [sp, #20]
    e1b8:	f04f 0a2d 	mov.w	sl, #45	; 0x2d
    e1bc:	2500      	movs	r5, #0
    e1be:	9308      	str	r3, [sp, #32]
    e1c0:	f88d a07f 	strb.w	sl, [sp, #127]	; 0x7f
    e1c4:	9507      	str	r5, [sp, #28]
    e1c6:	f7fe bfdf 	b.w	d188 <_vfprintf_r+0x2d8>
    e1ca:	9b21      	ldr	r3, [sp, #132]	; 0x84
    e1cc:	1cdc      	adds	r4, r3, #3
    e1ce:	db33      	blt.n	e238 <_vfprintf_r+0x1388>
    e1d0:	9c07      	ldr	r4, [sp, #28]
    e1d2:	429c      	cmp	r4, r3
    e1d4:	db30      	blt.n	e238 <_vfprintf_r+0x1388>
    e1d6:	9310      	str	r3, [sp, #64]	; 0x40
    e1d8:	e674      	b.n	dec4 <_vfprintf_r+0x1014>
    e1da:	4623      	mov	r3, r4
    e1dc:	e662      	b.n	dea4 <_vfprintf_r+0xff4>
    e1de:	aa22      	add	r2, sp, #136	; 0x88
    e1e0:	ab25      	add	r3, sp, #148	; 0x94
    e1e2:	e88d 000c 	stmia.w	sp, {r2, r3}
    e1e6:	9809      	ldr	r0, [sp, #36]	; 0x24
    e1e8:	9a07      	ldr	r2, [sp, #28]
    e1ea:	ed9d 0b1c 	vldr	d0, [sp, #112]	; 0x70
    e1ee:	2103      	movs	r1, #3
    e1f0:	ab21      	add	r3, sp, #132	; 0x84
    e1f2:	f000 fa45 	bl	e680 <_dtoa_r>
    e1f6:	9d07      	ldr	r5, [sp, #28]
    e1f8:	4607      	mov	r7, r0
    e1fa:	e63a      	b.n	de72 <_vfprintf_r+0xfc2>
    e1fc:	ea24 7ce4 	bic.w	ip, r4, r4, asr #31
    e200:	f8cd c020 	str.w	ip, [sp, #32]
    e204:	9c07      	ldr	r4, [sp, #28]
    e206:	950b      	str	r5, [sp, #44]	; 0x2c
    e208:	9007      	str	r0, [sp, #28]
    e20a:	9010      	str	r0, [sp, #64]	; 0x40
    e20c:	f89d a07f 	ldrb.w	sl, [sp, #127]	; 0x7f
    e210:	f7fe bfb7 	b.w	d182 <_vfprintf_r+0x2d2>
    e214:	783b      	ldrb	r3, [r7, #0]
    e216:	2b30      	cmp	r3, #48	; 0x30
    e218:	f000 80a2 	beq.w	e360 <_vfprintf_r+0x14b0>
    e21c:	9d21      	ldr	r5, [sp, #132]	; 0x84
    e21e:	442c      	add	r4, r5
    e220:	e62d      	b.n	de7e <_vfprintf_r+0xfce>
    e222:	bf00      	nop
    e224:	00011794 	.word	0x00011794
    e228:	00011760 	.word	0x00011760
    e22c:	0001175c 	.word	0x0001175c
    e230:	0001178c 	.word	0x0001178c
    e234:	000117b8 	.word	0x000117b8
    e238:	f1a8 0802 	sub.w	r8, r8, #2
    e23c:	3b01      	subs	r3, #1
    e23e:	2b00      	cmp	r3, #0
    e240:	9321      	str	r3, [sp, #132]	; 0x84
    e242:	bfba      	itte	lt
    e244:	425b      	neglt	r3, r3
    e246:	222d      	movlt	r2, #45	; 0x2d
    e248:	222b      	movge	r2, #43	; 0x2b
    e24a:	2b09      	cmp	r3, #9
    e24c:	f88d 808c 	strb.w	r8, [sp, #140]	; 0x8c
    e250:	f88d 208d 	strb.w	r2, [sp, #141]	; 0x8d
    e254:	dc42      	bgt.n	e2dc <_vfprintf_r+0x142c>
    e256:	3330      	adds	r3, #48	; 0x30
    e258:	2230      	movs	r2, #48	; 0x30
    e25a:	f88d 308f 	strb.w	r3, [sp, #143]	; 0x8f
    e25e:	f88d 208e 	strb.w	r2, [sp, #142]	; 0x8e
    e262:	ab24      	add	r3, sp, #144	; 0x90
    e264:	9d0d      	ldr	r5, [sp, #52]	; 0x34
    e266:	9c0d      	ldr	r4, [sp, #52]	; 0x34
    e268:	aa23      	add	r2, sp, #140	; 0x8c
    e26a:	1a9a      	subs	r2, r3, r2
    e26c:	2d01      	cmp	r5, #1
    e26e:	9215      	str	r2, [sp, #84]	; 0x54
    e270:	4414      	add	r4, r2
    e272:	f340 8091 	ble.w	e398 <_vfprintf_r+0x14e8>
    e276:	3401      	adds	r4, #1
    e278:	2500      	movs	r5, #0
    e27a:	ea24 73e4 	bic.w	r3, r4, r4, asr #31
    e27e:	9510      	str	r5, [sp, #64]	; 0x40
    e280:	e630      	b.n	dee4 <_vfprintf_r+0x1034>
    e282:	9809      	ldr	r0, [sp, #36]	; 0x24
    e284:	4649      	mov	r1, r9
    e286:	aa27      	add	r2, sp, #156	; 0x9c
    e288:	f002 fc60 	bl	10b4c <__sprint_r>
    e28c:	2800      	cmp	r0, #0
    e28e:	f47e af27 	bne.w	d0e0 <_vfprintf_r+0x230>
    e292:	9c21      	ldr	r4, [sp, #132]	; 0x84
    e294:	9a29      	ldr	r2, [sp, #164]	; 0xa4
    e296:	9b28      	ldr	r3, [sp, #160]	; 0xa0
    e298:	ae34      	add	r6, sp, #208	; 0xd0
    e29a:	e6a0      	b.n	dfde <_vfprintf_r+0x112e>
    e29c:	2400      	movs	r4, #0
    e29e:	4603      	mov	r3, r0
    e2a0:	9407      	str	r4, [sp, #28]
    e2a2:	f7fe be81 	b.w	cfa8 <_vfprintf_r+0xf8>
    e2a6:	9c10      	ldr	r4, [sp, #64]	; 0x40
    e2a8:	9d0d      	ldr	r5, [sp, #52]	; 0x34
    e2aa:	2c00      	cmp	r4, #0
    e2ac:	bfd4      	ite	le
    e2ae:	f1c4 0402 	rsble	r4, r4, #2
    e2b2:	2401      	movgt	r4, #1
    e2b4:	442c      	add	r4, r5
    e2b6:	ea24 73e4 	bic.w	r3, r4, r4, asr #31
    e2ba:	f04f 0867 	mov.w	r8, #103	; 0x67
    e2be:	e611      	b.n	dee4 <_vfprintf_r+0x1034>
    e2c0:	9913      	ldr	r1, [sp, #76]	; 0x4c
    e2c2:	9812      	ldr	r0, [sp, #72]	; 0x48
    e2c4:	901c      	str	r0, [sp, #112]	; 0x70
    e2c6:	f101 4100 	add.w	r1, r1, #2147483648	; 0x80000000
    e2ca:	911d      	str	r1, [sp, #116]	; 0x74
    e2cc:	f04f 0b2d 	mov.w	fp, #45	; 0x2d
    e2d0:	e5a7      	b.n	de22 <_vfprintf_r+0xf72>
    e2d2:	2506      	movs	r5, #6
    e2d4:	9507      	str	r5, [sp, #28]
    e2d6:	e595      	b.n	de04 <_vfprintf_r+0xf54>
    e2d8:	9b25      	ldr	r3, [sp, #148]	; 0x94
    e2da:	e5e3      	b.n	dea4 <_vfprintf_r+0xff4>
    e2dc:	f10d 009a 	add.w	r0, sp, #154	; 0x9a
    e2e0:	4d41      	ldr	r5, [pc, #260]	; (e3e8 <_vfprintf_r+0x1538>)
    e2e2:	17da      	asrs	r2, r3, #31
    e2e4:	fb85 5103 	smull	r5, r1, r5, r3
    e2e8:	ebc2 01a1 	rsb	r1, r2, r1, asr #2
    e2ec:	eb01 0481 	add.w	r4, r1, r1, lsl #2
    e2f0:	4602      	mov	r2, r0
    e2f2:	eba3 0344 	sub.w	r3, r3, r4, lsl #1
    e2f6:	f103 0030 	add.w	r0, r3, #48	; 0x30
    e2fa:	2909      	cmp	r1, #9
    e2fc:	7010      	strb	r0, [r2, #0]
    e2fe:	460b      	mov	r3, r1
    e300:	f102 30ff 	add.w	r0, r2, #4294967295	; 0xffffffff
    e304:	dcec      	bgt.n	e2e0 <_vfprintf_r+0x1430>
    e306:	f101 0330 	add.w	r3, r1, #48	; 0x30
    e30a:	f10d 049b 	add.w	r4, sp, #155	; 0x9b
    e30e:	b2d9      	uxtb	r1, r3
    e310:	4284      	cmp	r4, r0
    e312:	f802 1c01 	strb.w	r1, [r2, #-1]
    e316:	d963      	bls.n	e3e0 <_vfprintf_r+0x1530>
    e318:	f10d 008d 	add.w	r0, sp, #141	; 0x8d
    e31c:	4613      	mov	r3, r2
    e31e:	e001      	b.n	e324 <_vfprintf_r+0x1474>
    e320:	f813 1b01 	ldrb.w	r1, [r3], #1
    e324:	42a3      	cmp	r3, r4
    e326:	f800 1f01 	strb.w	r1, [r0, #1]!
    e32a:	d1f9      	bne.n	e320 <_vfprintf_r+0x1470>
    e32c:	f50d 7c88 	add.w	ip, sp, #272	; 0x110
    e330:	ebc2 034c 	rsb	r3, r2, ip, lsl #1
    e334:	3bf6      	subs	r3, #246	; 0xf6
    e336:	e795      	b.n	e264 <_vfprintf_r+0x13b4>
    e338:	9d21      	ldr	r5, [sp, #132]	; 0x84
    e33a:	9510      	str	r5, [sp, #64]	; 0x40
    e33c:	2d00      	cmp	r5, #0
    e33e:	9c07      	ldr	r4, [sp, #28]
    e340:	dd23      	ble.n	e38a <_vfprintf_r+0x14da>
    e342:	b9dc      	cbnz	r4, e37c <_vfprintf_r+0x14cc>
    e344:	9d05      	ldr	r5, [sp, #20]
    e346:	07e8      	lsls	r0, r5, #31
    e348:	d418      	bmi.n	e37c <_vfprintf_r+0x14cc>
    e34a:	9c10      	ldr	r4, [sp, #64]	; 0x40
    e34c:	ea24 73e4 	bic.w	r3, r4, r4, asr #31
    e350:	e5c8      	b.n	dee4 <_vfprintf_r+0x1034>
    e352:	9d10      	ldr	r5, [sp, #64]	; 0x40
    e354:	1c6c      	adds	r4, r5, #1
    e356:	ea24 73e4 	bic.w	r3, r4, r4, asr #31
    e35a:	f04f 0867 	mov.w	r8, #103	; 0x67
    e35e:	e5c1      	b.n	dee4 <_vfprintf_r+0x1034>
    e360:	e9dd 011c 	ldrd	r0, r1, [sp, #112]	; 0x70
    e364:	2200      	movs	r2, #0
    e366:	2300      	movs	r3, #0
    e368:	f7fc fa6c 	bl	a844 <__aeabi_dcmpeq>
    e36c:	2800      	cmp	r0, #0
    e36e:	f47f af55 	bne.w	e21c <_vfprintf_r+0x136c>
    e372:	f1c5 0501 	rsb	r5, r5, #1
    e376:	9521      	str	r5, [sp, #132]	; 0x84
    e378:	442c      	add	r4, r5
    e37a:	e580      	b.n	de7e <_vfprintf_r+0xfce>
    e37c:	9d07      	ldr	r5, [sp, #28]
    e37e:	1c6c      	adds	r4, r5, #1
    e380:	9d10      	ldr	r5, [sp, #64]	; 0x40
    e382:	442c      	add	r4, r5
    e384:	ea24 73e4 	bic.w	r3, r4, r4, asr #31
    e388:	e5ac      	b.n	dee4 <_vfprintf_r+0x1034>
    e38a:	bb14      	cbnz	r4, e3d2 <_vfprintf_r+0x1522>
    e38c:	9d05      	ldr	r5, [sp, #20]
    e38e:	07e9      	lsls	r1, r5, #31
    e390:	d41f      	bmi.n	e3d2 <_vfprintf_r+0x1522>
    e392:	2301      	movs	r3, #1
    e394:	461c      	mov	r4, r3
    e396:	e5a5      	b.n	dee4 <_vfprintf_r+0x1034>
    e398:	f8dd c014 	ldr.w	ip, [sp, #20]
    e39c:	f01c 0301 	ands.w	r3, ip, #1
    e3a0:	f47f af69 	bne.w	e276 <_vfprintf_r+0x13c6>
    e3a4:	9310      	str	r3, [sp, #64]	; 0x40
    e3a6:	ea24 73e4 	bic.w	r3, r4, r4, asr #31
    e3aa:	e59b      	b.n	dee4 <_vfprintf_r+0x1034>
    e3ac:	9d0b      	ldr	r5, [sp, #44]	; 0x2c
    e3ae:	f8dd c02c 	ldr.w	ip, [sp, #44]	; 0x2c
    e3b2:	682d      	ldr	r5, [r5, #0]
    e3b4:	f893 8001 	ldrb.w	r8, [r3, #1]
    e3b8:	9507      	str	r5, [sp, #28]
    e3ba:	f10c 0104 	add.w	r1, ip, #4
    e3be:	2d00      	cmp	r5, #0
    e3c0:	910b      	str	r1, [sp, #44]	; 0x2c
    e3c2:	4603      	mov	r3, r0
    e3c4:	f6be adef 	bge.w	cfa6 <_vfprintf_r+0xf6>
    e3c8:	f04f 34ff 	mov.w	r4, #4294967295	; 0xffffffff
    e3cc:	9407      	str	r4, [sp, #28]
    e3ce:	f7fe bdea 	b.w	cfa6 <_vfprintf_r+0xf6>
    e3d2:	9d07      	ldr	r5, [sp, #28]
    e3d4:	1cac      	adds	r4, r5, #2
    e3d6:	ea24 73e4 	bic.w	r3, r4, r4, asr #31
    e3da:	e583      	b.n	dee4 <_vfprintf_r+0x1034>
    e3dc:	9b21      	ldr	r3, [sp, #132]	; 0x84
    e3de:	e72d      	b.n	e23c <_vfprintf_r+0x138c>
    e3e0:	f10d 038e 	add.w	r3, sp, #142	; 0x8e
    e3e4:	e73e      	b.n	e264 <_vfprintf_r+0x13b4>
    e3e6:	bf00      	nop
    e3e8:	66666667 	.word	0x66666667
    e3ec:	f3af 8000 	nop.w

0000e3f0 <__sbprintf>:
    e3f0:	e92d 43f0 	stmdb	sp!, {r4, r5, r6, r7, r8, r9, lr}
    e3f4:	460c      	mov	r4, r1
    e3f6:	f2ad 4d6c 	subw	sp, sp, #1132	; 0x46c
    e3fa:	f8b1 900c 	ldrh.w	r9, [r1, #12]
    e3fe:	69e7      	ldr	r7, [r4, #28]
    e400:	6e49      	ldr	r1, [r1, #100]	; 0x64
    e402:	f8b4 800e 	ldrh.w	r8, [r4, #14]
    e406:	9119      	str	r1, [sp, #100]	; 0x64
    e408:	ad1a      	add	r5, sp, #104	; 0x68
    e40a:	f44f 6680 	mov.w	r6, #1024	; 0x400
    e40e:	f04f 0e00 	mov.w	lr, #0
    e412:	9707      	str	r7, [sp, #28]
    e414:	f029 0902 	bic.w	r9, r9, #2
    e418:	6a67      	ldr	r7, [r4, #36]	; 0x24
    e41a:	9500      	str	r5, [sp, #0]
    e41c:	4669      	mov	r1, sp
    e41e:	9504      	str	r5, [sp, #16]
    e420:	9602      	str	r6, [sp, #8]
    e422:	9605      	str	r6, [sp, #20]
    e424:	f8ad 900c 	strh.w	r9, [sp, #12]
    e428:	f8ad 800e 	strh.w	r8, [sp, #14]
    e42c:	9709      	str	r7, [sp, #36]	; 0x24
    e42e:	f8cd e018 	str.w	lr, [sp, #24]
    e432:	4606      	mov	r6, r0
    e434:	f7fe fd3c 	bl	ceb0 <_vfprintf_r>
    e438:	1e05      	subs	r5, r0, #0
    e43a:	db07      	blt.n	e44c <__sbprintf+0x5c>
    e43c:	4630      	mov	r0, r6
    e43e:	4669      	mov	r1, sp
    e440:	f001 f8f4 	bl	f62c <_fflush_r>
    e444:	2800      	cmp	r0, #0
    e446:	bf18      	it	ne
    e448:	f04f 35ff 	movne.w	r5, #4294967295	; 0xffffffff
    e44c:	f8bd 300c 	ldrh.w	r3, [sp, #12]
    e450:	065b      	lsls	r3, r3, #25
    e452:	d503      	bpl.n	e45c <__sbprintf+0x6c>
    e454:	89a3      	ldrh	r3, [r4, #12]
    e456:	f043 0340 	orr.w	r3, r3, #64	; 0x40
    e45a:	81a3      	strh	r3, [r4, #12]
    e45c:	4628      	mov	r0, r5
    e45e:	f20d 4d6c 	addw	sp, sp, #1132	; 0x46c
    e462:	e8bd 83f0 	ldmia.w	sp!, {r4, r5, r6, r7, r8, r9, pc}
    e466:	bf00      	nop

0000e468 <__swsetup_r>:
    e468:	4b2f      	ldr	r3, [pc, #188]	; (e528 <__swsetup_r+0xc0>)
    e46a:	681b      	ldr	r3, [r3, #0]
    e46c:	b570      	push	{r4, r5, r6, lr}
    e46e:	4606      	mov	r6, r0
    e470:	460c      	mov	r4, r1
    e472:	b113      	cbz	r3, e47a <__swsetup_r+0x12>
    e474:	6b9a      	ldr	r2, [r3, #56]	; 0x38
    e476:	2a00      	cmp	r2, #0
    e478:	d036      	beq.n	e4e8 <__swsetup_r+0x80>
    e47a:	89a5      	ldrh	r5, [r4, #12]
    e47c:	b2ab      	uxth	r3, r5
    e47e:	0719      	lsls	r1, r3, #28
    e480:	d50c      	bpl.n	e49c <__swsetup_r+0x34>
    e482:	6922      	ldr	r2, [r4, #16]
    e484:	b1aa      	cbz	r2, e4b2 <__swsetup_r+0x4a>
    e486:	f013 0101 	ands.w	r1, r3, #1
    e48a:	d01e      	beq.n	e4ca <__swsetup_r+0x62>
    e48c:	6963      	ldr	r3, [r4, #20]
    e48e:	2100      	movs	r1, #0
    e490:	425b      	negs	r3, r3
    e492:	61a3      	str	r3, [r4, #24]
    e494:	60a1      	str	r1, [r4, #8]
    e496:	b1f2      	cbz	r2, e4d6 <__swsetup_r+0x6e>
    e498:	2000      	movs	r0, #0
    e49a:	bd70      	pop	{r4, r5, r6, pc}
    e49c:	06da      	lsls	r2, r3, #27
    e49e:	d53b      	bpl.n	e518 <__swsetup_r+0xb0>
    e4a0:	075b      	lsls	r3, r3, #29
    e4a2:	d425      	bmi.n	e4f0 <__swsetup_r+0x88>
    e4a4:	6922      	ldr	r2, [r4, #16]
    e4a6:	f045 0308 	orr.w	r3, r5, #8
    e4aa:	81a3      	strh	r3, [r4, #12]
    e4ac:	b29b      	uxth	r3, r3
    e4ae:	2a00      	cmp	r2, #0
    e4b0:	d1e9      	bne.n	e486 <__swsetup_r+0x1e>
    e4b2:	f403 7120 	and.w	r1, r3, #640	; 0x280
    e4b6:	f5b1 7f00 	cmp.w	r1, #512	; 0x200
    e4ba:	d0e4      	beq.n	e486 <__swsetup_r+0x1e>
    e4bc:	4630      	mov	r0, r6
    e4be:	4621      	mov	r1, r4
    e4c0:	f001 fc42 	bl	fd48 <__smakebuf_r>
    e4c4:	89a3      	ldrh	r3, [r4, #12]
    e4c6:	6922      	ldr	r2, [r4, #16]
    e4c8:	e7dd      	b.n	e486 <__swsetup_r+0x1e>
    e4ca:	0798      	lsls	r0, r3, #30
    e4cc:	bf58      	it	pl
    e4ce:	6961      	ldrpl	r1, [r4, #20]
    e4d0:	60a1      	str	r1, [r4, #8]
    e4d2:	2a00      	cmp	r2, #0
    e4d4:	d1e0      	bne.n	e498 <__swsetup_r+0x30>
    e4d6:	89a3      	ldrh	r3, [r4, #12]
    e4d8:	061a      	lsls	r2, r3, #24
    e4da:	d5dd      	bpl.n	e498 <__swsetup_r+0x30>
    e4dc:	f043 0340 	orr.w	r3, r3, #64	; 0x40
    e4e0:	81a3      	strh	r3, [r4, #12]
    e4e2:	f04f 30ff 	mov.w	r0, #4294967295	; 0xffffffff
    e4e6:	bd70      	pop	{r4, r5, r6, pc}
    e4e8:	4618      	mov	r0, r3
    e4ea:	f001 f8bb 	bl	f664 <__sinit>
    e4ee:	e7c4      	b.n	e47a <__swsetup_r+0x12>
    e4f0:	6b21      	ldr	r1, [r4, #48]	; 0x30
    e4f2:	b149      	cbz	r1, e508 <__swsetup_r+0xa0>
    e4f4:	f104 0340 	add.w	r3, r4, #64	; 0x40
    e4f8:	4299      	cmp	r1, r3
    e4fa:	d003      	beq.n	e504 <__swsetup_r+0x9c>
    e4fc:	4630      	mov	r0, r6
    e4fe:	f001 f995 	bl	f82c <_free_r>
    e502:	89a5      	ldrh	r5, [r4, #12]
    e504:	2300      	movs	r3, #0
    e506:	6323      	str	r3, [r4, #48]	; 0x30
    e508:	f025 0524 	bic.w	r5, r5, #36	; 0x24
    e50c:	2300      	movs	r3, #0
    e50e:	6922      	ldr	r2, [r4, #16]
    e510:	6063      	str	r3, [r4, #4]
    e512:	b2ad      	uxth	r5, r5
    e514:	6022      	str	r2, [r4, #0]
    e516:	e7c6      	b.n	e4a6 <__swsetup_r+0x3e>
    e518:	f045 0540 	orr.w	r5, r5, #64	; 0x40
    e51c:	2309      	movs	r3, #9
    e51e:	6033      	str	r3, [r6, #0]
    e520:	f04f 30ff 	mov.w	r0, #4294967295	; 0xffffffff
    e524:	81a5      	strh	r5, [r4, #12]
    e526:	bd70      	pop	{r4, r5, r6, pc}
    e528:	20000528 	.word	0x20000528

0000e52c <register_fini>:
    e52c:	4b02      	ldr	r3, [pc, #8]	; (e538 <register_fini+0xc>)
    e52e:	b113      	cbz	r3, e536 <register_fini+0xa>
    e530:	4802      	ldr	r0, [pc, #8]	; (e53c <register_fini+0x10>)
    e532:	f000 b805 	b.w	e540 <atexit>
    e536:	4770      	bx	lr
    e538:	00000000 	.word	0x00000000
    e53c:	0000f761 	.word	0x0000f761

0000e540 <atexit>:
    e540:	4601      	mov	r1, r0
    e542:	2000      	movs	r0, #0
    e544:	4602      	mov	r2, r0
    e546:	4603      	mov	r3, r0
    e548:	f002 bb20 	b.w	10b8c <__register_exitproc>

0000e54c <quorem>:
    e54c:	e92d 4ff0 	stmdb	sp!, {r4, r5, r6, r7, r8, r9, sl, fp, lr}
    e550:	6903      	ldr	r3, [r0, #16]
    e552:	690d      	ldr	r5, [r1, #16]
    e554:	429d      	cmp	r5, r3
    e556:	b083      	sub	sp, #12
    e558:	4683      	mov	fp, r0
    e55a:	f300 808b 	bgt.w	e674 <quorem+0x128>
    e55e:	3d01      	subs	r5, #1
    e560:	f101 0414 	add.w	r4, r1, #20
    e564:	f100 0a14 	add.w	sl, r0, #20
    e568:	f854 2025 	ldr.w	r2, [r4, r5, lsl #2]
    e56c:	f85a 3025 	ldr.w	r3, [sl, r5, lsl #2]
    e570:	3201      	adds	r2, #1
    e572:	fbb3 f8f2 	udiv	r8, r3, r2
    e576:	00aa      	lsls	r2, r5, #2
    e578:	4691      	mov	r9, r2
    e57a:	9200      	str	r2, [sp, #0]
    e57c:	4452      	add	r2, sl
    e57e:	44a1      	add	r9, r4
    e580:	9201      	str	r2, [sp, #4]
    e582:	f1b8 0f00 	cmp.w	r8, #0
    e586:	d03d      	beq.n	e604 <quorem+0xb8>
    e588:	f04f 0e00 	mov.w	lr, #0
    e58c:	4670      	mov	r0, lr
    e58e:	4622      	mov	r2, r4
    e590:	4653      	mov	r3, sl
    e592:	468c      	mov	ip, r1
    e594:	f852 6b04 	ldr.w	r6, [r2], #4
    e598:	6819      	ldr	r1, [r3, #0]
    e59a:	b2b7      	uxth	r7, r6
    e59c:	0c36      	lsrs	r6, r6, #16
    e59e:	fb07 ee08 	mla	lr, r7, r8, lr
    e5a2:	fb06 f608 	mul.w	r6, r6, r8
    e5a6:	eb06 461e 	add.w	r6, r6, lr, lsr #16
    e5aa:	fa1f f78e 	uxth.w	r7, lr
    e5ae:	1bc7      	subs	r7, r0, r7
    e5b0:	b2b0      	uxth	r0, r6
    e5b2:	fa17 f781 	uxtah	r7, r7, r1
    e5b6:	ebc0 4011 	rsb	r0, r0, r1, lsr #16
    e5ba:	eb00 4027 	add.w	r0, r0, r7, asr #16
    e5be:	b2bf      	uxth	r7, r7
    e5c0:	ea47 4700 	orr.w	r7, r7, r0, lsl #16
    e5c4:	4591      	cmp	r9, r2
    e5c6:	f843 7b04 	str.w	r7, [r3], #4
    e5ca:	ea4f 4020 	mov.w	r0, r0, asr #16
    e5ce:	ea4f 4e16 	mov.w	lr, r6, lsr #16
    e5d2:	d2df      	bcs.n	e594 <quorem+0x48>
    e5d4:	9a00      	ldr	r2, [sp, #0]
    e5d6:	f85a 3002 	ldr.w	r3, [sl, r2]
    e5da:	4661      	mov	r1, ip
    e5dc:	b993      	cbnz	r3, e604 <quorem+0xb8>
    e5de:	9a01      	ldr	r2, [sp, #4]
    e5e0:	1f13      	subs	r3, r2, #4
    e5e2:	459a      	cmp	sl, r3
    e5e4:	d20c      	bcs.n	e600 <quorem+0xb4>
    e5e6:	f852 3c04 	ldr.w	r3, [r2, #-4]
    e5ea:	b94b      	cbnz	r3, e600 <quorem+0xb4>
    e5ec:	f1a2 0308 	sub.w	r3, r2, #8
    e5f0:	e002      	b.n	e5f8 <quorem+0xac>
    e5f2:	681a      	ldr	r2, [r3, #0]
    e5f4:	3b04      	subs	r3, #4
    e5f6:	b91a      	cbnz	r2, e600 <quorem+0xb4>
    e5f8:	459a      	cmp	sl, r3
    e5fa:	f105 35ff 	add.w	r5, r5, #4294967295	; 0xffffffff
    e5fe:	d3f8      	bcc.n	e5f2 <quorem+0xa6>
    e600:	f8cb 5010 	str.w	r5, [fp, #16]
    e604:	4658      	mov	r0, fp
    e606:	f001 fed5 	bl	103b4 <__mcmp>
    e60a:	2800      	cmp	r0, #0
    e60c:	db2e      	blt.n	e66c <quorem+0x120>
    e60e:	f108 0801 	add.w	r8, r8, #1
    e612:	4653      	mov	r3, sl
    e614:	2200      	movs	r2, #0
    e616:	f854 6b04 	ldr.w	r6, [r4], #4
    e61a:	6818      	ldr	r0, [r3, #0]
    e61c:	b2b1      	uxth	r1, r6
    e61e:	1a52      	subs	r2, r2, r1
    e620:	0c36      	lsrs	r6, r6, #16
    e622:	fa12 f180 	uxtah	r1, r2, r0
    e626:	ebc6 4210 	rsb	r2, r6, r0, lsr #16
    e62a:	eb02 4221 	add.w	r2, r2, r1, asr #16
    e62e:	b289      	uxth	r1, r1
    e630:	ea41 4102 	orr.w	r1, r1, r2, lsl #16
    e634:	45a1      	cmp	r9, r4
    e636:	f843 1b04 	str.w	r1, [r3], #4
    e63a:	ea4f 4222 	mov.w	r2, r2, asr #16
    e63e:	d2ea      	bcs.n	e616 <quorem+0xca>
    e640:	f85a 2025 	ldr.w	r2, [sl, r5, lsl #2]
    e644:	eb0a 0385 	add.w	r3, sl, r5, lsl #2
    e648:	b982      	cbnz	r2, e66c <quorem+0x120>
    e64a:	1f1a      	subs	r2, r3, #4
    e64c:	4592      	cmp	sl, r2
    e64e:	d20b      	bcs.n	e668 <quorem+0x11c>
    e650:	f853 2c04 	ldr.w	r2, [r3, #-4]
    e654:	b942      	cbnz	r2, e668 <quorem+0x11c>
    e656:	3b08      	subs	r3, #8
    e658:	e002      	b.n	e660 <quorem+0x114>
    e65a:	681a      	ldr	r2, [r3, #0]
    e65c:	3b04      	subs	r3, #4
    e65e:	b91a      	cbnz	r2, e668 <quorem+0x11c>
    e660:	459a      	cmp	sl, r3
    e662:	f105 35ff 	add.w	r5, r5, #4294967295	; 0xffffffff
    e666:	d3f8      	bcc.n	e65a <quorem+0x10e>
    e668:	f8cb 5010 	str.w	r5, [fp, #16]
    e66c:	4640      	mov	r0, r8
    e66e:	b003      	add	sp, #12
    e670:	e8bd 8ff0 	ldmia.w	sp!, {r4, r5, r6, r7, r8, r9, sl, fp, pc}
    e674:	2000      	movs	r0, #0
    e676:	b003      	add	sp, #12
    e678:	e8bd 8ff0 	ldmia.w	sp!, {r4, r5, r6, r7, r8, r9, sl, fp, pc}
    e67c:	0000      	movs	r0, r0
	...

0000e680 <_dtoa_r>:
    e680:	e92d 4ff0 	stmdb	sp!, {r4, r5, r6, r7, r8, r9, sl, fp, lr}
    e684:	b09d      	sub	sp, #116	; 0x74
    e686:	4604      	mov	r4, r0
    e688:	9104      	str	r1, [sp, #16]
    e68a:	6c01      	ldr	r1, [r0, #64]	; 0x40
    e68c:	9d26      	ldr	r5, [sp, #152]	; 0x98
    e68e:	9206      	str	r2, [sp, #24]
    e690:	9309      	str	r3, [sp, #36]	; 0x24
    e692:	ec5b ab10 	vmov	sl, fp, d0
    e696:	b149      	cbz	r1, e6ac <_dtoa_r+0x2c>
    e698:	6c43      	ldr	r3, [r0, #68]	; 0x44
    e69a:	604b      	str	r3, [r1, #4]
    e69c:	2201      	movs	r2, #1
    e69e:	fa02 f303 	lsl.w	r3, r2, r3
    e6a2:	608b      	str	r3, [r1, #8]
    e6a4:	f001 fc8e 	bl	ffc4 <_Bfree>
    e6a8:	2300      	movs	r3, #0
    e6aa:	6423      	str	r3, [r4, #64]	; 0x40
    e6ac:	f1bb 0f00 	cmp.w	fp, #0
    e6b0:	46d9      	mov	r9, fp
    e6b2:	db35      	blt.n	e720 <_dtoa_r+0xa0>
    e6b4:	2300      	movs	r3, #0
    e6b6:	602b      	str	r3, [r5, #0]
    e6b8:	4ba5      	ldr	r3, [pc, #660]	; (e950 <_dtoa_r+0x2d0>)
    e6ba:	461a      	mov	r2, r3
    e6bc:	ea09 0303 	and.w	r3, r9, r3
    e6c0:	4293      	cmp	r3, r2
    e6c2:	d016      	beq.n	e6f2 <_dtoa_r+0x72>
    e6c4:	2200      	movs	r2, #0
    e6c6:	2300      	movs	r3, #0
    e6c8:	4650      	mov	r0, sl
    e6ca:	4659      	mov	r1, fp
    e6cc:	f7fc f8ba 	bl	a844 <__aeabi_dcmpeq>
    e6d0:	4656      	mov	r6, sl
    e6d2:	465f      	mov	r7, fp
    e6d4:	4680      	mov	r8, r0
    e6d6:	b348      	cbz	r0, e72c <_dtoa_r+0xac>
    e6d8:	9e09      	ldr	r6, [sp, #36]	; 0x24
    e6da:	2301      	movs	r3, #1
    e6dc:	6033      	str	r3, [r6, #0]
    e6de:	9e27      	ldr	r6, [sp, #156]	; 0x9c
    e6e0:	2e00      	cmp	r6, #0
    e6e2:	f000 80c9 	beq.w	e878 <_dtoa_r+0x1f8>
    e6e6:	489b      	ldr	r0, [pc, #620]	; (e954 <_dtoa_r+0x2d4>)
    e6e8:	6030      	str	r0, [r6, #0]
    e6ea:	3801      	subs	r0, #1
    e6ec:	b01d      	add	sp, #116	; 0x74
    e6ee:	e8bd 8ff0 	ldmia.w	sp!, {r4, r5, r6, r7, r8, r9, sl, fp, pc}
    e6f2:	9e09      	ldr	r6, [sp, #36]	; 0x24
    e6f4:	f242 730f 	movw	r3, #9999	; 0x270f
    e6f8:	6033      	str	r3, [r6, #0]
    e6fa:	f1ba 0f00 	cmp.w	sl, #0
    e6fe:	f000 80a4 	beq.w	e84a <_dtoa_r+0x1ca>
    e702:	4895      	ldr	r0, [pc, #596]	; (e958 <_dtoa_r+0x2d8>)
    e704:	9e27      	ldr	r6, [sp, #156]	; 0x9c
    e706:	2e00      	cmp	r6, #0
    e708:	d0f0      	beq.n	e6ec <_dtoa_r+0x6c>
    e70a:	78c3      	ldrb	r3, [r0, #3]
    e70c:	2b00      	cmp	r3, #0
    e70e:	f000 80b5 	beq.w	e87c <_dtoa_r+0x1fc>
    e712:	f100 0308 	add.w	r3, r0, #8
    e716:	9e27      	ldr	r6, [sp, #156]	; 0x9c
    e718:	6033      	str	r3, [r6, #0]
    e71a:	b01d      	add	sp, #116	; 0x74
    e71c:	e8bd 8ff0 	ldmia.w	sp!, {r4, r5, r6, r7, r8, r9, sl, fp, pc}
    e720:	2301      	movs	r3, #1
    e722:	f02b 4900 	bic.w	r9, fp, #2147483648	; 0x80000000
    e726:	602b      	str	r3, [r5, #0]
    e728:	46cb      	mov	fp, r9
    e72a:	e7c5      	b.n	e6b8 <_dtoa_r+0x38>
    e72c:	4620      	mov	r0, r4
    e72e:	ec47 6b10 	vmov	d0, r6, r7
    e732:	a91b      	add	r1, sp, #108	; 0x6c
    e734:	aa1a      	add	r2, sp, #104	; 0x68
    e736:	f001 fecb 	bl	104d0 <__d2b>
    e73a:	ea5f 5519 	movs.w	r5, r9, lsr #20
    e73e:	900c      	str	r0, [sp, #48]	; 0x30
    e740:	f040 808c 	bne.w	e85c <_dtoa_r+0x1dc>
    e744:	9f1a      	ldr	r7, [sp, #104]	; 0x68
    e746:	9d1b      	ldr	r5, [sp, #108]	; 0x6c
    e748:	f46f 6382 	mvn.w	r3, #1040	; 0x410
    e74c:	443d      	add	r5, r7
    e74e:	429d      	cmp	r5, r3
    e750:	f2c0 8297 	blt.w	ec82 <_dtoa_r+0x602>
    e754:	331f      	adds	r3, #31
    e756:	f205 4212 	addw	r2, r5, #1042	; 0x412
    e75a:	1b5b      	subs	r3, r3, r5
    e75c:	fa09 f303 	lsl.w	r3, r9, r3
    e760:	fa2a f202 	lsr.w	r2, sl, r2
    e764:	ea43 0002 	orr.w	r0, r3, r2
    e768:	f7fb fd8e 	bl	a288 <__aeabi_ui2d>
    e76c:	2601      	movs	r6, #1
    e76e:	3d01      	subs	r5, #1
    e770:	46b8      	mov	r8, r7
    e772:	f1a1 71f8 	sub.w	r1, r1, #32505856	; 0x1f00000
    e776:	9618      	str	r6, [sp, #96]	; 0x60
    e778:	2200      	movs	r2, #0
    e77a:	4b78      	ldr	r3, [pc, #480]	; (e95c <_dtoa_r+0x2dc>)
    e77c:	f7fb fc46 	bl	a00c <__aeabi_dsub>
    e780:	a36d      	add	r3, pc, #436	; (adr r3, e938 <_dtoa_r+0x2b8>)
    e782:	e9d3 2300 	ldrd	r2, r3, [r3]
    e786:	f7fb fdf5 	bl	a374 <__aeabi_dmul>
    e78a:	a36d      	add	r3, pc, #436	; (adr r3, e940 <_dtoa_r+0x2c0>)
    e78c:	e9d3 2300 	ldrd	r2, r3, [r3]
    e790:	f7fb fc3e 	bl	a010 <__adddf3>
    e794:	4606      	mov	r6, r0
    e796:	4628      	mov	r0, r5
    e798:	460f      	mov	r7, r1
    e79a:	f7fb fd85 	bl	a2a8 <__aeabi_i2d>
    e79e:	a36a      	add	r3, pc, #424	; (adr r3, e948 <_dtoa_r+0x2c8>)
    e7a0:	e9d3 2300 	ldrd	r2, r3, [r3]
    e7a4:	f7fb fde6 	bl	a374 <__aeabi_dmul>
    e7a8:	4602      	mov	r2, r0
    e7aa:	460b      	mov	r3, r1
    e7ac:	4630      	mov	r0, r6
    e7ae:	4639      	mov	r1, r7
    e7b0:	f7fb fc2e 	bl	a010 <__adddf3>
    e7b4:	4606      	mov	r6, r0
    e7b6:	460f      	mov	r7, r1
    e7b8:	f002 fbfc 	bl	10fb4 <__aeabi_d2iz>
    e7bc:	4639      	mov	r1, r7
    e7be:	9008      	str	r0, [sp, #32]
    e7c0:	2200      	movs	r2, #0
    e7c2:	4630      	mov	r0, r6
    e7c4:	2300      	movs	r3, #0
    e7c6:	f7fc f847 	bl	a858 <__aeabi_dcmplt>
    e7ca:	2800      	cmp	r0, #0
    e7cc:	f040 822a 	bne.w	ec24 <_dtoa_r+0x5a4>
    e7d0:	9e08      	ldr	r6, [sp, #32]
    e7d2:	2e16      	cmp	r6, #22
    e7d4:	f200 8223 	bhi.w	ec1e <_dtoa_r+0x59e>
    e7d8:	4b61      	ldr	r3, [pc, #388]	; (e960 <_dtoa_r+0x2e0>)
    e7da:	eb03 03c6 	add.w	r3, r3, r6, lsl #3
    e7de:	e9d3 0100 	ldrd	r0, r1, [r3]
    e7e2:	4652      	mov	r2, sl
    e7e4:	465b      	mov	r3, fp
    e7e6:	f7fc f855 	bl	a894 <__aeabi_dcmpgt>
    e7ea:	2800      	cmp	r0, #0
    e7ec:	f000 824e 	beq.w	ec8c <_dtoa_r+0x60c>
    e7f0:	3e01      	subs	r6, #1
    e7f2:	9608      	str	r6, [sp, #32]
    e7f4:	2600      	movs	r6, #0
    e7f6:	9610      	str	r6, [sp, #64]	; 0x40
    e7f8:	ebc5 0508 	rsb	r5, r5, r8
    e7fc:	3d01      	subs	r5, #1
    e7fe:	9507      	str	r5, [sp, #28]
    e800:	f100 822a 	bmi.w	ec58 <_dtoa_r+0x5d8>
    e804:	2600      	movs	r6, #0
    e806:	960a      	str	r6, [sp, #40]	; 0x28
    e808:	9e08      	ldr	r6, [sp, #32]
    e80a:	2e00      	cmp	r6, #0
    e80c:	f2c0 8218 	blt.w	ec40 <_dtoa_r+0x5c0>
    e810:	f8dd e01c 	ldr.w	lr, [sp, #28]
    e814:	960f      	str	r6, [sp, #60]	; 0x3c
    e816:	44b6      	add	lr, r6
    e818:	2600      	movs	r6, #0
    e81a:	f8cd e01c 	str.w	lr, [sp, #28]
    e81e:	960e      	str	r6, [sp, #56]	; 0x38
    e820:	9e04      	ldr	r6, [sp, #16]
    e822:	2e09      	cmp	r6, #9
    e824:	d82c      	bhi.n	e880 <_dtoa_r+0x200>
    e826:	2e05      	cmp	r6, #5
    e828:	bfc4      	itt	gt
    e82a:	3e04      	subgt	r6, #4
    e82c:	9604      	strgt	r6, [sp, #16]
    e82e:	9904      	ldr	r1, [sp, #16]
    e830:	f1a1 0302 	sub.w	r3, r1, #2
    e834:	bfcc      	ite	gt
    e836:	2600      	movgt	r6, #0
    e838:	2601      	movle	r6, #1
    e83a:	2b03      	cmp	r3, #3
    e83c:	d822      	bhi.n	e884 <_dtoa_r+0x204>
    e83e:	e8df f013 	tbh	[pc, r3, lsl #1]
    e842:	03ae      	.short	0x03ae
    e844:	03b702a3 	.word	0x03b702a3
    e848:	04ab      	.short	0x04ab
    e84a:	4a46      	ldr	r2, [pc, #280]	; (e964 <_dtoa_r+0x2e4>)
    e84c:	4b42      	ldr	r3, [pc, #264]	; (e958 <_dtoa_r+0x2d8>)
    e84e:	f3c9 0013 	ubfx	r0, r9, #0, #20
    e852:	2800      	cmp	r0, #0
    e854:	bf0c      	ite	eq
    e856:	4610      	moveq	r0, r2
    e858:	4618      	movne	r0, r3
    e85a:	e753      	b.n	e704 <_dtoa_r+0x84>
    e85c:	f3cb 0313 	ubfx	r3, fp, #0, #20
    e860:	f043 517f 	orr.w	r1, r3, #1069547520	; 0x3fc00000
    e864:	f8cd 8060 	str.w	r8, [sp, #96]	; 0x60
    e868:	4650      	mov	r0, sl
    e86a:	f2a5 35ff 	subw	r5, r5, #1023	; 0x3ff
    e86e:	f441 1140 	orr.w	r1, r1, #3145728	; 0x300000
    e872:	f8dd 8068 	ldr.w	r8, [sp, #104]	; 0x68
    e876:	e77f      	b.n	e778 <_dtoa_r+0xf8>
    e878:	483b      	ldr	r0, [pc, #236]	; (e968 <_dtoa_r+0x2e8>)
    e87a:	e737      	b.n	e6ec <_dtoa_r+0x6c>
    e87c:	1cc3      	adds	r3, r0, #3
    e87e:	e74a      	b.n	e716 <_dtoa_r+0x96>
    e880:	2600      	movs	r6, #0
    e882:	9604      	str	r6, [sp, #16]
    e884:	2500      	movs	r5, #0
    e886:	6465      	str	r5, [r4, #68]	; 0x44
    e888:	4629      	mov	r1, r5
    e88a:	4620      	mov	r0, r4
    e88c:	f001 fb74 	bl	ff78 <_Balloc>
    e890:	f04f 39ff 	mov.w	r9, #4294967295	; 0xffffffff
    e894:	2601      	movs	r6, #1
    e896:	900b      	str	r0, [sp, #44]	; 0x2c
    e898:	9506      	str	r5, [sp, #24]
    e89a:	6420      	str	r0, [r4, #64]	; 0x40
    e89c:	f8cd 9044 	str.w	r9, [sp, #68]	; 0x44
    e8a0:	960d      	str	r6, [sp, #52]	; 0x34
    e8a2:	9b1b      	ldr	r3, [sp, #108]	; 0x6c
    e8a4:	2b00      	cmp	r3, #0
    e8a6:	f2c0 80d1 	blt.w	ea4c <_dtoa_r+0x3cc>
    e8aa:	9e08      	ldr	r6, [sp, #32]
    e8ac:	2e0e      	cmp	r6, #14
    e8ae:	f300 80cd 	bgt.w	ea4c <_dtoa_r+0x3cc>
    e8b2:	4b2b      	ldr	r3, [pc, #172]	; (e960 <_dtoa_r+0x2e0>)
    e8b4:	eb03 03c6 	add.w	r3, r3, r6, lsl #3
    e8b8:	ed93 7b00 	vldr	d7, [r3]
    e8bc:	9e06      	ldr	r6, [sp, #24]
    e8be:	2e00      	cmp	r6, #0
    e8c0:	ed8d 7b04 	vstr	d7, [sp, #16]
    e8c4:	f2c0 8377 	blt.w	efb6 <_dtoa_r+0x936>
    e8c8:	e9dd 2304 	ldrd	r2, r3, [sp, #16]
    e8cc:	4659      	mov	r1, fp
    e8ce:	4650      	mov	r0, sl
    e8d0:	f7fb fe7a 	bl	a5c8 <__aeabi_ddiv>
    e8d4:	f002 fb6e 	bl	10fb4 <__aeabi_d2iz>
    e8d8:	4605      	mov	r5, r0
    e8da:	f7fb fce5 	bl	a2a8 <__aeabi_i2d>
    e8de:	e9dd 2304 	ldrd	r2, r3, [sp, #16]
    e8e2:	f7fb fd47 	bl	a374 <__aeabi_dmul>
    e8e6:	460b      	mov	r3, r1
    e8e8:	4602      	mov	r2, r0
    e8ea:	4659      	mov	r1, fp
    e8ec:	4650      	mov	r0, sl
    e8ee:	f7fb fb8d 	bl	a00c <__aeabi_dsub>
    e8f2:	f8dd e02c 	ldr.w	lr, [sp, #44]	; 0x2c
    e8f6:	f105 0330 	add.w	r3, r5, #48	; 0x30
    e8fa:	f1b9 0f01 	cmp.w	r9, #1
    e8fe:	4606      	mov	r6, r0
    e900:	460f      	mov	r7, r1
    e902:	f88e 3000 	strb.w	r3, [lr]
    e906:	f10e 0b01 	add.w	fp, lr, #1
    e90a:	d061      	beq.n	e9d0 <_dtoa_r+0x350>
    e90c:	2200      	movs	r2, #0
    e90e:	4b17      	ldr	r3, [pc, #92]	; (e96c <_dtoa_r+0x2ec>)
    e910:	f7fb fd30 	bl	a374 <__aeabi_dmul>
    e914:	2200      	movs	r2, #0
    e916:	2300      	movs	r3, #0
    e918:	4606      	mov	r6, r0
    e91a:	460f      	mov	r7, r1
    e91c:	f7fb ff92 	bl	a844 <__aeabi_dcmpeq>
    e920:	2800      	cmp	r0, #0
    e922:	d17e      	bne.n	ea22 <_dtoa_r+0x3a2>
    e924:	f8dd 802c 	ldr.w	r8, [sp, #44]	; 0x2c
    e928:	9b0b      	ldr	r3, [sp, #44]	; 0x2c
    e92a:	9406      	str	r4, [sp, #24]
    e92c:	44c8      	add	r8, r9
    e92e:	e9dd ab04 	ldrd	sl, fp, [sp, #16]
    e932:	f103 0902 	add.w	r9, r3, #2
    e936:	e026      	b.n	e986 <_dtoa_r+0x306>
    e938:	636f4361 	.word	0x636f4361
    e93c:	3fd287a7 	.word	0x3fd287a7
    e940:	8b60c8b3 	.word	0x8b60c8b3
    e944:	3fc68a28 	.word	0x3fc68a28
    e948:	509f79fb 	.word	0x509f79fb
    e94c:	3fd34413 	.word	0x3fd34413
    e950:	7ff00000 	.word	0x7ff00000
    e954:	00011795 	.word	0x00011795
    e958:	00011650 	.word	0x00011650
    e95c:	3ff80000 	.word	0x3ff80000
    e960:	000117d8 	.word	0x000117d8
    e964:	00011654 	.word	0x00011654
    e968:	00011794 	.word	0x00011794
    e96c:	40240000 	.word	0x40240000
    e970:	f7fb fd00 	bl	a374 <__aeabi_dmul>
    e974:	2200      	movs	r2, #0
    e976:	2300      	movs	r3, #0
    e978:	4606      	mov	r6, r0
    e97a:	460f      	mov	r7, r1
    e97c:	f7fb ff62 	bl	a844 <__aeabi_dcmpeq>
    e980:	2800      	cmp	r0, #0
    e982:	f040 83d3 	bne.w	f12c <_dtoa_r+0xaac>
    e986:	4652      	mov	r2, sl
    e988:	465b      	mov	r3, fp
    e98a:	4630      	mov	r0, r6
    e98c:	4639      	mov	r1, r7
    e98e:	f7fb fe1b 	bl	a5c8 <__aeabi_ddiv>
    e992:	f002 fb0f 	bl	10fb4 <__aeabi_d2iz>
    e996:	4605      	mov	r5, r0
    e998:	f7fb fc86 	bl	a2a8 <__aeabi_i2d>
    e99c:	4652      	mov	r2, sl
    e99e:	465b      	mov	r3, fp
    e9a0:	f7fb fce8 	bl	a374 <__aeabi_dmul>
    e9a4:	4602      	mov	r2, r0
    e9a6:	460b      	mov	r3, r1
    e9a8:	4630      	mov	r0, r6
    e9aa:	4639      	mov	r1, r7
    e9ac:	f7fb fb2e 	bl	a00c <__aeabi_dsub>
    e9b0:	f105 0e30 	add.w	lr, r5, #48	; 0x30
    e9b4:	45c1      	cmp	r9, r8
    e9b6:	f809 ec01 	strb.w	lr, [r9, #-1]
    e9ba:	464c      	mov	r4, r9
    e9bc:	4606      	mov	r6, r0
    e9be:	460f      	mov	r7, r1
    e9c0:	f04f 0200 	mov.w	r2, #0
    e9c4:	4ba9      	ldr	r3, [pc, #676]	; (ec6c <_dtoa_r+0x5ec>)
    e9c6:	f109 0901 	add.w	r9, r9, #1
    e9ca:	d1d1      	bne.n	e970 <_dtoa_r+0x2f0>
    e9cc:	46a3      	mov	fp, r4
    e9ce:	9c06      	ldr	r4, [sp, #24]
    e9d0:	4632      	mov	r2, r6
    e9d2:	463b      	mov	r3, r7
    e9d4:	4630      	mov	r0, r6
    e9d6:	4639      	mov	r1, r7
    e9d8:	f7fb fb1a 	bl	a010 <__adddf3>
    e9dc:	4606      	mov	r6, r0
    e9de:	460f      	mov	r7, r1
    e9e0:	4632      	mov	r2, r6
    e9e2:	e9dd 0104 	ldrd	r0, r1, [sp, #16]
    e9e6:	463b      	mov	r3, r7
    e9e8:	f7fb ff36 	bl	a858 <__aeabi_dcmplt>
    e9ec:	b940      	cbnz	r0, ea00 <_dtoa_r+0x380>
    e9ee:	e9dd 0104 	ldrd	r0, r1, [sp, #16]
    e9f2:	4632      	mov	r2, r6
    e9f4:	463b      	mov	r3, r7
    e9f6:	f7fb ff25 	bl	a844 <__aeabi_dcmpeq>
    e9fa:	b190      	cbz	r0, ea22 <_dtoa_r+0x3a2>
    e9fc:	07eb      	lsls	r3, r5, #31
    e9fe:	d510      	bpl.n	ea22 <_dtoa_r+0x3a2>
    ea00:	f81b 5c01 	ldrb.w	r5, [fp, #-1]
    ea04:	9a0b      	ldr	r2, [sp, #44]	; 0x2c
    ea06:	e005      	b.n	ea14 <_dtoa_r+0x394>
    ea08:	429a      	cmp	r2, r3
    ea0a:	f000 8431 	beq.w	f270 <_dtoa_r+0xbf0>
    ea0e:	f813 5c01 	ldrb.w	r5, [r3, #-1]
    ea12:	469b      	mov	fp, r3
    ea14:	2d39      	cmp	r5, #57	; 0x39
    ea16:	f10b 33ff 	add.w	r3, fp, #4294967295	; 0xffffffff
    ea1a:	d0f5      	beq.n	ea08 <_dtoa_r+0x388>
    ea1c:	1c6a      	adds	r2, r5, #1
    ea1e:	b2d2      	uxtb	r2, r2
    ea20:	701a      	strb	r2, [r3, #0]
    ea22:	4620      	mov	r0, r4
    ea24:	990c      	ldr	r1, [sp, #48]	; 0x30
    ea26:	f001 facd 	bl	ffc4 <_Bfree>
    ea2a:	9e08      	ldr	r6, [sp, #32]
    ea2c:	1c73      	adds	r3, r6, #1
    ea2e:	9e09      	ldr	r6, [sp, #36]	; 0x24
    ea30:	2200      	movs	r2, #0
    ea32:	f88b 2000 	strb.w	r2, [fp]
    ea36:	6033      	str	r3, [r6, #0]
    ea38:	9e27      	ldr	r6, [sp, #156]	; 0x9c
    ea3a:	2e00      	cmp	r6, #0
    ea3c:	f000 831e 	beq.w	f07c <_dtoa_r+0x9fc>
    ea40:	980b      	ldr	r0, [sp, #44]	; 0x2c
    ea42:	f8c6 b000 	str.w	fp, [r6]
    ea46:	b01d      	add	sp, #116	; 0x74
    ea48:	e8bd 8ff0 	ldmia.w	sp!, {r4, r5, r6, r7, r8, r9, sl, fp, pc}
    ea4c:	9e0d      	ldr	r6, [sp, #52]	; 0x34
    ea4e:	2e00      	cmp	r6, #0
    ea50:	f000 8107 	beq.w	ec62 <_dtoa_r+0x5e2>
    ea54:	9e04      	ldr	r6, [sp, #16]
    ea56:	2e01      	cmp	r6, #1
    ea58:	f340 82d5 	ble.w	f006 <_dtoa_r+0x986>
    ea5c:	9e0e      	ldr	r6, [sp, #56]	; 0x38
    ea5e:	f109 37ff 	add.w	r7, r9, #4294967295	; 0xffffffff
    ea62:	42be      	cmp	r6, r7
    ea64:	f2c0 839b 	blt.w	f19e <_dtoa_r+0xb1e>
    ea68:	1bf7      	subs	r7, r6, r7
    ea6a:	f1b9 0f00 	cmp.w	r9, #0
    ea6e:	f2c0 8492 	blt.w	f396 <_dtoa_r+0xd16>
    ea72:	9d0a      	ldr	r5, [sp, #40]	; 0x28
    ea74:	464b      	mov	r3, r9
    ea76:	9e0a      	ldr	r6, [sp, #40]	; 0x28
    ea78:	441e      	add	r6, r3
    ea7a:	960a      	str	r6, [sp, #40]	; 0x28
    ea7c:	9e07      	ldr	r6, [sp, #28]
    ea7e:	4620      	mov	r0, r4
    ea80:	441e      	add	r6, r3
    ea82:	2101      	movs	r1, #1
    ea84:	9607      	str	r6, [sp, #28]
    ea86:	f001 fb41 	bl	1010c <__i2b>
    ea8a:	4606      	mov	r6, r0
    ea8c:	b165      	cbz	r5, eaa8 <_dtoa_r+0x428>
    ea8e:	9907      	ldr	r1, [sp, #28]
    ea90:	2900      	cmp	r1, #0
    ea92:	dd09      	ble.n	eaa8 <_dtoa_r+0x428>
    ea94:	460b      	mov	r3, r1
    ea96:	9a0a      	ldr	r2, [sp, #40]	; 0x28
    ea98:	42ab      	cmp	r3, r5
    ea9a:	bfa8      	it	ge
    ea9c:	462b      	movge	r3, r5
    ea9e:	1ad2      	subs	r2, r2, r3
    eaa0:	1ac9      	subs	r1, r1, r3
    eaa2:	920a      	str	r2, [sp, #40]	; 0x28
    eaa4:	1aed      	subs	r5, r5, r3
    eaa6:	9107      	str	r1, [sp, #28]
    eaa8:	9b0e      	ldr	r3, [sp, #56]	; 0x38
    eaaa:	2b00      	cmp	r3, #0
    eaac:	dd1b      	ble.n	eae6 <_dtoa_r+0x466>
    eaae:	990d      	ldr	r1, [sp, #52]	; 0x34
    eab0:	2900      	cmp	r1, #0
    eab2:	f000 836a 	beq.w	f18a <_dtoa_r+0xb0a>
    eab6:	2f00      	cmp	r7, #0
    eab8:	dd11      	ble.n	eade <_dtoa_r+0x45e>
    eaba:	4631      	mov	r1, r6
    eabc:	463a      	mov	r2, r7
    eabe:	4620      	mov	r0, r4
    eac0:	f001 fbcc 	bl	1025c <__pow5mult>
    eac4:	4606      	mov	r6, r0
    eac6:	4631      	mov	r1, r6
    eac8:	9a0c      	ldr	r2, [sp, #48]	; 0x30
    eaca:	4620      	mov	r0, r4
    eacc:	f001 fb28 	bl	10120 <__multiply>
    ead0:	990c      	ldr	r1, [sp, #48]	; 0x30
    ead2:	4680      	mov	r8, r0
    ead4:	4620      	mov	r0, r4
    ead6:	f001 fa75 	bl	ffc4 <_Bfree>
    eada:	f8cd 8030 	str.w	r8, [sp, #48]	; 0x30
    eade:	9b0e      	ldr	r3, [sp, #56]	; 0x38
    eae0:	1bda      	subs	r2, r3, r7
    eae2:	f040 828a 	bne.w	effa <_dtoa_r+0x97a>
    eae6:	2101      	movs	r1, #1
    eae8:	4620      	mov	r0, r4
    eaea:	f001 fb0f 	bl	1010c <__i2b>
    eaee:	990f      	ldr	r1, [sp, #60]	; 0x3c
    eaf0:	2900      	cmp	r1, #0
    eaf2:	4680      	mov	r8, r0
    eaf4:	dd05      	ble.n	eb02 <_dtoa_r+0x482>
    eaf6:	4601      	mov	r1, r0
    eaf8:	9a0f      	ldr	r2, [sp, #60]	; 0x3c
    eafa:	4620      	mov	r0, r4
    eafc:	f001 fbae 	bl	1025c <__pow5mult>
    eb00:	4680      	mov	r8, r0
    eb02:	9a04      	ldr	r2, [sp, #16]
    eb04:	2a01      	cmp	r2, #1
    eb06:	f340 82cb 	ble.w	f0a0 <_dtoa_r+0xa20>
    eb0a:	2700      	movs	r7, #0
    eb0c:	990f      	ldr	r1, [sp, #60]	; 0x3c
    eb0e:	2900      	cmp	r1, #0
    eb10:	f040 82aa 	bne.w	f068 <_dtoa_r+0x9e8>
    eb14:	2001      	movs	r0, #1
    eb16:	9b07      	ldr	r3, [sp, #28]
    eb18:	4403      	add	r3, r0
    eb1a:	f013 031f 	ands.w	r3, r3, #31
    eb1e:	f000 80a7 	beq.w	ec70 <_dtoa_r+0x5f0>
    eb22:	f1c3 0220 	rsb	r2, r3, #32
    eb26:	2a04      	cmp	r2, #4
    eb28:	f340 84c9 	ble.w	f4be <_dtoa_r+0xe3e>
    eb2c:	9a0a      	ldr	r2, [sp, #40]	; 0x28
    eb2e:	f8dd e01c 	ldr.w	lr, [sp, #28]
    eb32:	f1c3 031c 	rsb	r3, r3, #28
    eb36:	441a      	add	r2, r3
    eb38:	449e      	add	lr, r3
    eb3a:	920a      	str	r2, [sp, #40]	; 0x28
    eb3c:	441d      	add	r5, r3
    eb3e:	f8cd e01c 	str.w	lr, [sp, #28]
    eb42:	9b0a      	ldr	r3, [sp, #40]	; 0x28
    eb44:	2b00      	cmp	r3, #0
    eb46:	dd05      	ble.n	eb54 <_dtoa_r+0x4d4>
    eb48:	990c      	ldr	r1, [sp, #48]	; 0x30
    eb4a:	461a      	mov	r2, r3
    eb4c:	4620      	mov	r0, r4
    eb4e:	f001 fbd3 	bl	102f8 <__lshift>
    eb52:	900c      	str	r0, [sp, #48]	; 0x30
    eb54:	9907      	ldr	r1, [sp, #28]
    eb56:	2900      	cmp	r1, #0
    eb58:	dd05      	ble.n	eb66 <_dtoa_r+0x4e6>
    eb5a:	4641      	mov	r1, r8
    eb5c:	9a07      	ldr	r2, [sp, #28]
    eb5e:	4620      	mov	r0, r4
    eb60:	f001 fbca 	bl	102f8 <__lshift>
    eb64:	4680      	mov	r8, r0
    eb66:	9a10      	ldr	r2, [sp, #64]	; 0x40
    eb68:	2a00      	cmp	r2, #0
    eb6a:	f040 8262 	bne.w	f032 <_dtoa_r+0x9b2>
    eb6e:	f1b9 0f00 	cmp.w	r9, #0
    eb72:	f340 82b0 	ble.w	f0d6 <_dtoa_r+0xa56>
    eb76:	9a0d      	ldr	r2, [sp, #52]	; 0x34
    eb78:	2a00      	cmp	r2, #0
    eb7a:	f040 8089 	bne.w	ec90 <_dtoa_r+0x610>
    eb7e:	9d0d      	ldr	r5, [sp, #52]	; 0x34
    eb80:	9f0c      	ldr	r7, [sp, #48]	; 0x30
    eb82:	f8dd b02c 	ldr.w	fp, [sp, #44]	; 0x2c
    eb86:	e006      	b.n	eb96 <_dtoa_r+0x516>
    eb88:	4639      	mov	r1, r7
    eb8a:	4620      	mov	r0, r4
    eb8c:	220a      	movs	r2, #10
    eb8e:	2300      	movs	r3, #0
    eb90:	f001 fa22 	bl	ffd8 <__multadd>
    eb94:	4607      	mov	r7, r0
    eb96:	4638      	mov	r0, r7
    eb98:	4641      	mov	r1, r8
    eb9a:	f7ff fcd7 	bl	e54c <quorem>
    eb9e:	3030      	adds	r0, #48	; 0x30
    eba0:	f80b 0005 	strb.w	r0, [fp, r5]
    eba4:	3501      	adds	r5, #1
    eba6:	45a9      	cmp	r9, r5
    eba8:	dcee      	bgt.n	eb88 <_dtoa_r+0x508>
    ebaa:	f8dd b02c 	ldr.w	fp, [sp, #44]	; 0x2c
    ebae:	970c      	str	r7, [sp, #48]	; 0x30
    ebb0:	4682      	mov	sl, r0
    ebb2:	f1b9 0f01 	cmp.w	r9, #1
    ebb6:	bfac      	ite	ge
    ebb8:	44cb      	addge	fp, r9
    ebba:	f10b 0b01 	addlt.w	fp, fp, #1
    ebbe:	2500      	movs	r5, #0
    ebc0:	990c      	ldr	r1, [sp, #48]	; 0x30
    ebc2:	2201      	movs	r2, #1
    ebc4:	4620      	mov	r0, r4
    ebc6:	f001 fb97 	bl	102f8 <__lshift>
    ebca:	4641      	mov	r1, r8
    ebcc:	900c      	str	r0, [sp, #48]	; 0x30
    ebce:	f001 fbf1 	bl	103b4 <__mcmp>
    ebd2:	2800      	cmp	r0, #0
    ebd4:	f340 8311 	ble.w	f1fa <_dtoa_r+0xb7a>
    ebd8:	f81b 2c01 	ldrb.w	r2, [fp, #-1]
    ebdc:	990b      	ldr	r1, [sp, #44]	; 0x2c
    ebde:	e005      	b.n	ebec <_dtoa_r+0x56c>
    ebe0:	4299      	cmp	r1, r3
    ebe2:	f000 829a 	beq.w	f11a <_dtoa_r+0xa9a>
    ebe6:	f813 2c01 	ldrb.w	r2, [r3, #-1]
    ebea:	469b      	mov	fp, r3
    ebec:	2a39      	cmp	r2, #57	; 0x39
    ebee:	f10b 33ff 	add.w	r3, fp, #4294967295	; 0xffffffff
    ebf2:	d0f5      	beq.n	ebe0 <_dtoa_r+0x560>
    ebf4:	3201      	adds	r2, #1
    ebf6:	701a      	strb	r2, [r3, #0]
    ebf8:	4641      	mov	r1, r8
    ebfa:	4620      	mov	r0, r4
    ebfc:	f001 f9e2 	bl	ffc4 <_Bfree>
    ec00:	2e00      	cmp	r6, #0
    ec02:	f43f af0e 	beq.w	ea22 <_dtoa_r+0x3a2>
    ec06:	b12d      	cbz	r5, ec14 <_dtoa_r+0x594>
    ec08:	42b5      	cmp	r5, r6
    ec0a:	d003      	beq.n	ec14 <_dtoa_r+0x594>
    ec0c:	4629      	mov	r1, r5
    ec0e:	4620      	mov	r0, r4
    ec10:	f001 f9d8 	bl	ffc4 <_Bfree>
    ec14:	4631      	mov	r1, r6
    ec16:	4620      	mov	r0, r4
    ec18:	f001 f9d4 	bl	ffc4 <_Bfree>
    ec1c:	e701      	b.n	ea22 <_dtoa_r+0x3a2>
    ec1e:	2601      	movs	r6, #1
    ec20:	9610      	str	r6, [sp, #64]	; 0x40
    ec22:	e5e9      	b.n	e7f8 <_dtoa_r+0x178>
    ec24:	9808      	ldr	r0, [sp, #32]
    ec26:	f7fb fb3f 	bl	a2a8 <__aeabi_i2d>
    ec2a:	4632      	mov	r2, r6
    ec2c:	463b      	mov	r3, r7
    ec2e:	f7fb fe09 	bl	a844 <__aeabi_dcmpeq>
    ec32:	2800      	cmp	r0, #0
    ec34:	f47f adcc 	bne.w	e7d0 <_dtoa_r+0x150>
    ec38:	9e08      	ldr	r6, [sp, #32]
    ec3a:	3e01      	subs	r6, #1
    ec3c:	9608      	str	r6, [sp, #32]
    ec3e:	e5c7      	b.n	e7d0 <_dtoa_r+0x150>
    ec40:	9e0a      	ldr	r6, [sp, #40]	; 0x28
    ec42:	f8dd e020 	ldr.w	lr, [sp, #32]
    ec46:	ebce 0606 	rsb	r6, lr, r6
    ec4a:	960a      	str	r6, [sp, #40]	; 0x28
    ec4c:	f1ce 0600 	rsb	r6, lr, #0
    ec50:	960e      	str	r6, [sp, #56]	; 0x38
    ec52:	2600      	movs	r6, #0
    ec54:	960f      	str	r6, [sp, #60]	; 0x3c
    ec56:	e5e3      	b.n	e820 <_dtoa_r+0x1a0>
    ec58:	426e      	negs	r6, r5
    ec5a:	960a      	str	r6, [sp, #40]	; 0x28
    ec5c:	2600      	movs	r6, #0
    ec5e:	9607      	str	r6, [sp, #28]
    ec60:	e5d2      	b.n	e808 <_dtoa_r+0x188>
    ec62:	9f0e      	ldr	r7, [sp, #56]	; 0x38
    ec64:	9d0a      	ldr	r5, [sp, #40]	; 0x28
    ec66:	9e0d      	ldr	r6, [sp, #52]	; 0x34
    ec68:	e710      	b.n	ea8c <_dtoa_r+0x40c>
    ec6a:	bf00      	nop
    ec6c:	40240000 	.word	0x40240000
    ec70:	231c      	movs	r3, #28
    ec72:	990a      	ldr	r1, [sp, #40]	; 0x28
    ec74:	9a07      	ldr	r2, [sp, #28]
    ec76:	4419      	add	r1, r3
    ec78:	441a      	add	r2, r3
    ec7a:	910a      	str	r1, [sp, #40]	; 0x28
    ec7c:	441d      	add	r5, r3
    ec7e:	9207      	str	r2, [sp, #28]
    ec80:	e75f      	b.n	eb42 <_dtoa_r+0x4c2>
    ec82:	4840      	ldr	r0, [pc, #256]	; (ed84 <_dtoa_r+0x704>)
    ec84:	1b40      	subs	r0, r0, r5
    ec86:	fa0a f000 	lsl.w	r0, sl, r0
    ec8a:	e56d      	b.n	e768 <_dtoa_r+0xe8>
    ec8c:	9010      	str	r0, [sp, #64]	; 0x40
    ec8e:	e5b3      	b.n	e7f8 <_dtoa_r+0x178>
    ec90:	2d00      	cmp	r5, #0
    ec92:	dd05      	ble.n	eca0 <_dtoa_r+0x620>
    ec94:	4631      	mov	r1, r6
    ec96:	462a      	mov	r2, r5
    ec98:	4620      	mov	r0, r4
    ec9a:	f001 fb2d 	bl	102f8 <__lshift>
    ec9e:	4606      	mov	r6, r0
    eca0:	2f00      	cmp	r7, #0
    eca2:	f040 82ef 	bne.w	f284 <_dtoa_r+0xc04>
    eca6:	4637      	mov	r7, r6
    eca8:	9b0b      	ldr	r3, [sp, #44]	; 0x2c
    ecaa:	9a0b      	ldr	r2, [sp, #44]	; 0x2c
    ecac:	444b      	add	r3, r9
    ecae:	f00a 0101 	and.w	r1, sl, #1
    ecb2:	930a      	str	r3, [sp, #40]	; 0x28
    ecb4:	910d      	str	r1, [sp, #52]	; 0x34
    ecb6:	1c55      	adds	r5, r2, #1
    ecb8:	f8dd 9030 	ldr.w	r9, [sp, #48]	; 0x30
    ecbc:	e00a      	b.n	ecd4 <_dtoa_r+0x654>
    ecbe:	f001 f98b 	bl	ffd8 <__multadd>
    ecc2:	4639      	mov	r1, r7
    ecc4:	4606      	mov	r6, r0
    ecc6:	220a      	movs	r2, #10
    ecc8:	4620      	mov	r0, r4
    ecca:	2300      	movs	r3, #0
    eccc:	f001 f984 	bl	ffd8 <__multadd>
    ecd0:	4607      	mov	r7, r0
    ecd2:	3501      	adds	r5, #1
    ecd4:	4641      	mov	r1, r8
    ecd6:	4648      	mov	r0, r9
    ecd8:	f7ff fc38 	bl	e54c <quorem>
    ecdc:	4631      	mov	r1, r6
    ecde:	4683      	mov	fp, r0
    ece0:	4648      	mov	r0, r9
    ece2:	f001 fb67 	bl	103b4 <__mcmp>
    ece6:	463a      	mov	r2, r7
    ece8:	9006      	str	r0, [sp, #24]
    ecea:	4641      	mov	r1, r8
    ecec:	4620      	mov	r0, r4
    ecee:	f001 fb85 	bl	103fc <__mdiff>
    ecf2:	68c2      	ldr	r2, [r0, #12]
    ecf4:	f105 3eff 	add.w	lr, r5, #4294967295	; 0xffffffff
    ecf8:	4603      	mov	r3, r0
    ecfa:	f10b 0a30 	add.w	sl, fp, #48	; 0x30
    ecfe:	f8cd e01c 	str.w	lr, [sp, #28]
    ed02:	2a00      	cmp	r2, #0
    ed04:	f040 8188 	bne.w	f018 <_dtoa_r+0x998>
    ed08:	4619      	mov	r1, r3
    ed0a:	4648      	mov	r0, r9
    ed0c:	9303      	str	r3, [sp, #12]
    ed0e:	f001 fb51 	bl	103b4 <__mcmp>
    ed12:	9b03      	ldr	r3, [sp, #12]
    ed14:	4602      	mov	r2, r0
    ed16:	4619      	mov	r1, r3
    ed18:	4620      	mov	r0, r4
    ed1a:	9203      	str	r2, [sp, #12]
    ed1c:	f001 f952 	bl	ffc4 <_Bfree>
    ed20:	9a03      	ldr	r2, [sp, #12]
    ed22:	b92a      	cbnz	r2, ed30 <_dtoa_r+0x6b0>
    ed24:	9904      	ldr	r1, [sp, #16]
    ed26:	b919      	cbnz	r1, ed30 <_dtoa_r+0x6b0>
    ed28:	9b0d      	ldr	r3, [sp, #52]	; 0x34
    ed2a:	2b00      	cmp	r3, #0
    ed2c:	f000 83a7 	beq.w	f47e <_dtoa_r+0xdfe>
    ed30:	9b06      	ldr	r3, [sp, #24]
    ed32:	2b00      	cmp	r3, #0
    ed34:	f2c0 8242 	blt.w	f1bc <_dtoa_r+0xb3c>
    ed38:	d105      	bne.n	ed46 <_dtoa_r+0x6c6>
    ed3a:	9904      	ldr	r1, [sp, #16]
    ed3c:	b919      	cbnz	r1, ed46 <_dtoa_r+0x6c6>
    ed3e:	9b0d      	ldr	r3, [sp, #52]	; 0x34
    ed40:	2b00      	cmp	r3, #0
    ed42:	f000 823b 	beq.w	f1bc <_dtoa_r+0xb3c>
    ed46:	2a00      	cmp	r2, #0
    ed48:	f300 82b0 	bgt.w	f2ac <_dtoa_r+0xc2c>
    ed4c:	990a      	ldr	r1, [sp, #40]	; 0x28
    ed4e:	f805 ac01 	strb.w	sl, [r5, #-1]
    ed52:	428d      	cmp	r5, r1
    ed54:	46ab      	mov	fp, r5
    ed56:	f000 82ba 	beq.w	f2ce <_dtoa_r+0xc4e>
    ed5a:	4649      	mov	r1, r9
    ed5c:	220a      	movs	r2, #10
    ed5e:	2300      	movs	r3, #0
    ed60:	4620      	mov	r0, r4
    ed62:	f001 f939 	bl	ffd8 <__multadd>
    ed66:	42be      	cmp	r6, r7
    ed68:	4681      	mov	r9, r0
    ed6a:	4631      	mov	r1, r6
    ed6c:	4620      	mov	r0, r4
    ed6e:	f04f 020a 	mov.w	r2, #10
    ed72:	f04f 0300 	mov.w	r3, #0
    ed76:	d1a2      	bne.n	ecbe <_dtoa_r+0x63e>
    ed78:	f001 f92e 	bl	ffd8 <__multadd>
    ed7c:	4606      	mov	r6, r0
    ed7e:	4607      	mov	r7, r0
    ed80:	e7a7      	b.n	ecd2 <_dtoa_r+0x652>
    ed82:	bf00      	nop
    ed84:	fffffbee 	.word	0xfffffbee
    ed88:	2100      	movs	r1, #0
    ed8a:	910d      	str	r1, [sp, #52]	; 0x34
    ed8c:	9a06      	ldr	r2, [sp, #24]
    ed8e:	9b08      	ldr	r3, [sp, #32]
    ed90:	441a      	add	r2, r3
    ed92:	f102 0901 	add.w	r9, r2, #1
    ed96:	f1b9 0f00 	cmp.w	r9, #0
    ed9a:	9211      	str	r2, [sp, #68]	; 0x44
    ed9c:	464d      	mov	r5, r9
    ed9e:	f340 8145 	ble.w	f02c <_dtoa_r+0x9ac>
    eda2:	2100      	movs	r1, #0
    eda4:	2d17      	cmp	r5, #23
    eda6:	6461      	str	r1, [r4, #68]	; 0x44
    eda8:	d90a      	bls.n	edc0 <_dtoa_r+0x740>
    edaa:	2201      	movs	r2, #1
    edac:	2304      	movs	r3, #4
    edae:	005b      	lsls	r3, r3, #1
    edb0:	f103 0014 	add.w	r0, r3, #20
    edb4:	42a8      	cmp	r0, r5
    edb6:	4611      	mov	r1, r2
    edb8:	f102 0201 	add.w	r2, r2, #1
    edbc:	d9f7      	bls.n	edae <_dtoa_r+0x72e>
    edbe:	6461      	str	r1, [r4, #68]	; 0x44
    edc0:	4620      	mov	r0, r4
    edc2:	f001 f8d9 	bl	ff78 <_Balloc>
    edc6:	2d0e      	cmp	r5, #14
    edc8:	900b      	str	r0, [sp, #44]	; 0x2c
    edca:	6420      	str	r0, [r4, #64]	; 0x40
    edcc:	f63f ad69 	bhi.w	e8a2 <_dtoa_r+0x222>
    edd0:	2e00      	cmp	r6, #0
    edd2:	f43f ad66 	beq.w	e8a2 <_dtoa_r+0x222>
    edd6:	9e08      	ldr	r6, [sp, #32]
    edd8:	2e00      	cmp	r6, #0
    edda:	e9cd ab14 	strd	sl, fp, [sp, #80]	; 0x50
    edde:	f340 8220 	ble.w	f222 <_dtoa_r+0xba2>
    ede2:	4ba8      	ldr	r3, [pc, #672]	; (f084 <_dtoa_r+0xa04>)
    ede4:	f006 020f 	and.w	r2, r6, #15
    ede8:	eb03 03c2 	add.w	r3, r3, r2, lsl #3
    edec:	1135      	asrs	r5, r6, #4
    edee:	e9d3 6700 	ldrd	r6, r7, [r3]
    edf2:	06eb      	lsls	r3, r5, #27
    edf4:	f140 81db 	bpl.w	f1ae <_dtoa_r+0xb2e>
    edf8:	4ba3      	ldr	r3, [pc, #652]	; (f088 <_dtoa_r+0xa08>)
    edfa:	4650      	mov	r0, sl
    edfc:	4659      	mov	r1, fp
    edfe:	e9d3 2308 	ldrd	r2, r3, [r3, #32]
    ee02:	f7fb fbe1 	bl	a5c8 <__aeabi_ddiv>
    ee06:	e9cd 0112 	strd	r0, r1, [sp, #72]	; 0x48
    ee0a:	f005 050f 	and.w	r5, r5, #15
    ee0e:	f04f 0803 	mov.w	r8, #3
    ee12:	b18d      	cbz	r5, ee38 <_dtoa_r+0x7b8>
    ee14:	f8df a270 	ldr.w	sl, [pc, #624]	; f088 <_dtoa_r+0xa08>
    ee18:	4630      	mov	r0, r6
    ee1a:	4639      	mov	r1, r7
    ee1c:	07ee      	lsls	r6, r5, #31
    ee1e:	d505      	bpl.n	ee2c <_dtoa_r+0x7ac>
    ee20:	e9da 2300 	ldrd	r2, r3, [sl]
    ee24:	f7fb faa6 	bl	a374 <__aeabi_dmul>
    ee28:	f108 0801 	add.w	r8, r8, #1
    ee2c:	106d      	asrs	r5, r5, #1
    ee2e:	f10a 0a08 	add.w	sl, sl, #8
    ee32:	d1f3      	bne.n	ee1c <_dtoa_r+0x79c>
    ee34:	4606      	mov	r6, r0
    ee36:	460f      	mov	r7, r1
    ee38:	e9dd 0112 	ldrd	r0, r1, [sp, #72]	; 0x48
    ee3c:	4632      	mov	r2, r6
    ee3e:	463b      	mov	r3, r7
    ee40:	f7fb fbc2 	bl	a5c8 <__aeabi_ddiv>
    ee44:	4682      	mov	sl, r0
    ee46:	468b      	mov	fp, r1
    ee48:	9e10      	ldr	r6, [sp, #64]	; 0x40
    ee4a:	b146      	cbz	r6, ee5e <_dtoa_r+0x7de>
    ee4c:	4650      	mov	r0, sl
    ee4e:	4659      	mov	r1, fp
    ee50:	2200      	movs	r2, #0
    ee52:	4b8e      	ldr	r3, [pc, #568]	; (f08c <_dtoa_r+0xa0c>)
    ee54:	f7fb fd00 	bl	a858 <__aeabi_dcmplt>
    ee58:	2800      	cmp	r0, #0
    ee5a:	f040 82bd 	bne.w	f3d8 <_dtoa_r+0xd58>
    ee5e:	4640      	mov	r0, r8
    ee60:	f7fb fa22 	bl	a2a8 <__aeabi_i2d>
    ee64:	4652      	mov	r2, sl
    ee66:	465b      	mov	r3, fp
    ee68:	f7fb fa84 	bl	a374 <__aeabi_dmul>
    ee6c:	2200      	movs	r2, #0
    ee6e:	4b88      	ldr	r3, [pc, #544]	; (f090 <_dtoa_r+0xa10>)
    ee70:	f7fb f8ce 	bl	a010 <__adddf3>
    ee74:	4606      	mov	r6, r0
    ee76:	f1a1 7750 	sub.w	r7, r1, #54525952	; 0x3400000
    ee7a:	f1b9 0f00 	cmp.w	r9, #0
    ee7e:	f000 8168 	beq.w	f152 <_dtoa_r+0xad2>
    ee82:	9908      	ldr	r1, [sp, #32]
    ee84:	9119      	str	r1, [sp, #100]	; 0x64
    ee86:	46c8      	mov	r8, r9
    ee88:	9a0d      	ldr	r2, [sp, #52]	; 0x34
    ee8a:	2a00      	cmp	r2, #0
    ee8c:	f000 8228 	beq.w	f2e0 <_dtoa_r+0xc60>
    ee90:	4b7c      	ldr	r3, [pc, #496]	; (f084 <_dtoa_r+0xa04>)
    ee92:	4980      	ldr	r1, [pc, #512]	; (f094 <_dtoa_r+0xa14>)
    ee94:	eb03 03c8 	add.w	r3, r3, r8, lsl #3
    ee98:	e953 2302 	ldrd	r2, r3, [r3, #-8]
    ee9c:	2000      	movs	r0, #0
    ee9e:	f7fb fb93 	bl	a5c8 <__aeabi_ddiv>
    eea2:	4632      	mov	r2, r6
    eea4:	463b      	mov	r3, r7
    eea6:	f7fb f8b1 	bl	a00c <__aeabi_dsub>
    eeaa:	e9cd 0112 	strd	r0, r1, [sp, #72]	; 0x48
    eeae:	4659      	mov	r1, fp
    eeb0:	4650      	mov	r0, sl
    eeb2:	f002 f87f 	bl	10fb4 <__aeabi_d2iz>
    eeb6:	4605      	mov	r5, r0
    eeb8:	f7fb f9f6 	bl	a2a8 <__aeabi_i2d>
    eebc:	4602      	mov	r2, r0
    eebe:	460b      	mov	r3, r1
    eec0:	4650      	mov	r0, sl
    eec2:	4659      	mov	r1, fp
    eec4:	f7fb f8a2 	bl	a00c <__aeabi_dsub>
    eec8:	3530      	adds	r5, #48	; 0x30
    eeca:	9e0b      	ldr	r6, [sp, #44]	; 0x2c
    eecc:	e9cd 0100 	strd	r0, r1, [sp]
    eed0:	b2ed      	uxtb	r5, r5
    eed2:	7035      	strb	r5, [r6, #0]
    eed4:	e9dd 0112 	ldrd	r0, r1, [sp, #72]	; 0x48
    eed8:	e9dd 2300 	ldrd	r2, r3, [sp]
    eedc:	f106 0b01 	add.w	fp, r6, #1
    eee0:	f7fb fcd8 	bl	a894 <__aeabi_dcmpgt>
    eee4:	2800      	cmp	r0, #0
    eee6:	f040 82bf 	bne.w	f468 <_dtoa_r+0xde8>
    eeea:	e9dd 2300 	ldrd	r2, r3, [sp]
    eeee:	2000      	movs	r0, #0
    eef0:	4966      	ldr	r1, [pc, #408]	; (f08c <_dtoa_r+0xa0c>)
    eef2:	f7fb f88b 	bl	a00c <__aeabi_dsub>
    eef6:	4602      	mov	r2, r0
    eef8:	460b      	mov	r3, r1
    eefa:	e9dd 0112 	ldrd	r0, r1, [sp, #72]	; 0x48
    eefe:	f7fb fcc9 	bl	a894 <__aeabi_dcmpgt>
    ef02:	2800      	cmp	r0, #0
    ef04:	f040 82b6 	bne.w	f474 <_dtoa_r+0xdf4>
    ef08:	f1b8 0f01 	cmp.w	r8, #1
    ef0c:	f340 8185 	ble.w	f21a <_dtoa_r+0xb9a>
    ef10:	44b0      	add	r8, r6
    ef12:	f8cd 9058 	str.w	r9, [sp, #88]	; 0x58
    ef16:	46a2      	mov	sl, r4
    ef18:	46c1      	mov	r9, r8
    ef1a:	e9dd 6700 	ldrd	r6, r7, [sp]
    ef1e:	e9dd 4512 	ldrd	r4, r5, [sp, #72]	; 0x48
    ef22:	e00d      	b.n	ef40 <_dtoa_r+0x8c0>
    ef24:	2000      	movs	r0, #0
    ef26:	4959      	ldr	r1, [pc, #356]	; (f08c <_dtoa_r+0xa0c>)
    ef28:	f7fb f870 	bl	a00c <__aeabi_dsub>
    ef2c:	4622      	mov	r2, r4
    ef2e:	462b      	mov	r3, r5
    ef30:	f7fb fc92 	bl	a858 <__aeabi_dcmplt>
    ef34:	2800      	cmp	r0, #0
    ef36:	f040 829b 	bne.w	f470 <_dtoa_r+0xdf0>
    ef3a:	45cb      	cmp	fp, r9
    ef3c:	f000 816a 	beq.w	f214 <_dtoa_r+0xb94>
    ef40:	4620      	mov	r0, r4
    ef42:	4629      	mov	r1, r5
    ef44:	2200      	movs	r2, #0
    ef46:	4b54      	ldr	r3, [pc, #336]	; (f098 <_dtoa_r+0xa18>)
    ef48:	f7fb fa14 	bl	a374 <__aeabi_dmul>
    ef4c:	2200      	movs	r2, #0
    ef4e:	4b52      	ldr	r3, [pc, #328]	; (f098 <_dtoa_r+0xa18>)
    ef50:	4604      	mov	r4, r0
    ef52:	460d      	mov	r5, r1
    ef54:	4630      	mov	r0, r6
    ef56:	4639      	mov	r1, r7
    ef58:	f7fb fa0c 	bl	a374 <__aeabi_dmul>
    ef5c:	460f      	mov	r7, r1
    ef5e:	4606      	mov	r6, r0
    ef60:	f002 f828 	bl	10fb4 <__aeabi_d2iz>
    ef64:	4680      	mov	r8, r0
    ef66:	f7fb f99f 	bl	a2a8 <__aeabi_i2d>
    ef6a:	4602      	mov	r2, r0
    ef6c:	460b      	mov	r3, r1
    ef6e:	4630      	mov	r0, r6
    ef70:	4639      	mov	r1, r7
    ef72:	f7fb f84b 	bl	a00c <__aeabi_dsub>
    ef76:	f108 0830 	add.w	r8, r8, #48	; 0x30
    ef7a:	fa5f f888 	uxtb.w	r8, r8
    ef7e:	4622      	mov	r2, r4
    ef80:	462b      	mov	r3, r5
    ef82:	f80b 8b01 	strb.w	r8, [fp], #1
    ef86:	4606      	mov	r6, r0
    ef88:	460f      	mov	r7, r1
    ef8a:	f7fb fc65 	bl	a858 <__aeabi_dcmplt>
    ef8e:	4632      	mov	r2, r6
    ef90:	463b      	mov	r3, r7
    ef92:	2800      	cmp	r0, #0
    ef94:	d0c6      	beq.n	ef24 <_dtoa_r+0x8a4>
    ef96:	9e19      	ldr	r6, [sp, #100]	; 0x64
    ef98:	9608      	str	r6, [sp, #32]
    ef9a:	4654      	mov	r4, sl
    ef9c:	e541      	b.n	ea22 <_dtoa_r+0x3a2>
    ef9e:	2200      	movs	r2, #0
    efa0:	920d      	str	r2, [sp, #52]	; 0x34
    efa2:	9b06      	ldr	r3, [sp, #24]
    efa4:	2b00      	cmp	r3, #0
    efa6:	dd3d      	ble.n	f024 <_dtoa_r+0x9a4>
    efa8:	461d      	mov	r5, r3
    efaa:	9311      	str	r3, [sp, #68]	; 0x44
    efac:	4699      	mov	r9, r3
    efae:	e6f8      	b.n	eda2 <_dtoa_r+0x722>
    efb0:	2301      	movs	r3, #1
    efb2:	930d      	str	r3, [sp, #52]	; 0x34
    efb4:	e7f5      	b.n	efa2 <_dtoa_r+0x922>
    efb6:	f1b9 0f00 	cmp.w	r9, #0
    efba:	f73f ac85 	bgt.w	e8c8 <_dtoa_r+0x248>
    efbe:	f040 80e0 	bne.w	f182 <_dtoa_r+0xb02>
    efc2:	2200      	movs	r2, #0
    efc4:	4b35      	ldr	r3, [pc, #212]	; (f09c <_dtoa_r+0xa1c>)
    efc6:	e9dd 0104 	ldrd	r0, r1, [sp, #16]
    efca:	f7fb f9d3 	bl	a374 <__aeabi_dmul>
    efce:	4652      	mov	r2, sl
    efd0:	465b      	mov	r3, fp
    efd2:	f7fb fc55 	bl	a880 <__aeabi_dcmpge>
    efd6:	46c8      	mov	r8, r9
    efd8:	464e      	mov	r6, r9
    efda:	2800      	cmp	r0, #0
    efdc:	f000 8091 	beq.w	f102 <_dtoa_r+0xa82>
    efe0:	9b06      	ldr	r3, [sp, #24]
    efe2:	f8dd b02c 	ldr.w	fp, [sp, #44]	; 0x2c
    efe6:	43db      	mvns	r3, r3
    efe8:	9308      	str	r3, [sp, #32]
    efea:	4641      	mov	r1, r8
    efec:	4620      	mov	r0, r4
    efee:	f000 ffe9 	bl	ffc4 <_Bfree>
    eff2:	2e00      	cmp	r6, #0
    eff4:	f47f ae0e 	bne.w	ec14 <_dtoa_r+0x594>
    eff8:	e513      	b.n	ea22 <_dtoa_r+0x3a2>
    effa:	990c      	ldr	r1, [sp, #48]	; 0x30
    effc:	4620      	mov	r0, r4
    effe:	f001 f92d 	bl	1025c <__pow5mult>
    f002:	900c      	str	r0, [sp, #48]	; 0x30
    f004:	e56f      	b.n	eae6 <_dtoa_r+0x466>
    f006:	9e18      	ldr	r6, [sp, #96]	; 0x60
    f008:	2e00      	cmp	r6, #0
    f00a:	f000 81ca 	beq.w	f3a2 <_dtoa_r+0xd22>
    f00e:	f203 4333 	addw	r3, r3, #1075	; 0x433
    f012:	9f0e      	ldr	r7, [sp, #56]	; 0x38
    f014:	9d0a      	ldr	r5, [sp, #40]	; 0x28
    f016:	e52e      	b.n	ea76 <_dtoa_r+0x3f6>
    f018:	4601      	mov	r1, r0
    f01a:	4620      	mov	r0, r4
    f01c:	f000 ffd2 	bl	ffc4 <_Bfree>
    f020:	2201      	movs	r2, #1
    f022:	e685      	b.n	ed30 <_dtoa_r+0x6b0>
    f024:	2501      	movs	r5, #1
    f026:	9511      	str	r5, [sp, #68]	; 0x44
    f028:	46a9      	mov	r9, r5
    f02a:	9506      	str	r5, [sp, #24]
    f02c:	2100      	movs	r1, #0
    f02e:	6461      	str	r1, [r4, #68]	; 0x44
    f030:	e6c6      	b.n	edc0 <_dtoa_r+0x740>
    f032:	980c      	ldr	r0, [sp, #48]	; 0x30
    f034:	4641      	mov	r1, r8
    f036:	f001 f9bd 	bl	103b4 <__mcmp>
    f03a:	2800      	cmp	r0, #0
    f03c:	f6bf ad97 	bge.w	eb6e <_dtoa_r+0x4ee>
    f040:	f8dd e020 	ldr.w	lr, [sp, #32]
    f044:	990c      	ldr	r1, [sp, #48]	; 0x30
    f046:	f10e 3eff 	add.w	lr, lr, #4294967295	; 0xffffffff
    f04a:	4620      	mov	r0, r4
    f04c:	220a      	movs	r2, #10
    f04e:	2300      	movs	r3, #0
    f050:	f8cd e020 	str.w	lr, [sp, #32]
    f054:	f000 ffc0 	bl	ffd8 <__multadd>
    f058:	990d      	ldr	r1, [sp, #52]	; 0x34
    f05a:	900c      	str	r0, [sp, #48]	; 0x30
    f05c:	2900      	cmp	r1, #0
    f05e:	f040 8220 	bne.w	f4a2 <_dtoa_r+0xe22>
    f062:	f8dd 9044 	ldr.w	r9, [sp, #68]	; 0x44
    f066:	e582      	b.n	eb6e <_dtoa_r+0x4ee>
    f068:	f8d8 3010 	ldr.w	r3, [r8, #16]
    f06c:	eb08 0383 	add.w	r3, r8, r3, lsl #2
    f070:	6918      	ldr	r0, [r3, #16]
    f072:	f000 fffd 	bl	10070 <__hi0bits>
    f076:	f1c0 0020 	rsb	r0, r0, #32
    f07a:	e54c      	b.n	eb16 <_dtoa_r+0x496>
    f07c:	980b      	ldr	r0, [sp, #44]	; 0x2c
    f07e:	f7ff bb35 	b.w	e6ec <_dtoa_r+0x6c>
    f082:	bf00      	nop
    f084:	000117d8 	.word	0x000117d8
    f088:	000118a0 	.word	0x000118a0
    f08c:	3ff00000 	.word	0x3ff00000
    f090:	401c0000 	.word	0x401c0000
    f094:	3fe00000 	.word	0x3fe00000
    f098:	40240000 	.word	0x40240000
    f09c:	40140000 	.word	0x40140000
    f0a0:	f1ba 0f00 	cmp.w	sl, #0
    f0a4:	f47f ad31 	bne.w	eb0a <_dtoa_r+0x48a>
    f0a8:	f3cb 0313 	ubfx	r3, fp, #0, #20
    f0ac:	2b00      	cmp	r3, #0
    f0ae:	f040 817f 	bne.w	f3b0 <_dtoa_r+0xd30>
    f0b2:	f02b 4700 	bic.w	r7, fp, #2147483648	; 0x80000000
    f0b6:	0d3f      	lsrs	r7, r7, #20
    f0b8:	053f      	lsls	r7, r7, #20
    f0ba:	2f00      	cmp	r7, #0
    f0bc:	f43f ad26 	beq.w	eb0c <_dtoa_r+0x48c>
    f0c0:	9b0a      	ldr	r3, [sp, #40]	; 0x28
    f0c2:	f8dd e01c 	ldr.w	lr, [sp, #28]
    f0c6:	3301      	adds	r3, #1
    f0c8:	f10e 0e01 	add.w	lr, lr, #1
    f0cc:	930a      	str	r3, [sp, #40]	; 0x28
    f0ce:	f8cd e01c 	str.w	lr, [sp, #28]
    f0d2:	2701      	movs	r7, #1
    f0d4:	e51a      	b.n	eb0c <_dtoa_r+0x48c>
    f0d6:	9a04      	ldr	r2, [sp, #16]
    f0d8:	2a02      	cmp	r2, #2
    f0da:	f77f ad4c 	ble.w	eb76 <_dtoa_r+0x4f6>
    f0de:	f1b9 0f00 	cmp.w	r9, #0
    f0e2:	f47f af7d 	bne.w	efe0 <_dtoa_r+0x960>
    f0e6:	4641      	mov	r1, r8
    f0e8:	464b      	mov	r3, r9
    f0ea:	2205      	movs	r2, #5
    f0ec:	4620      	mov	r0, r4
    f0ee:	f000 ff73 	bl	ffd8 <__multadd>
    f0f2:	4680      	mov	r8, r0
    f0f4:	4641      	mov	r1, r8
    f0f6:	980c      	ldr	r0, [sp, #48]	; 0x30
    f0f8:	f001 f95c 	bl	103b4 <__mcmp>
    f0fc:	2800      	cmp	r0, #0
    f0fe:	f77f af6f 	ble.w	efe0 <_dtoa_r+0x960>
    f102:	f8dd e020 	ldr.w	lr, [sp, #32]
    f106:	990b      	ldr	r1, [sp, #44]	; 0x2c
    f108:	2331      	movs	r3, #49	; 0x31
    f10a:	f10e 0e01 	add.w	lr, lr, #1
    f10e:	f8cd e020 	str.w	lr, [sp, #32]
    f112:	700b      	strb	r3, [r1, #0]
    f114:	f101 0b01 	add.w	fp, r1, #1
    f118:	e767      	b.n	efea <_dtoa_r+0x96a>
    f11a:	9a08      	ldr	r2, [sp, #32]
    f11c:	f8dd e02c 	ldr.w	lr, [sp, #44]	; 0x2c
    f120:	2331      	movs	r3, #49	; 0x31
    f122:	3201      	adds	r2, #1
    f124:	9208      	str	r2, [sp, #32]
    f126:	f88e 3000 	strb.w	r3, [lr]
    f12a:	e565      	b.n	ebf8 <_dtoa_r+0x578>
    f12c:	46a3      	mov	fp, r4
    f12e:	9c06      	ldr	r4, [sp, #24]
    f130:	e477      	b.n	ea22 <_dtoa_r+0x3a2>
    f132:	4640      	mov	r0, r8
    f134:	f7fb f8b8 	bl	a2a8 <__aeabi_i2d>
    f138:	4602      	mov	r2, r0
    f13a:	460b      	mov	r3, r1
    f13c:	4650      	mov	r0, sl
    f13e:	4659      	mov	r1, fp
    f140:	f7fb f918 	bl	a374 <__aeabi_dmul>
    f144:	2200      	movs	r2, #0
    f146:	4b9e      	ldr	r3, [pc, #632]	; (f3c0 <_dtoa_r+0xd40>)
    f148:	f7fa ff62 	bl	a010 <__adddf3>
    f14c:	4606      	mov	r6, r0
    f14e:	f1a1 7750 	sub.w	r7, r1, #54525952	; 0x3400000
    f152:	4650      	mov	r0, sl
    f154:	4659      	mov	r1, fp
    f156:	2200      	movs	r2, #0
    f158:	4b9a      	ldr	r3, [pc, #616]	; (f3c4 <_dtoa_r+0xd44>)
    f15a:	f7fa ff57 	bl	a00c <__aeabi_dsub>
    f15e:	4632      	mov	r2, r6
    f160:	463b      	mov	r3, r7
    f162:	4682      	mov	sl, r0
    f164:	468b      	mov	fp, r1
    f166:	f7fb fb95 	bl	a894 <__aeabi_dcmpgt>
    f16a:	2800      	cmp	r0, #0
    f16c:	f040 80b4 	bne.w	f2d8 <_dtoa_r+0xc58>
    f170:	4632      	mov	r2, r6
    f172:	f107 4300 	add.w	r3, r7, #2147483648	; 0x80000000
    f176:	4650      	mov	r0, sl
    f178:	4659      	mov	r1, fp
    f17a:	f7fb fb6d 	bl	a858 <__aeabi_dcmplt>
    f17e:	2800      	cmp	r0, #0
    f180:	d04b      	beq.n	f21a <_dtoa_r+0xb9a>
    f182:	f04f 0800 	mov.w	r8, #0
    f186:	4646      	mov	r6, r8
    f188:	e72a      	b.n	efe0 <_dtoa_r+0x960>
    f18a:	990c      	ldr	r1, [sp, #48]	; 0x30
    f18c:	9a0e      	ldr	r2, [sp, #56]	; 0x38
    f18e:	4620      	mov	r0, r4
    f190:	f001 f864 	bl	1025c <__pow5mult>
    f194:	900c      	str	r0, [sp, #48]	; 0x30
    f196:	e4a6      	b.n	eae6 <_dtoa_r+0x466>
    f198:	2101      	movs	r1, #1
    f19a:	910d      	str	r1, [sp, #52]	; 0x34
    f19c:	e5f6      	b.n	ed8c <_dtoa_r+0x70c>
    f19e:	9e0e      	ldr	r6, [sp, #56]	; 0x38
    f1a0:	970e      	str	r7, [sp, #56]	; 0x38
    f1a2:	1bbb      	subs	r3, r7, r6
    f1a4:	9e0f      	ldr	r6, [sp, #60]	; 0x3c
    f1a6:	441e      	add	r6, r3
    f1a8:	960f      	str	r6, [sp, #60]	; 0x3c
    f1aa:	2700      	movs	r7, #0
    f1ac:	e45d      	b.n	ea6a <_dtoa_r+0x3ea>
    f1ae:	ed9d 7b14 	vldr	d7, [sp, #80]	; 0x50
    f1b2:	f04f 0802 	mov.w	r8, #2
    f1b6:	ed8d 7b12 	vstr	d7, [sp, #72]	; 0x48
    f1ba:	e62a      	b.n	ee12 <_dtoa_r+0x792>
    f1bc:	2a00      	cmp	r2, #0
    f1be:	f8cd 9030 	str.w	r9, [sp, #48]	; 0x30
    f1c2:	46d9      	mov	r9, fp
    f1c4:	dd11      	ble.n	f1ea <_dtoa_r+0xb6a>
    f1c6:	990c      	ldr	r1, [sp, #48]	; 0x30
    f1c8:	2201      	movs	r2, #1
    f1ca:	4620      	mov	r0, r4
    f1cc:	f001 f894 	bl	102f8 <__lshift>
    f1d0:	4641      	mov	r1, r8
    f1d2:	900c      	str	r0, [sp, #48]	; 0x30
    f1d4:	f001 f8ee 	bl	103b4 <__mcmp>
    f1d8:	2800      	cmp	r0, #0
    f1da:	f340 815b 	ble.w	f494 <_dtoa_r+0xe14>
    f1de:	f1ba 0f39 	cmp.w	sl, #57	; 0x39
    f1e2:	f000 8123 	beq.w	f42c <_dtoa_r+0xdac>
    f1e6:	f109 0a31 	add.w	sl, r9, #49	; 0x31
    f1ea:	4635      	mov	r5, r6
    f1ec:	9e07      	ldr	r6, [sp, #28]
    f1ee:	f886 a000 	strb.w	sl, [r6]
    f1f2:	f106 0b01 	add.w	fp, r6, #1
    f1f6:	463e      	mov	r6, r7
    f1f8:	e4fe      	b.n	ebf8 <_dtoa_r+0x578>
    f1fa:	d103      	bne.n	f204 <_dtoa_r+0xb84>
    f1fc:	f01a 0f01 	tst.w	sl, #1
    f200:	f47f acea 	bne.w	ebd8 <_dtoa_r+0x558>
    f204:	465b      	mov	r3, fp
    f206:	469b      	mov	fp, r3
    f208:	3b01      	subs	r3, #1
    f20a:	f81b 2c01 	ldrb.w	r2, [fp, #-1]
    f20e:	2a30      	cmp	r2, #48	; 0x30
    f210:	d0f9      	beq.n	f206 <_dtoa_r+0xb86>
    f212:	e4f1      	b.n	ebf8 <_dtoa_r+0x578>
    f214:	f8dd 9058 	ldr.w	r9, [sp, #88]	; 0x58
    f218:	4654      	mov	r4, sl
    f21a:	e9dd ab14 	ldrd	sl, fp, [sp, #80]	; 0x50
    f21e:	f7ff bb40 	b.w	e8a2 <_dtoa_r+0x222>
    f222:	9e08      	ldr	r6, [sp, #32]
    f224:	4275      	negs	r5, r6
    f226:	2d00      	cmp	r5, #0
    f228:	f000 80c5 	beq.w	f3b6 <_dtoa_r+0xd36>
    f22c:	4b66      	ldr	r3, [pc, #408]	; (f3c8 <_dtoa_r+0xd48>)
    f22e:	f005 020f 	and.w	r2, r5, #15
    f232:	eb03 03c2 	add.w	r3, r3, r2, lsl #3
    f236:	e9d3 2300 	ldrd	r2, r3, [r3]
    f23a:	e9dd 0114 	ldrd	r0, r1, [sp, #80]	; 0x50
    f23e:	f7fb f899 	bl	a374 <__aeabi_dmul>
    f242:	112d      	asrs	r5, r5, #4
    f244:	4682      	mov	sl, r0
    f246:	468b      	mov	fp, r1
    f248:	f000 8136 	beq.w	f4b8 <_dtoa_r+0xe38>
    f24c:	4e5f      	ldr	r6, [pc, #380]	; (f3cc <_dtoa_r+0xd4c>)
    f24e:	f04f 0802 	mov.w	r8, #2
    f252:	07ea      	lsls	r2, r5, #31
    f254:	d505      	bpl.n	f262 <_dtoa_r+0xbe2>
    f256:	e9d6 2300 	ldrd	r2, r3, [r6]
    f25a:	f7fb f88b 	bl	a374 <__aeabi_dmul>
    f25e:	f108 0801 	add.w	r8, r8, #1
    f262:	106d      	asrs	r5, r5, #1
    f264:	f106 0608 	add.w	r6, r6, #8
    f268:	d1f3      	bne.n	f252 <_dtoa_r+0xbd2>
    f26a:	4682      	mov	sl, r0
    f26c:	468b      	mov	fp, r1
    f26e:	e5eb      	b.n	ee48 <_dtoa_r+0x7c8>
    f270:	9e08      	ldr	r6, [sp, #32]
    f272:	3601      	adds	r6, #1
    f274:	9608      	str	r6, [sp, #32]
    f276:	9e0b      	ldr	r6, [sp, #44]	; 0x2c
    f278:	2230      	movs	r2, #48	; 0x30
    f27a:	7032      	strb	r2, [r6, #0]
    f27c:	2231      	movs	r2, #49	; 0x31
    f27e:	701a      	strb	r2, [r3, #0]
    f280:	f7ff bbcf 	b.w	ea22 <_dtoa_r+0x3a2>
    f284:	6871      	ldr	r1, [r6, #4]
    f286:	4620      	mov	r0, r4
    f288:	f000 fe76 	bl	ff78 <_Balloc>
    f28c:	6933      	ldr	r3, [r6, #16]
    f28e:	1c9a      	adds	r2, r3, #2
    f290:	4605      	mov	r5, r0
    f292:	0092      	lsls	r2, r2, #2
    f294:	f106 010c 	add.w	r1, r6, #12
    f298:	300c      	adds	r0, #12
    f29a:	f7fc f91f 	bl	b4dc <memcpy>
    f29e:	4620      	mov	r0, r4
    f2a0:	4629      	mov	r1, r5
    f2a2:	2201      	movs	r2, #1
    f2a4:	f001 f828 	bl	102f8 <__lshift>
    f2a8:	4607      	mov	r7, r0
    f2aa:	e4fd      	b.n	eca8 <_dtoa_r+0x628>
    f2ac:	f1ba 0f39 	cmp.w	sl, #57	; 0x39
    f2b0:	f8cd 9030 	str.w	r9, [sp, #48]	; 0x30
    f2b4:	f000 80ba 	beq.w	f42c <_dtoa_r+0xdac>
    f2b8:	f8dd e01c 	ldr.w	lr, [sp, #28]
    f2bc:	f10a 0301 	add.w	r3, sl, #1
    f2c0:	4635      	mov	r5, r6
    f2c2:	f88e 3000 	strb.w	r3, [lr]
    f2c6:	f10e 0b01 	add.w	fp, lr, #1
    f2ca:	463e      	mov	r6, r7
    f2cc:	e494      	b.n	ebf8 <_dtoa_r+0x578>
    f2ce:	4635      	mov	r5, r6
    f2d0:	f8cd 9030 	str.w	r9, [sp, #48]	; 0x30
    f2d4:	463e      	mov	r6, r7
    f2d6:	e473      	b.n	ebc0 <_dtoa_r+0x540>
    f2d8:	f04f 0800 	mov.w	r8, #0
    f2dc:	4646      	mov	r6, r8
    f2de:	e710      	b.n	f102 <_dtoa_r+0xa82>
    f2e0:	4939      	ldr	r1, [pc, #228]	; (f3c8 <_dtoa_r+0xd48>)
    f2e2:	f108 3eff 	add.w	lr, r8, #4294967295	; 0xffffffff
    f2e6:	eb01 01ce 	add.w	r1, r1, lr, lsl #3
    f2ea:	4632      	mov	r2, r6
    f2ec:	463b      	mov	r3, r7
    f2ee:	e9d1 0100 	ldrd	r0, r1, [r1]
    f2f2:	f8cd e048 	str.w	lr, [sp, #72]	; 0x48
    f2f6:	f7fb f83d 	bl	a374 <__aeabi_dmul>
    f2fa:	e9cd 0116 	strd	r0, r1, [sp, #88]	; 0x58
    f2fe:	4659      	mov	r1, fp
    f300:	4650      	mov	r0, sl
    f302:	f001 fe57 	bl	10fb4 <__aeabi_d2iz>
    f306:	4605      	mov	r5, r0
    f308:	f7fa ffce 	bl	a2a8 <__aeabi_i2d>
    f30c:	4602      	mov	r2, r0
    f30e:	460b      	mov	r3, r1
    f310:	4650      	mov	r0, sl
    f312:	4659      	mov	r1, fp
    f314:	f7fa fe7a 	bl	a00c <__aeabi_dsub>
    f318:	460f      	mov	r7, r1
    f31a:	990b      	ldr	r1, [sp, #44]	; 0x2c
    f31c:	3530      	adds	r5, #48	; 0x30
    f31e:	f1b8 0f01 	cmp.w	r8, #1
    f322:	4606      	mov	r6, r0
    f324:	700d      	strb	r5, [r1, #0]
    f326:	f101 0b01 	add.w	fp, r1, #1
    f32a:	d021      	beq.n	f370 <_dtoa_r+0xcf0>
    f32c:	990b      	ldr	r1, [sp, #44]	; 0x2c
    f32e:	1e4b      	subs	r3, r1, #1
    f330:	460d      	mov	r5, r1
    f332:	eb03 0a08 	add.w	sl, r3, r8
    f336:	4630      	mov	r0, r6
    f338:	4639      	mov	r1, r7
    f33a:	2200      	movs	r2, #0
    f33c:	4b24      	ldr	r3, [pc, #144]	; (f3d0 <_dtoa_r+0xd50>)
    f33e:	f7fb f819 	bl	a374 <__aeabi_dmul>
    f342:	460f      	mov	r7, r1
    f344:	4606      	mov	r6, r0
    f346:	f001 fe35 	bl	10fb4 <__aeabi_d2iz>
    f34a:	4680      	mov	r8, r0
    f34c:	f7fa ffac 	bl	a2a8 <__aeabi_i2d>
    f350:	f108 0830 	add.w	r8, r8, #48	; 0x30
    f354:	4602      	mov	r2, r0
    f356:	460b      	mov	r3, r1
    f358:	4630      	mov	r0, r6
    f35a:	4639      	mov	r1, r7
    f35c:	f7fa fe56 	bl	a00c <__aeabi_dsub>
    f360:	f805 8f01 	strb.w	r8, [r5, #1]!
    f364:	4555      	cmp	r5, sl
    f366:	d1e8      	bne.n	f33a <_dtoa_r+0xcba>
    f368:	9a12      	ldr	r2, [sp, #72]	; 0x48
    f36a:	4606      	mov	r6, r0
    f36c:	460f      	mov	r7, r1
    f36e:	4493      	add	fp, r2
    f370:	2200      	movs	r2, #0
    f372:	4b18      	ldr	r3, [pc, #96]	; (f3d4 <_dtoa_r+0xd54>)
    f374:	e9dd 0116 	ldrd	r0, r1, [sp, #88]	; 0x58
    f378:	f7fa fe4a 	bl	a010 <__adddf3>
    f37c:	4632      	mov	r2, r6
    f37e:	463b      	mov	r3, r7
    f380:	f7fb fa6a 	bl	a858 <__aeabi_dcmplt>
    f384:	2800      	cmp	r0, #0
    f386:	d05b      	beq.n	f440 <_dtoa_r+0xdc0>
    f388:	9e19      	ldr	r6, [sp, #100]	; 0x64
    f38a:	9608      	str	r6, [sp, #32]
    f38c:	f81b 5c01 	ldrb.w	r5, [fp, #-1]
    f390:	9a0b      	ldr	r2, [sp, #44]	; 0x2c
    f392:	f7ff bb3f 	b.w	ea14 <_dtoa_r+0x394>
    f396:	9e0a      	ldr	r6, [sp, #40]	; 0x28
    f398:	2300      	movs	r3, #0
    f39a:	ebc9 0506 	rsb	r5, r9, r6
    f39e:	f7ff bb6a 	b.w	ea76 <_dtoa_r+0x3f6>
    f3a2:	9b1a      	ldr	r3, [sp, #104]	; 0x68
    f3a4:	9f0e      	ldr	r7, [sp, #56]	; 0x38
    f3a6:	9d0a      	ldr	r5, [sp, #40]	; 0x28
    f3a8:	f1c3 0336 	rsb	r3, r3, #54	; 0x36
    f3ac:	f7ff bb63 	b.w	ea76 <_dtoa_r+0x3f6>
    f3b0:	4657      	mov	r7, sl
    f3b2:	f7ff bbab 	b.w	eb0c <_dtoa_r+0x48c>
    f3b6:	e9dd ab14 	ldrd	sl, fp, [sp, #80]	; 0x50
    f3ba:	f04f 0802 	mov.w	r8, #2
    f3be:	e543      	b.n	ee48 <_dtoa_r+0x7c8>
    f3c0:	401c0000 	.word	0x401c0000
    f3c4:	40140000 	.word	0x40140000
    f3c8:	000117d8 	.word	0x000117d8
    f3cc:	000118a0 	.word	0x000118a0
    f3d0:	40240000 	.word	0x40240000
    f3d4:	3fe00000 	.word	0x3fe00000
    f3d8:	f1b9 0f00 	cmp.w	r9, #0
    f3dc:	f43f aea9 	beq.w	f132 <_dtoa_r+0xab2>
    f3e0:	9e11      	ldr	r6, [sp, #68]	; 0x44
    f3e2:	2e00      	cmp	r6, #0
    f3e4:	f77f af19 	ble.w	f21a <_dtoa_r+0xb9a>
    f3e8:	2200      	movs	r2, #0
    f3ea:	4b38      	ldr	r3, [pc, #224]	; (f4cc <_dtoa_r+0xe4c>)
    f3ec:	4650      	mov	r0, sl
    f3ee:	4659      	mov	r1, fp
    f3f0:	f7fa ffc0 	bl	a374 <__aeabi_dmul>
    f3f4:	4682      	mov	sl, r0
    f3f6:	f108 0001 	add.w	r0, r8, #1
    f3fa:	468b      	mov	fp, r1
    f3fc:	f7fa ff54 	bl	a2a8 <__aeabi_i2d>
    f400:	4602      	mov	r2, r0
    f402:	460b      	mov	r3, r1
    f404:	4650      	mov	r0, sl
    f406:	4659      	mov	r1, fp
    f408:	f7fa ffb4 	bl	a374 <__aeabi_dmul>
    f40c:	2200      	movs	r2, #0
    f40e:	4b30      	ldr	r3, [pc, #192]	; (f4d0 <_dtoa_r+0xe50>)
    f410:	f7fa fdfe 	bl	a010 <__adddf3>
    f414:	f8dd e020 	ldr.w	lr, [sp, #32]
    f418:	f8dd 8044 	ldr.w	r8, [sp, #68]	; 0x44
    f41c:	f10e 3eff 	add.w	lr, lr, #4294967295	; 0xffffffff
    f420:	4606      	mov	r6, r0
    f422:	f8cd e064 	str.w	lr, [sp, #100]	; 0x64
    f426:	f1a1 7750 	sub.w	r7, r1, #54525952	; 0x3400000
    f42a:	e52d      	b.n	ee88 <_dtoa_r+0x808>
    f42c:	9b07      	ldr	r3, [sp, #28]
    f42e:	990b      	ldr	r1, [sp, #44]	; 0x2c
    f430:	2239      	movs	r2, #57	; 0x39
    f432:	4635      	mov	r5, r6
    f434:	701a      	strb	r2, [r3, #0]
    f436:	463e      	mov	r6, r7
    f438:	f103 0b01 	add.w	fp, r3, #1
    f43c:	f7ff bbd6 	b.w	ebec <_dtoa_r+0x56c>
    f440:	e9dd 2316 	ldrd	r2, r3, [sp, #88]	; 0x58
    f444:	2000      	movs	r0, #0
    f446:	4923      	ldr	r1, [pc, #140]	; (f4d4 <_dtoa_r+0xe54>)
    f448:	f7fa fde0 	bl	a00c <__aeabi_dsub>
    f44c:	4632      	mov	r2, r6
    f44e:	463b      	mov	r3, r7
    f450:	f7fb fa20 	bl	a894 <__aeabi_dcmpgt>
    f454:	2800      	cmp	r0, #0
    f456:	f43f aee0 	beq.w	f21a <_dtoa_r+0xb9a>
    f45a:	465b      	mov	r3, fp
    f45c:	469b      	mov	fp, r3
    f45e:	3b01      	subs	r3, #1
    f460:	f81b 2c01 	ldrb.w	r2, [fp, #-1]
    f464:	2a30      	cmp	r2, #48	; 0x30
    f466:	d0f9      	beq.n	f45c <_dtoa_r+0xddc>
    f468:	9e19      	ldr	r6, [sp, #100]	; 0x64
    f46a:	9608      	str	r6, [sp, #32]
    f46c:	f7ff bad9 	b.w	ea22 <_dtoa_r+0x3a2>
    f470:	4645      	mov	r5, r8
    f472:	4654      	mov	r4, sl
    f474:	9e19      	ldr	r6, [sp, #100]	; 0x64
    f476:	9608      	str	r6, [sp, #32]
    f478:	9a0b      	ldr	r2, [sp, #44]	; 0x2c
    f47a:	f7ff bacb 	b.w	ea14 <_dtoa_r+0x394>
    f47e:	f1ba 0f39 	cmp.w	sl, #57	; 0x39
    f482:	f8cd 9030 	str.w	r9, [sp, #48]	; 0x30
    f486:	46d9      	mov	r9, fp
    f488:	d0d0      	beq.n	f42c <_dtoa_r+0xdac>
    f48a:	9b06      	ldr	r3, [sp, #24]
    f48c:	2b00      	cmp	r3, #0
    f48e:	f73f aeaa 	bgt.w	f1e6 <_dtoa_r+0xb66>
    f492:	e6aa      	b.n	f1ea <_dtoa_r+0xb6a>
    f494:	f47f aea9 	bne.w	f1ea <_dtoa_r+0xb6a>
    f498:	f01a 0f01 	tst.w	sl, #1
    f49c:	f43f aea5 	beq.w	f1ea <_dtoa_r+0xb6a>
    f4a0:	e69d      	b.n	f1de <_dtoa_r+0xb5e>
    f4a2:	4631      	mov	r1, r6
    f4a4:	4620      	mov	r0, r4
    f4a6:	220a      	movs	r2, #10
    f4a8:	2300      	movs	r3, #0
    f4aa:	f8dd 9044 	ldr.w	r9, [sp, #68]	; 0x44
    f4ae:	f000 fd93 	bl	ffd8 <__multadd>
    f4b2:	4606      	mov	r6, r0
    f4b4:	f7ff bb5b 	b.w	eb6e <_dtoa_r+0x4ee>
    f4b8:	f04f 0802 	mov.w	r8, #2
    f4bc:	e4c4      	b.n	ee48 <_dtoa_r+0x7c8>
    f4be:	f43f ab40 	beq.w	eb42 <_dtoa_r+0x4c2>
    f4c2:	f1c3 033c 	rsb	r3, r3, #60	; 0x3c
    f4c6:	f7ff bbd4 	b.w	ec72 <_dtoa_r+0x5f2>
    f4ca:	bf00      	nop
    f4cc:	40240000 	.word	0x40240000
    f4d0:	401c0000 	.word	0x401c0000
    f4d4:	3fe00000 	.word	0x3fe00000

0000f4d8 <__sflush_r>:
    f4d8:	898b      	ldrh	r3, [r1, #12]
    f4da:	b29a      	uxth	r2, r3
    f4dc:	e92d 41f0 	stmdb	sp!, {r4, r5, r6, r7, r8, lr}
    f4e0:	460d      	mov	r5, r1
    f4e2:	0711      	lsls	r1, r2, #28
    f4e4:	4680      	mov	r8, r0
    f4e6:	d43c      	bmi.n	f562 <__sflush_r+0x8a>
    f4e8:	686a      	ldr	r2, [r5, #4]
    f4ea:	f443 6300 	orr.w	r3, r3, #2048	; 0x800
    f4ee:	2a00      	cmp	r2, #0
    f4f0:	81ab      	strh	r3, [r5, #12]
    f4f2:	dd59      	ble.n	f5a8 <__sflush_r+0xd0>
    f4f4:	6aac      	ldr	r4, [r5, #40]	; 0x28
    f4f6:	2c00      	cmp	r4, #0
    f4f8:	d04b      	beq.n	f592 <__sflush_r+0xba>
    f4fa:	b29b      	uxth	r3, r3
    f4fc:	f403 5280 	and.w	r2, r3, #4096	; 0x1000
    f500:	2100      	movs	r1, #0
    f502:	b292      	uxth	r2, r2
    f504:	f8d8 6000 	ldr.w	r6, [r8]
    f508:	f8c8 1000 	str.w	r1, [r8]
    f50c:	2a00      	cmp	r2, #0
    f50e:	d04f      	beq.n	f5b0 <__sflush_r+0xd8>
    f510:	6d2a      	ldr	r2, [r5, #80]	; 0x50
    f512:	075f      	lsls	r7, r3, #29
    f514:	d505      	bpl.n	f522 <__sflush_r+0x4a>
    f516:	6869      	ldr	r1, [r5, #4]
    f518:	6b2b      	ldr	r3, [r5, #48]	; 0x30
    f51a:	1a52      	subs	r2, r2, r1
    f51c:	b10b      	cbz	r3, f522 <__sflush_r+0x4a>
    f51e:	6beb      	ldr	r3, [r5, #60]	; 0x3c
    f520:	1ad2      	subs	r2, r2, r3
    f522:	4640      	mov	r0, r8
    f524:	69e9      	ldr	r1, [r5, #28]
    f526:	2300      	movs	r3, #0
    f528:	47a0      	blx	r4
    f52a:	1c44      	adds	r4, r0, #1
    f52c:	d04a      	beq.n	f5c4 <__sflush_r+0xec>
    f52e:	89aa      	ldrh	r2, [r5, #12]
    f530:	692b      	ldr	r3, [r5, #16]
    f532:	602b      	str	r3, [r5, #0]
    f534:	f422 6300 	bic.w	r3, r2, #2048	; 0x800
    f538:	b29b      	uxth	r3, r3
    f53a:	2200      	movs	r2, #0
    f53c:	606a      	str	r2, [r5, #4]
    f53e:	04da      	lsls	r2, r3, #19
    f540:	81ab      	strh	r3, [r5, #12]
    f542:	d44c      	bmi.n	f5de <__sflush_r+0x106>
    f544:	6b29      	ldr	r1, [r5, #48]	; 0x30
    f546:	f8c8 6000 	str.w	r6, [r8]
    f54a:	b311      	cbz	r1, f592 <__sflush_r+0xba>
    f54c:	f105 0340 	add.w	r3, r5, #64	; 0x40
    f550:	4299      	cmp	r1, r3
    f552:	d002      	beq.n	f55a <__sflush_r+0x82>
    f554:	4640      	mov	r0, r8
    f556:	f000 f969 	bl	f82c <_free_r>
    f55a:	2000      	movs	r0, #0
    f55c:	6328      	str	r0, [r5, #48]	; 0x30
    f55e:	e8bd 81f0 	ldmia.w	sp!, {r4, r5, r6, r7, r8, pc}
    f562:	692e      	ldr	r6, [r5, #16]
    f564:	b1ae      	cbz	r6, f592 <__sflush_r+0xba>
    f566:	682c      	ldr	r4, [r5, #0]
    f568:	602e      	str	r6, [r5, #0]
    f56a:	0791      	lsls	r1, r2, #30
    f56c:	bf0c      	ite	eq
    f56e:	696b      	ldreq	r3, [r5, #20]
    f570:	2300      	movne	r3, #0
    f572:	1ba4      	subs	r4, r4, r6
    f574:	60ab      	str	r3, [r5, #8]
    f576:	e00a      	b.n	f58e <__sflush_r+0xb6>
    f578:	4632      	mov	r2, r6
    f57a:	4623      	mov	r3, r4
    f57c:	6a6f      	ldr	r7, [r5, #36]	; 0x24
    f57e:	69e9      	ldr	r1, [r5, #28]
    f580:	4640      	mov	r0, r8
    f582:	47b8      	blx	r7
    f584:	2800      	cmp	r0, #0
    f586:	ebc0 0404 	rsb	r4, r0, r4
    f58a:	4406      	add	r6, r0
    f58c:	dd04      	ble.n	f598 <__sflush_r+0xc0>
    f58e:	2c00      	cmp	r4, #0
    f590:	dcf2      	bgt.n	f578 <__sflush_r+0xa0>
    f592:	2000      	movs	r0, #0
    f594:	e8bd 81f0 	ldmia.w	sp!, {r4, r5, r6, r7, r8, pc}
    f598:	89ab      	ldrh	r3, [r5, #12]
    f59a:	f043 0340 	orr.w	r3, r3, #64	; 0x40
    f59e:	81ab      	strh	r3, [r5, #12]
    f5a0:	f04f 30ff 	mov.w	r0, #4294967295	; 0xffffffff
    f5a4:	e8bd 81f0 	ldmia.w	sp!, {r4, r5, r6, r7, r8, pc}
    f5a8:	6bea      	ldr	r2, [r5, #60]	; 0x3c
    f5aa:	2a00      	cmp	r2, #0
    f5ac:	dca2      	bgt.n	f4f4 <__sflush_r+0x1c>
    f5ae:	e7f0      	b.n	f592 <__sflush_r+0xba>
    f5b0:	2301      	movs	r3, #1
    f5b2:	4640      	mov	r0, r8
    f5b4:	69e9      	ldr	r1, [r5, #28]
    f5b6:	47a0      	blx	r4
    f5b8:	1c43      	adds	r3, r0, #1
    f5ba:	4602      	mov	r2, r0
    f5bc:	d01e      	beq.n	f5fc <__sflush_r+0x124>
    f5be:	89ab      	ldrh	r3, [r5, #12]
    f5c0:	6aac      	ldr	r4, [r5, #40]	; 0x28
    f5c2:	e7a6      	b.n	f512 <__sflush_r+0x3a>
    f5c4:	f8d8 3000 	ldr.w	r3, [r8]
    f5c8:	b95b      	cbnz	r3, f5e2 <__sflush_r+0x10a>
    f5ca:	89a9      	ldrh	r1, [r5, #12]
    f5cc:	606b      	str	r3, [r5, #4]
    f5ce:	f421 6300 	bic.w	r3, r1, #2048	; 0x800
    f5d2:	b29b      	uxth	r3, r3
    f5d4:	692a      	ldr	r2, [r5, #16]
    f5d6:	81ab      	strh	r3, [r5, #12]
    f5d8:	04db      	lsls	r3, r3, #19
    f5da:	602a      	str	r2, [r5, #0]
    f5dc:	d5b2      	bpl.n	f544 <__sflush_r+0x6c>
    f5de:	6528      	str	r0, [r5, #80]	; 0x50
    f5e0:	e7b0      	b.n	f544 <__sflush_r+0x6c>
    f5e2:	2b1d      	cmp	r3, #29
    f5e4:	d001      	beq.n	f5ea <__sflush_r+0x112>
    f5e6:	2b16      	cmp	r3, #22
    f5e8:	d119      	bne.n	f61e <__sflush_r+0x146>
    f5ea:	89aa      	ldrh	r2, [r5, #12]
    f5ec:	692b      	ldr	r3, [r5, #16]
    f5ee:	602b      	str	r3, [r5, #0]
    f5f0:	f422 6200 	bic.w	r2, r2, #2048	; 0x800
    f5f4:	2300      	movs	r3, #0
    f5f6:	81aa      	strh	r2, [r5, #12]
    f5f8:	606b      	str	r3, [r5, #4]
    f5fa:	e7a3      	b.n	f544 <__sflush_r+0x6c>
    f5fc:	f8d8 3000 	ldr.w	r3, [r8]
    f600:	2b00      	cmp	r3, #0
    f602:	d0dc      	beq.n	f5be <__sflush_r+0xe6>
    f604:	2b1d      	cmp	r3, #29
    f606:	d007      	beq.n	f618 <__sflush_r+0x140>
    f608:	2b16      	cmp	r3, #22
    f60a:	d005      	beq.n	f618 <__sflush_r+0x140>
    f60c:	89ab      	ldrh	r3, [r5, #12]
    f60e:	f043 0340 	orr.w	r3, r3, #64	; 0x40
    f612:	81ab      	strh	r3, [r5, #12]
    f614:	e8bd 81f0 	ldmia.w	sp!, {r4, r5, r6, r7, r8, pc}
    f618:	f8c8 6000 	str.w	r6, [r8]
    f61c:	e7b9      	b.n	f592 <__sflush_r+0xba>
    f61e:	89ab      	ldrh	r3, [r5, #12]
    f620:	f043 0340 	orr.w	r3, r3, #64	; 0x40
    f624:	81ab      	strh	r3, [r5, #12]
    f626:	e8bd 81f0 	ldmia.w	sp!, {r4, r5, r6, r7, r8, pc}
    f62a:	bf00      	nop

0000f62c <_fflush_r>:
    f62c:	b510      	push	{r4, lr}
    f62e:	4604      	mov	r4, r0
    f630:	b082      	sub	sp, #8
    f632:	b108      	cbz	r0, f638 <_fflush_r+0xc>
    f634:	6b83      	ldr	r3, [r0, #56]	; 0x38
    f636:	b153      	cbz	r3, f64e <_fflush_r+0x22>
    f638:	f9b1 000c 	ldrsh.w	r0, [r1, #12]
    f63c:	b908      	cbnz	r0, f642 <_fflush_r+0x16>
    f63e:	b002      	add	sp, #8
    f640:	bd10      	pop	{r4, pc}
    f642:	4620      	mov	r0, r4
    f644:	b002      	add	sp, #8
    f646:	e8bd 4010 	ldmia.w	sp!, {r4, lr}
    f64a:	f7ff bf45 	b.w	f4d8 <__sflush_r>
    f64e:	9101      	str	r1, [sp, #4]
    f650:	f000 f808 	bl	f664 <__sinit>
    f654:	9901      	ldr	r1, [sp, #4]
    f656:	e7ef      	b.n	f638 <_fflush_r+0xc>

0000f658 <_cleanup_r>:
    f658:	4901      	ldr	r1, [pc, #4]	; (f660 <_cleanup_r+0x8>)
    f65a:	f000 bb41 	b.w	fce0 <_fwalk>
    f65e:	bf00      	nop
    f660:	00010d39 	.word	0x00010d39

0000f664 <__sinit>:
    f664:	e92d 4ff0 	stmdb	sp!, {r4, r5, r6, r7, r8, r9, sl, fp, lr}
    f668:	6b84      	ldr	r4, [r0, #56]	; 0x38
    f66a:	b083      	sub	sp, #12
    f66c:	4607      	mov	r7, r0
    f66e:	2c00      	cmp	r4, #0
    f670:	d165      	bne.n	f73e <__sinit+0xda>
    f672:	6845      	ldr	r5, [r0, #4]
    f674:	4833      	ldr	r0, [pc, #204]	; (f744 <__sinit+0xe0>)
    f676:	63f8      	str	r0, [r7, #60]	; 0x3c
    f678:	2304      	movs	r3, #4
    f67a:	2103      	movs	r1, #3
    f67c:	f507 723b 	add.w	r2, r7, #748	; 0x2ec
    f680:	f8c7 12e4 	str.w	r1, [r7, #740]	; 0x2e4
    f684:	f8c7 22e8 	str.w	r2, [r7, #744]	; 0x2e8
    f688:	f8c7 42e0 	str.w	r4, [r7, #736]	; 0x2e0
    f68c:	f105 005c 	add.w	r0, r5, #92	; 0x5c
    f690:	81ab      	strh	r3, [r5, #12]
    f692:	602c      	str	r4, [r5, #0]
    f694:	606c      	str	r4, [r5, #4]
    f696:	60ac      	str	r4, [r5, #8]
    f698:	666c      	str	r4, [r5, #100]	; 0x64
    f69a:	81ec      	strh	r4, [r5, #14]
    f69c:	612c      	str	r4, [r5, #16]
    f69e:	616c      	str	r4, [r5, #20]
    f6a0:	61ac      	str	r4, [r5, #24]
    f6a2:	4621      	mov	r1, r4
    f6a4:	2208      	movs	r2, #8
    f6a6:	f7fb ffb3 	bl	b610 <memset>
    f6aa:	68be      	ldr	r6, [r7, #8]
    f6ac:	f8df b098 	ldr.w	fp, [pc, #152]	; f748 <__sinit+0xe4>
    f6b0:	f8df a098 	ldr.w	sl, [pc, #152]	; f74c <__sinit+0xe8>
    f6b4:	f8df 9098 	ldr.w	r9, [pc, #152]	; f750 <__sinit+0xec>
    f6b8:	f8df 8098 	ldr.w	r8, [pc, #152]	; f754 <__sinit+0xf0>
    f6bc:	61ed      	str	r5, [r5, #28]
    f6be:	2301      	movs	r3, #1
    f6c0:	2209      	movs	r2, #9
    f6c2:	f8c5 b020 	str.w	fp, [r5, #32]
    f6c6:	f8c5 a024 	str.w	sl, [r5, #36]	; 0x24
    f6ca:	f8c5 9028 	str.w	r9, [r5, #40]	; 0x28
    f6ce:	f8c5 802c 	str.w	r8, [r5, #44]	; 0x2c
    f6d2:	4621      	mov	r1, r4
    f6d4:	81f3      	strh	r3, [r6, #14]
    f6d6:	81b2      	strh	r2, [r6, #12]
    f6d8:	6034      	str	r4, [r6, #0]
    f6da:	6074      	str	r4, [r6, #4]
    f6dc:	60b4      	str	r4, [r6, #8]
    f6de:	6674      	str	r4, [r6, #100]	; 0x64
    f6e0:	6134      	str	r4, [r6, #16]
    f6e2:	6174      	str	r4, [r6, #20]
    f6e4:	61b4      	str	r4, [r6, #24]
    f6e6:	2208      	movs	r2, #8
    f6e8:	f106 005c 	add.w	r0, r6, #92	; 0x5c
    f6ec:	9301      	str	r3, [sp, #4]
    f6ee:	f7fb ff8f 	bl	b610 <memset>
    f6f2:	68fd      	ldr	r5, [r7, #12]
    f6f4:	61f6      	str	r6, [r6, #28]
    f6f6:	2012      	movs	r0, #18
    f6f8:	2202      	movs	r2, #2
    f6fa:	f8c6 b020 	str.w	fp, [r6, #32]
    f6fe:	f8c6 a024 	str.w	sl, [r6, #36]	; 0x24
    f702:	f8c6 9028 	str.w	r9, [r6, #40]	; 0x28
    f706:	f8c6 802c 	str.w	r8, [r6, #44]	; 0x2c
    f70a:	4621      	mov	r1, r4
    f70c:	81a8      	strh	r0, [r5, #12]
    f70e:	81ea      	strh	r2, [r5, #14]
    f710:	602c      	str	r4, [r5, #0]
    f712:	606c      	str	r4, [r5, #4]
    f714:	60ac      	str	r4, [r5, #8]
    f716:	666c      	str	r4, [r5, #100]	; 0x64
    f718:	612c      	str	r4, [r5, #16]
    f71a:	616c      	str	r4, [r5, #20]
    f71c:	61ac      	str	r4, [r5, #24]
    f71e:	f105 005c 	add.w	r0, r5, #92	; 0x5c
    f722:	2208      	movs	r2, #8
    f724:	f7fb ff74 	bl	b610 <memset>
    f728:	9b01      	ldr	r3, [sp, #4]
    f72a:	61ed      	str	r5, [r5, #28]
    f72c:	f8c5 b020 	str.w	fp, [r5, #32]
    f730:	f8c5 a024 	str.w	sl, [r5, #36]	; 0x24
    f734:	f8c5 9028 	str.w	r9, [r5, #40]	; 0x28
    f738:	f8c5 802c 	str.w	r8, [r5, #44]	; 0x2c
    f73c:	63bb      	str	r3, [r7, #56]	; 0x38
    f73e:	b003      	add	sp, #12
    f740:	e8bd 8ff0 	ldmia.w	sp!, {r4, r5, r6, r7, r8, r9, sl, fp, pc}
    f744:	0000f659 	.word	0x0000f659
    f748:	00010951 	.word	0x00010951
    f74c:	00010975 	.word	0x00010975
    f750:	000109ad 	.word	0x000109ad
    f754:	000109cd 	.word	0x000109cd

0000f758 <__sfp_lock_acquire>:
    f758:	4770      	bx	lr
    f75a:	bf00      	nop

0000f75c <__sfp_lock_release>:
    f75c:	4770      	bx	lr
    f75e:	bf00      	nop

0000f760 <__libc_fini_array>:
    f760:	b538      	push	{r3, r4, r5, lr}
    f762:	4d09      	ldr	r5, [pc, #36]	; (f788 <__libc_fini_array+0x28>)
    f764:	4c09      	ldr	r4, [pc, #36]	; (f78c <__libc_fini_array+0x2c>)
    f766:	1b64      	subs	r4, r4, r5
    f768:	10a4      	asrs	r4, r4, #2
    f76a:	bf18      	it	ne
    f76c:	eb05 0584 	addne.w	r5, r5, r4, lsl #2
    f770:	d005      	beq.n	f77e <__libc_fini_array+0x1e>
    f772:	3c01      	subs	r4, #1
    f774:	f855 3d04 	ldr.w	r3, [r5, #-4]!
    f778:	4798      	blx	r3
    f77a:	2c00      	cmp	r4, #0
    f77c:	d1f9      	bne.n	f772 <__libc_fini_array+0x12>
    f77e:	e8bd 4038 	ldmia.w	sp!, {r3, r4, r5, lr}
    f782:	f002 b8b1 	b.w	118e8 <_fini>
    f786:	bf00      	nop
    f788:	000118f4 	.word	0x000118f4
    f78c:	000118f8 	.word	0x000118f8

0000f790 <_malloc_trim_r>:
    f790:	b5f8      	push	{r3, r4, r5, r6, r7, lr}
    f792:	4d23      	ldr	r5, [pc, #140]	; (f820 <_malloc_trim_r+0x90>)
    f794:	460f      	mov	r7, r1
    f796:	4604      	mov	r4, r0
    f798:	f7fb ff84 	bl	b6a4 <__malloc_lock>
    f79c:	68ab      	ldr	r3, [r5, #8]
    f79e:	685e      	ldr	r6, [r3, #4]
    f7a0:	f026 0603 	bic.w	r6, r6, #3
    f7a4:	1bf1      	subs	r1, r6, r7
    f7a6:	f601 71ef 	addw	r1, r1, #4079	; 0xfef
    f7aa:	f421 617f 	bic.w	r1, r1, #4080	; 0xff0
    f7ae:	f021 010f 	bic.w	r1, r1, #15
    f7b2:	f5a1 5780 	sub.w	r7, r1, #4096	; 0x1000
    f7b6:	f5b7 5f80 	cmp.w	r7, #4096	; 0x1000
    f7ba:	db07      	blt.n	f7cc <_malloc_trim_r+0x3c>
    f7bc:	4620      	mov	r0, r4
    f7be:	2100      	movs	r1, #0
    f7c0:	f7fb ff88 	bl	b6d4 <_sbrk_r>
    f7c4:	68ab      	ldr	r3, [r5, #8]
    f7c6:	4433      	add	r3, r6
    f7c8:	4298      	cmp	r0, r3
    f7ca:	d004      	beq.n	f7d6 <_malloc_trim_r+0x46>
    f7cc:	4620      	mov	r0, r4
    f7ce:	f7fb ff6b 	bl	b6a8 <__malloc_unlock>
    f7d2:	2000      	movs	r0, #0
    f7d4:	bdf8      	pop	{r3, r4, r5, r6, r7, pc}
    f7d6:	4620      	mov	r0, r4
    f7d8:	4279      	negs	r1, r7
    f7da:	f7fb ff7b 	bl	b6d4 <_sbrk_r>
    f7de:	3001      	adds	r0, #1
    f7e0:	d00d      	beq.n	f7fe <_malloc_trim_r+0x6e>
    f7e2:	4b10      	ldr	r3, [pc, #64]	; (f824 <_malloc_trim_r+0x94>)
    f7e4:	68aa      	ldr	r2, [r5, #8]
    f7e6:	6819      	ldr	r1, [r3, #0]
    f7e8:	1bf6      	subs	r6, r6, r7
    f7ea:	f046 0601 	orr.w	r6, r6, #1
    f7ee:	4620      	mov	r0, r4
    f7f0:	1bc9      	subs	r1, r1, r7
    f7f2:	6056      	str	r6, [r2, #4]
    f7f4:	6019      	str	r1, [r3, #0]
    f7f6:	f7fb ff57 	bl	b6a8 <__malloc_unlock>
    f7fa:	2001      	movs	r0, #1
    f7fc:	bdf8      	pop	{r3, r4, r5, r6, r7, pc}
    f7fe:	4620      	mov	r0, r4
    f800:	2100      	movs	r1, #0
    f802:	f7fb ff67 	bl	b6d4 <_sbrk_r>
    f806:	68ab      	ldr	r3, [r5, #8]
    f808:	1ac2      	subs	r2, r0, r3
    f80a:	2a0f      	cmp	r2, #15
    f80c:	ddde      	ble.n	f7cc <_malloc_trim_r+0x3c>
    f80e:	4d06      	ldr	r5, [pc, #24]	; (f828 <_malloc_trim_r+0x98>)
    f810:	4904      	ldr	r1, [pc, #16]	; (f824 <_malloc_trim_r+0x94>)
    f812:	682d      	ldr	r5, [r5, #0]
    f814:	f042 0201 	orr.w	r2, r2, #1
    f818:	1b40      	subs	r0, r0, r5
    f81a:	605a      	str	r2, [r3, #4]
    f81c:	6008      	str	r0, [r1, #0]
    f81e:	e7d5      	b.n	f7cc <_malloc_trim_r+0x3c>
    f820:	2000052c 	.word	0x2000052c
    f824:	20000e04 	.word	0x20000e04
    f828:	20000938 	.word	0x20000938

0000f82c <_free_r>:
    f82c:	e92d 41f0 	stmdb	sp!, {r4, r5, r6, r7, r8, lr}
    f830:	460d      	mov	r5, r1
    f832:	4606      	mov	r6, r0
    f834:	2900      	cmp	r1, #0
    f836:	d055      	beq.n	f8e4 <_free_r+0xb8>
    f838:	f7fb ff34 	bl	b6a4 <__malloc_lock>
    f83c:	f855 1c04 	ldr.w	r1, [r5, #-4]
    f840:	f8df c174 	ldr.w	ip, [pc, #372]	; f9b8 <_free_r+0x18c>
    f844:	f021 0301 	bic.w	r3, r1, #1
    f848:	f1a5 0408 	sub.w	r4, r5, #8
    f84c:	18e2      	adds	r2, r4, r3
    f84e:	f8dc 0008 	ldr.w	r0, [ip, #8]
    f852:	6857      	ldr	r7, [r2, #4]
    f854:	4290      	cmp	r0, r2
    f856:	f027 0703 	bic.w	r7, r7, #3
    f85a:	d069      	beq.n	f930 <_free_r+0x104>
    f85c:	f011 0101 	ands.w	r1, r1, #1
    f860:	6057      	str	r7, [r2, #4]
    f862:	d032      	beq.n	f8ca <_free_r+0x9e>
    f864:	2100      	movs	r1, #0
    f866:	19d0      	adds	r0, r2, r7
    f868:	6840      	ldr	r0, [r0, #4]
    f86a:	07c0      	lsls	r0, r0, #31
    f86c:	d406      	bmi.n	f87c <_free_r+0x50>
    f86e:	443b      	add	r3, r7
    f870:	6890      	ldr	r0, [r2, #8]
    f872:	2900      	cmp	r1, #0
    f874:	d04e      	beq.n	f914 <_free_r+0xe8>
    f876:	68d2      	ldr	r2, [r2, #12]
    f878:	60c2      	str	r2, [r0, #12]
    f87a:	6090      	str	r0, [r2, #8]
    f87c:	f043 0201 	orr.w	r2, r3, #1
    f880:	6062      	str	r2, [r4, #4]
    f882:	50e3      	str	r3, [r4, r3]
    f884:	b9e1      	cbnz	r1, f8c0 <_free_r+0x94>
    f886:	f5b3 7f00 	cmp.w	r3, #512	; 0x200
    f88a:	d32d      	bcc.n	f8e8 <_free_r+0xbc>
    f88c:	0a5a      	lsrs	r2, r3, #9
    f88e:	2a04      	cmp	r2, #4
    f890:	d86a      	bhi.n	f968 <_free_r+0x13c>
    f892:	0998      	lsrs	r0, r3, #6
    f894:	3038      	adds	r0, #56	; 0x38
    f896:	0041      	lsls	r1, r0, #1
    f898:	eb0c 0c81 	add.w	ip, ip, r1, lsl #2
    f89c:	4946      	ldr	r1, [pc, #280]	; (f9b8 <_free_r+0x18c>)
    f89e:	f8dc 2008 	ldr.w	r2, [ip, #8]
    f8a2:	4562      	cmp	r2, ip
    f8a4:	d066      	beq.n	f974 <_free_r+0x148>
    f8a6:	6851      	ldr	r1, [r2, #4]
    f8a8:	f021 0103 	bic.w	r1, r1, #3
    f8ac:	428b      	cmp	r3, r1
    f8ae:	d202      	bcs.n	f8b6 <_free_r+0x8a>
    f8b0:	6892      	ldr	r2, [r2, #8]
    f8b2:	4594      	cmp	ip, r2
    f8b4:	d1f7      	bne.n	f8a6 <_free_r+0x7a>
    f8b6:	68d3      	ldr	r3, [r2, #12]
    f8b8:	60e3      	str	r3, [r4, #12]
    f8ba:	60a2      	str	r2, [r4, #8]
    f8bc:	609c      	str	r4, [r3, #8]
    f8be:	60d4      	str	r4, [r2, #12]
    f8c0:	4630      	mov	r0, r6
    f8c2:	e8bd 41f0 	ldmia.w	sp!, {r4, r5, r6, r7, r8, lr}
    f8c6:	f7fb beef 	b.w	b6a8 <__malloc_unlock>
    f8ca:	f855 5c08 	ldr.w	r5, [r5, #-8]
    f8ce:	1b64      	subs	r4, r4, r5
    f8d0:	f10c 0808 	add.w	r8, ip, #8
    f8d4:	68a0      	ldr	r0, [r4, #8]
    f8d6:	4540      	cmp	r0, r8
    f8d8:	442b      	add	r3, r5
    f8da:	d043      	beq.n	f964 <_free_r+0x138>
    f8dc:	68e5      	ldr	r5, [r4, #12]
    f8de:	60c5      	str	r5, [r0, #12]
    f8e0:	60a8      	str	r0, [r5, #8]
    f8e2:	e7c0      	b.n	f866 <_free_r+0x3a>
    f8e4:	e8bd 81f0 	ldmia.w	sp!, {r4, r5, r6, r7, r8, pc}
    f8e8:	08db      	lsrs	r3, r3, #3
    f8ea:	eb0c 02c3 	add.w	r2, ip, r3, lsl #3
    f8ee:	2501      	movs	r5, #1
    f8f0:	f8dc 0004 	ldr.w	r0, [ip, #4]
    f8f4:	6891      	ldr	r1, [r2, #8]
    f8f6:	60a1      	str	r1, [r4, #8]
    f8f8:	109b      	asrs	r3, r3, #2
    f8fa:	fa05 f303 	lsl.w	r3, r5, r3
    f8fe:	4318      	orrs	r0, r3
    f900:	60e2      	str	r2, [r4, #12]
    f902:	f8cc 0004 	str.w	r0, [ip, #4]
    f906:	6094      	str	r4, [r2, #8]
    f908:	4630      	mov	r0, r6
    f90a:	60cc      	str	r4, [r1, #12]
    f90c:	e8bd 41f0 	ldmia.w	sp!, {r4, r5, r6, r7, r8, lr}
    f910:	f7fb beca 	b.w	b6a8 <__malloc_unlock>
    f914:	4d29      	ldr	r5, [pc, #164]	; (f9bc <_free_r+0x190>)
    f916:	42a8      	cmp	r0, r5
    f918:	d1ad      	bne.n	f876 <_free_r+0x4a>
    f91a:	f043 0201 	orr.w	r2, r3, #1
    f91e:	f8cc 4014 	str.w	r4, [ip, #20]
    f922:	f8cc 4010 	str.w	r4, [ip, #16]
    f926:	60e0      	str	r0, [r4, #12]
    f928:	60a0      	str	r0, [r4, #8]
    f92a:	6062      	str	r2, [r4, #4]
    f92c:	50e3      	str	r3, [r4, r3]
    f92e:	e7c7      	b.n	f8c0 <_free_r+0x94>
    f930:	441f      	add	r7, r3
    f932:	07cb      	lsls	r3, r1, #31
    f934:	d407      	bmi.n	f946 <_free_r+0x11a>
    f936:	f855 3c08 	ldr.w	r3, [r5, #-8]
    f93a:	1ae4      	subs	r4, r4, r3
    f93c:	441f      	add	r7, r3
    f93e:	68a2      	ldr	r2, [r4, #8]
    f940:	68e3      	ldr	r3, [r4, #12]
    f942:	60d3      	str	r3, [r2, #12]
    f944:	609a      	str	r2, [r3, #8]
    f946:	4b1e      	ldr	r3, [pc, #120]	; (f9c0 <_free_r+0x194>)
    f948:	681b      	ldr	r3, [r3, #0]
    f94a:	f047 0201 	orr.w	r2, r7, #1
    f94e:	429f      	cmp	r7, r3
    f950:	6062      	str	r2, [r4, #4]
    f952:	f8cc 4008 	str.w	r4, [ip, #8]
    f956:	d3b3      	bcc.n	f8c0 <_free_r+0x94>
    f958:	4b1a      	ldr	r3, [pc, #104]	; (f9c4 <_free_r+0x198>)
    f95a:	4630      	mov	r0, r6
    f95c:	6819      	ldr	r1, [r3, #0]
    f95e:	f7ff ff17 	bl	f790 <_malloc_trim_r>
    f962:	e7ad      	b.n	f8c0 <_free_r+0x94>
    f964:	2101      	movs	r1, #1
    f966:	e77e      	b.n	f866 <_free_r+0x3a>
    f968:	2a14      	cmp	r2, #20
    f96a:	d80c      	bhi.n	f986 <_free_r+0x15a>
    f96c:	f102 005b 	add.w	r0, r2, #91	; 0x5b
    f970:	0041      	lsls	r1, r0, #1
    f972:	e791      	b.n	f898 <_free_r+0x6c>
    f974:	684b      	ldr	r3, [r1, #4]
    f976:	1080      	asrs	r0, r0, #2
    f978:	2501      	movs	r5, #1
    f97a:	fa05 f000 	lsl.w	r0, r5, r0
    f97e:	4303      	orrs	r3, r0
    f980:	604b      	str	r3, [r1, #4]
    f982:	4613      	mov	r3, r2
    f984:	e798      	b.n	f8b8 <_free_r+0x8c>
    f986:	2a54      	cmp	r2, #84	; 0x54
    f988:	d803      	bhi.n	f992 <_free_r+0x166>
    f98a:	0b18      	lsrs	r0, r3, #12
    f98c:	306e      	adds	r0, #110	; 0x6e
    f98e:	0041      	lsls	r1, r0, #1
    f990:	e782      	b.n	f898 <_free_r+0x6c>
    f992:	f5b2 7faa 	cmp.w	r2, #340	; 0x154
    f996:	d803      	bhi.n	f9a0 <_free_r+0x174>
    f998:	0bd8      	lsrs	r0, r3, #15
    f99a:	3077      	adds	r0, #119	; 0x77
    f99c:	0041      	lsls	r1, r0, #1
    f99e:	e77b      	b.n	f898 <_free_r+0x6c>
    f9a0:	f240 5154 	movw	r1, #1364	; 0x554
    f9a4:	428a      	cmp	r2, r1
    f9a6:	d803      	bhi.n	f9b0 <_free_r+0x184>
    f9a8:	0c98      	lsrs	r0, r3, #18
    f9aa:	307c      	adds	r0, #124	; 0x7c
    f9ac:	0041      	lsls	r1, r0, #1
    f9ae:	e773      	b.n	f898 <_free_r+0x6c>
    f9b0:	21fc      	movs	r1, #252	; 0xfc
    f9b2:	207e      	movs	r0, #126	; 0x7e
    f9b4:	e770      	b.n	f898 <_free_r+0x6c>
    f9b6:	bf00      	nop
    f9b8:	2000052c 	.word	0x2000052c
    f9bc:	20000534 	.word	0x20000534
    f9c0:	20000934 	.word	0x20000934
    f9c4:	20000e00 	.word	0x20000e00

0000f9c8 <__sfvwrite_r>:
    f9c8:	e92d 4ff0 	stmdb	sp!, {r4, r5, r6, r7, r8, r9, sl, fp, lr}
    f9cc:	6893      	ldr	r3, [r2, #8]
    f9ce:	b083      	sub	sp, #12
    f9d0:	4616      	mov	r6, r2
    f9d2:	4681      	mov	r9, r0
    f9d4:	460c      	mov	r4, r1
    f9d6:	b32b      	cbz	r3, fa24 <__sfvwrite_r+0x5c>
    f9d8:	898b      	ldrh	r3, [r1, #12]
    f9da:	0719      	lsls	r1, r3, #28
    f9dc:	d526      	bpl.n	fa2c <__sfvwrite_r+0x64>
    f9de:	6922      	ldr	r2, [r4, #16]
    f9e0:	b322      	cbz	r2, fa2c <__sfvwrite_r+0x64>
    f9e2:	f003 0202 	and.w	r2, r3, #2
    f9e6:	b292      	uxth	r2, r2
    f9e8:	6835      	ldr	r5, [r6, #0]
    f9ea:	2a00      	cmp	r2, #0
    f9ec:	d02c      	beq.n	fa48 <__sfvwrite_r+0x80>
    f9ee:	f04f 0a00 	mov.w	sl, #0
    f9f2:	f8df b2e8 	ldr.w	fp, [pc, #744]	; fcdc <__sfvwrite_r+0x314>
    f9f6:	46d0      	mov	r8, sl
    f9f8:	45d8      	cmp	r8, fp
    f9fa:	bf34      	ite	cc
    f9fc:	4643      	movcc	r3, r8
    f9fe:	465b      	movcs	r3, fp
    fa00:	4652      	mov	r2, sl
    fa02:	4648      	mov	r0, r9
    fa04:	f1b8 0f00 	cmp.w	r8, #0
    fa08:	d04f      	beq.n	faaa <__sfvwrite_r+0xe2>
    fa0a:	69e1      	ldr	r1, [r4, #28]
    fa0c:	6a67      	ldr	r7, [r4, #36]	; 0x24
    fa0e:	47b8      	blx	r7
    fa10:	2800      	cmp	r0, #0
    fa12:	dd56      	ble.n	fac2 <__sfvwrite_r+0xfa>
    fa14:	68b3      	ldr	r3, [r6, #8]
    fa16:	1a1b      	subs	r3, r3, r0
    fa18:	4482      	add	sl, r0
    fa1a:	ebc0 0808 	rsb	r8, r0, r8
    fa1e:	60b3      	str	r3, [r6, #8]
    fa20:	2b00      	cmp	r3, #0
    fa22:	d1e9      	bne.n	f9f8 <__sfvwrite_r+0x30>
    fa24:	2000      	movs	r0, #0
    fa26:	b003      	add	sp, #12
    fa28:	e8bd 8ff0 	ldmia.w	sp!, {r4, r5, r6, r7, r8, r9, sl, fp, pc}
    fa2c:	4648      	mov	r0, r9
    fa2e:	4621      	mov	r1, r4
    fa30:	f7fe fd1a 	bl	e468 <__swsetup_r>
    fa34:	2800      	cmp	r0, #0
    fa36:	f040 8148 	bne.w	fcca <__sfvwrite_r+0x302>
    fa3a:	89a3      	ldrh	r3, [r4, #12]
    fa3c:	6835      	ldr	r5, [r6, #0]
    fa3e:	f003 0202 	and.w	r2, r3, #2
    fa42:	b292      	uxth	r2, r2
    fa44:	2a00      	cmp	r2, #0
    fa46:	d1d2      	bne.n	f9ee <__sfvwrite_r+0x26>
    fa48:	f013 0a01 	ands.w	sl, r3, #1
    fa4c:	d142      	bne.n	fad4 <__sfvwrite_r+0x10c>
    fa4e:	46d0      	mov	r8, sl
    fa50:	f1b8 0f00 	cmp.w	r8, #0
    fa54:	d023      	beq.n	fa9e <__sfvwrite_r+0xd6>
    fa56:	059a      	lsls	r2, r3, #22
    fa58:	68a7      	ldr	r7, [r4, #8]
    fa5a:	d576      	bpl.n	fb4a <__sfvwrite_r+0x182>
    fa5c:	45b8      	cmp	r8, r7
    fa5e:	f0c0 80a4 	bcc.w	fbaa <__sfvwrite_r+0x1e2>
    fa62:	f413 6f90 	tst.w	r3, #1152	; 0x480
    fa66:	f040 80b2 	bne.w	fbce <__sfvwrite_r+0x206>
    fa6a:	6820      	ldr	r0, [r4, #0]
    fa6c:	46bb      	mov	fp, r7
    fa6e:	4651      	mov	r1, sl
    fa70:	465a      	mov	r2, fp
    fa72:	f000 fa21 	bl	feb8 <memmove>
    fa76:	68a2      	ldr	r2, [r4, #8]
    fa78:	6821      	ldr	r1, [r4, #0]
    fa7a:	1bd2      	subs	r2, r2, r7
    fa7c:	eb01 030b 	add.w	r3, r1, fp
    fa80:	60a2      	str	r2, [r4, #8]
    fa82:	6023      	str	r3, [r4, #0]
    fa84:	4642      	mov	r2, r8
    fa86:	68b3      	ldr	r3, [r6, #8]
    fa88:	1a9b      	subs	r3, r3, r2
    fa8a:	4492      	add	sl, r2
    fa8c:	ebc2 0808 	rsb	r8, r2, r8
    fa90:	60b3      	str	r3, [r6, #8]
    fa92:	2b00      	cmp	r3, #0
    fa94:	d0c6      	beq.n	fa24 <__sfvwrite_r+0x5c>
    fa96:	89a3      	ldrh	r3, [r4, #12]
    fa98:	f1b8 0f00 	cmp.w	r8, #0
    fa9c:	d1db      	bne.n	fa56 <__sfvwrite_r+0x8e>
    fa9e:	f8d5 a000 	ldr.w	sl, [r5]
    faa2:	f8d5 8004 	ldr.w	r8, [r5, #4]
    faa6:	3508      	adds	r5, #8
    faa8:	e7d2      	b.n	fa50 <__sfvwrite_r+0x88>
    faaa:	f8d5 a000 	ldr.w	sl, [r5]
    faae:	f8d5 8004 	ldr.w	r8, [r5, #4]
    fab2:	3508      	adds	r5, #8
    fab4:	e7a0      	b.n	f9f8 <__sfvwrite_r+0x30>
    fab6:	4648      	mov	r0, r9
    fab8:	4621      	mov	r1, r4
    faba:	f7ff fdb7 	bl	f62c <_fflush_r>
    fabe:	2800      	cmp	r0, #0
    fac0:	d059      	beq.n	fb76 <__sfvwrite_r+0x1ae>
    fac2:	89a3      	ldrh	r3, [r4, #12]
    fac4:	f043 0340 	orr.w	r3, r3, #64	; 0x40
    fac8:	f04f 30ff 	mov.w	r0, #4294967295	; 0xffffffff
    facc:	81a3      	strh	r3, [r4, #12]
    face:	b003      	add	sp, #12
    fad0:	e8bd 8ff0 	ldmia.w	sp!, {r4, r5, r6, r7, r8, r9, sl, fp, pc}
    fad4:	4692      	mov	sl, r2
    fad6:	9201      	str	r2, [sp, #4]
    fad8:	4693      	mov	fp, r2
    fada:	4690      	mov	r8, r2
    fadc:	f1b8 0f00 	cmp.w	r8, #0
    fae0:	d02b      	beq.n	fb3a <__sfvwrite_r+0x172>
    fae2:	9f01      	ldr	r7, [sp, #4]
    fae4:	2f00      	cmp	r7, #0
    fae6:	d064      	beq.n	fbb2 <__sfvwrite_r+0x1ea>
    fae8:	6820      	ldr	r0, [r4, #0]
    faea:	6921      	ldr	r1, [r4, #16]
    faec:	f8d4 c008 	ldr.w	ip, [r4, #8]
    faf0:	6962      	ldr	r2, [r4, #20]
    faf2:	45c2      	cmp	sl, r8
    faf4:	bf34      	ite	cc
    faf6:	4653      	movcc	r3, sl
    faf8:	4643      	movcs	r3, r8
    fafa:	4288      	cmp	r0, r1
    fafc:	461f      	mov	r7, r3
    fafe:	d903      	bls.n	fb08 <__sfvwrite_r+0x140>
    fb00:	4494      	add	ip, r2
    fb02:	4563      	cmp	r3, ip
    fb04:	f300 80ae 	bgt.w	fc64 <__sfvwrite_r+0x29c>
    fb08:	4293      	cmp	r3, r2
    fb0a:	db36      	blt.n	fb7a <__sfvwrite_r+0x1b2>
    fb0c:	4613      	mov	r3, r2
    fb0e:	6a67      	ldr	r7, [r4, #36]	; 0x24
    fb10:	69e1      	ldr	r1, [r4, #28]
    fb12:	4648      	mov	r0, r9
    fb14:	465a      	mov	r2, fp
    fb16:	47b8      	blx	r7
    fb18:	1e07      	subs	r7, r0, #0
    fb1a:	ddd2      	ble.n	fac2 <__sfvwrite_r+0xfa>
    fb1c:	ebba 0a07 	subs.w	sl, sl, r7
    fb20:	d03a      	beq.n	fb98 <__sfvwrite_r+0x1d0>
    fb22:	68b3      	ldr	r3, [r6, #8]
    fb24:	1bdb      	subs	r3, r3, r7
    fb26:	44bb      	add	fp, r7
    fb28:	ebc7 0808 	rsb	r8, r7, r8
    fb2c:	60b3      	str	r3, [r6, #8]
    fb2e:	2b00      	cmp	r3, #0
    fb30:	f43f af78 	beq.w	fa24 <__sfvwrite_r+0x5c>
    fb34:	f1b8 0f00 	cmp.w	r8, #0
    fb38:	d1d3      	bne.n	fae2 <__sfvwrite_r+0x11a>
    fb3a:	2700      	movs	r7, #0
    fb3c:	f8d5 b000 	ldr.w	fp, [r5]
    fb40:	f8d5 8004 	ldr.w	r8, [r5, #4]
    fb44:	9701      	str	r7, [sp, #4]
    fb46:	3508      	adds	r5, #8
    fb48:	e7c8      	b.n	fadc <__sfvwrite_r+0x114>
    fb4a:	6820      	ldr	r0, [r4, #0]
    fb4c:	6923      	ldr	r3, [r4, #16]
    fb4e:	4298      	cmp	r0, r3
    fb50:	d802      	bhi.n	fb58 <__sfvwrite_r+0x190>
    fb52:	6963      	ldr	r3, [r4, #20]
    fb54:	4598      	cmp	r8, r3
    fb56:	d272      	bcs.n	fc3e <__sfvwrite_r+0x276>
    fb58:	45b8      	cmp	r8, r7
    fb5a:	bf38      	it	cc
    fb5c:	4647      	movcc	r7, r8
    fb5e:	463a      	mov	r2, r7
    fb60:	4651      	mov	r1, sl
    fb62:	f000 f9a9 	bl	feb8 <memmove>
    fb66:	68a3      	ldr	r3, [r4, #8]
    fb68:	6822      	ldr	r2, [r4, #0]
    fb6a:	1bdb      	subs	r3, r3, r7
    fb6c:	443a      	add	r2, r7
    fb6e:	60a3      	str	r3, [r4, #8]
    fb70:	6022      	str	r2, [r4, #0]
    fb72:	2b00      	cmp	r3, #0
    fb74:	d09f      	beq.n	fab6 <__sfvwrite_r+0xee>
    fb76:	463a      	mov	r2, r7
    fb78:	e785      	b.n	fa86 <__sfvwrite_r+0xbe>
    fb7a:	461a      	mov	r2, r3
    fb7c:	4659      	mov	r1, fp
    fb7e:	9300      	str	r3, [sp, #0]
    fb80:	f000 f99a 	bl	feb8 <memmove>
    fb84:	9b00      	ldr	r3, [sp, #0]
    fb86:	68a1      	ldr	r1, [r4, #8]
    fb88:	6822      	ldr	r2, [r4, #0]
    fb8a:	1ac9      	subs	r1, r1, r3
    fb8c:	ebba 0a07 	subs.w	sl, sl, r7
    fb90:	4413      	add	r3, r2
    fb92:	60a1      	str	r1, [r4, #8]
    fb94:	6023      	str	r3, [r4, #0]
    fb96:	d1c4      	bne.n	fb22 <__sfvwrite_r+0x15a>
    fb98:	4648      	mov	r0, r9
    fb9a:	4621      	mov	r1, r4
    fb9c:	f7ff fd46 	bl	f62c <_fflush_r>
    fba0:	2800      	cmp	r0, #0
    fba2:	d18e      	bne.n	fac2 <__sfvwrite_r+0xfa>
    fba4:	f8cd a004 	str.w	sl, [sp, #4]
    fba8:	e7bb      	b.n	fb22 <__sfvwrite_r+0x15a>
    fbaa:	6820      	ldr	r0, [r4, #0]
    fbac:	4647      	mov	r7, r8
    fbae:	46c3      	mov	fp, r8
    fbb0:	e75d      	b.n	fa6e <__sfvwrite_r+0xa6>
    fbb2:	4658      	mov	r0, fp
    fbb4:	210a      	movs	r1, #10
    fbb6:	4642      	mov	r2, r8
    fbb8:	f000 f936 	bl	fe28 <memchr>
    fbbc:	2800      	cmp	r0, #0
    fbbe:	d07f      	beq.n	fcc0 <__sfvwrite_r+0x2f8>
    fbc0:	f100 0a01 	add.w	sl, r0, #1
    fbc4:	2701      	movs	r7, #1
    fbc6:	ebcb 0a0a 	rsb	sl, fp, sl
    fbca:	9701      	str	r7, [sp, #4]
    fbcc:	e78c      	b.n	fae8 <__sfvwrite_r+0x120>
    fbce:	6822      	ldr	r2, [r4, #0]
    fbd0:	6921      	ldr	r1, [r4, #16]
    fbd2:	6967      	ldr	r7, [r4, #20]
    fbd4:	ebc1 0c02 	rsb	ip, r1, r2
    fbd8:	eb07 0747 	add.w	r7, r7, r7, lsl #1
    fbdc:	f10c 0201 	add.w	r2, ip, #1
    fbe0:	eb07 77d7 	add.w	r7, r7, r7, lsr #31
    fbe4:	4442      	add	r2, r8
    fbe6:	107f      	asrs	r7, r7, #1
    fbe8:	4297      	cmp	r7, r2
    fbea:	bf34      	ite	cc
    fbec:	4617      	movcc	r7, r2
    fbee:	463a      	movcs	r2, r7
    fbf0:	055b      	lsls	r3, r3, #21
    fbf2:	d54f      	bpl.n	fc94 <__sfvwrite_r+0x2cc>
    fbf4:	4611      	mov	r1, r2
    fbf6:	4648      	mov	r0, r9
    fbf8:	f8cd c000 	str.w	ip, [sp]
    fbfc:	f7fb f9d2 	bl	afa4 <_malloc_r>
    fc00:	f8dd c000 	ldr.w	ip, [sp]
    fc04:	4683      	mov	fp, r0
    fc06:	2800      	cmp	r0, #0
    fc08:	d062      	beq.n	fcd0 <__sfvwrite_r+0x308>
    fc0a:	4662      	mov	r2, ip
    fc0c:	6921      	ldr	r1, [r4, #16]
    fc0e:	f8cd c000 	str.w	ip, [sp]
    fc12:	f7fb fc63 	bl	b4dc <memcpy>
    fc16:	89a2      	ldrh	r2, [r4, #12]
    fc18:	f8dd c000 	ldr.w	ip, [sp]
    fc1c:	f422 6290 	bic.w	r2, r2, #1152	; 0x480
    fc20:	f042 0280 	orr.w	r2, r2, #128	; 0x80
    fc24:	81a2      	strh	r2, [r4, #12]
    fc26:	eb0b 000c 	add.w	r0, fp, ip
    fc2a:	ebcc 0207 	rsb	r2, ip, r7
    fc2e:	f8c4 b010 	str.w	fp, [r4, #16]
    fc32:	6167      	str	r7, [r4, #20]
    fc34:	6020      	str	r0, [r4, #0]
    fc36:	60a2      	str	r2, [r4, #8]
    fc38:	4647      	mov	r7, r8
    fc3a:	46c3      	mov	fp, r8
    fc3c:	e717      	b.n	fa6e <__sfvwrite_r+0xa6>
    fc3e:	f06f 4200 	mvn.w	r2, #2147483648	; 0x80000000
    fc42:	4590      	cmp	r8, r2
    fc44:	bf38      	it	cc
    fc46:	4642      	movcc	r2, r8
    fc48:	fb92 f2f3 	sdiv	r2, r2, r3
    fc4c:	fb02 f303 	mul.w	r3, r2, r3
    fc50:	6a67      	ldr	r7, [r4, #36]	; 0x24
    fc52:	69e1      	ldr	r1, [r4, #28]
    fc54:	4648      	mov	r0, r9
    fc56:	4652      	mov	r2, sl
    fc58:	47b8      	blx	r7
    fc5a:	2800      	cmp	r0, #0
    fc5c:	f77f af31 	ble.w	fac2 <__sfvwrite_r+0xfa>
    fc60:	4602      	mov	r2, r0
    fc62:	e710      	b.n	fa86 <__sfvwrite_r+0xbe>
    fc64:	4662      	mov	r2, ip
    fc66:	4659      	mov	r1, fp
    fc68:	f8cd c000 	str.w	ip, [sp]
    fc6c:	f000 f924 	bl	feb8 <memmove>
    fc70:	f8dd c000 	ldr.w	ip, [sp]
    fc74:	6823      	ldr	r3, [r4, #0]
    fc76:	4463      	add	r3, ip
    fc78:	6023      	str	r3, [r4, #0]
    fc7a:	4648      	mov	r0, r9
    fc7c:	4621      	mov	r1, r4
    fc7e:	f8cd c000 	str.w	ip, [sp]
    fc82:	f7ff fcd3 	bl	f62c <_fflush_r>
    fc86:	f8dd c000 	ldr.w	ip, [sp]
    fc8a:	2800      	cmp	r0, #0
    fc8c:	f47f af19 	bne.w	fac2 <__sfvwrite_r+0xfa>
    fc90:	4667      	mov	r7, ip
    fc92:	e743      	b.n	fb1c <__sfvwrite_r+0x154>
    fc94:	4648      	mov	r0, r9
    fc96:	f8cd c000 	str.w	ip, [sp]
    fc9a:	f000 fc73 	bl	10584 <_realloc_r>
    fc9e:	f8dd c000 	ldr.w	ip, [sp]
    fca2:	4683      	mov	fp, r0
    fca4:	2800      	cmp	r0, #0
    fca6:	d1be      	bne.n	fc26 <__sfvwrite_r+0x25e>
    fca8:	4648      	mov	r0, r9
    fcaa:	6921      	ldr	r1, [r4, #16]
    fcac:	f7ff fdbe 	bl	f82c <_free_r>
    fcb0:	89a3      	ldrh	r3, [r4, #12]
    fcb2:	220c      	movs	r2, #12
    fcb4:	f023 0380 	bic.w	r3, r3, #128	; 0x80
    fcb8:	b29b      	uxth	r3, r3
    fcba:	f8c9 2000 	str.w	r2, [r9]
    fcbe:	e701      	b.n	fac4 <__sfvwrite_r+0xfc>
    fcc0:	2701      	movs	r7, #1
    fcc2:	f108 0a01 	add.w	sl, r8, #1
    fcc6:	9701      	str	r7, [sp, #4]
    fcc8:	e70e      	b.n	fae8 <__sfvwrite_r+0x120>
    fcca:	f04f 30ff 	mov.w	r0, #4294967295	; 0xffffffff
    fcce:	e6aa      	b.n	fa26 <__sfvwrite_r+0x5e>
    fcd0:	230c      	movs	r3, #12
    fcd2:	f8c9 3000 	str.w	r3, [r9]
    fcd6:	89a3      	ldrh	r3, [r4, #12]
    fcd8:	e6f4      	b.n	fac4 <__sfvwrite_r+0xfc>
    fcda:	bf00      	nop
    fcdc:	7ffffc00 	.word	0x7ffffc00

0000fce0 <_fwalk>:
    fce0:	e92d 41f0 	stmdb	sp!, {r4, r5, r6, r7, r8, lr}
    fce4:	f510 7738 	adds.w	r7, r0, #736	; 0x2e0
    fce8:	4688      	mov	r8, r1
    fcea:	d01a      	beq.n	fd22 <_fwalk+0x42>
    fcec:	2600      	movs	r6, #0
    fcee:	687d      	ldr	r5, [r7, #4]
    fcf0:	68bc      	ldr	r4, [r7, #8]
    fcf2:	3d01      	subs	r5, #1
    fcf4:	d40f      	bmi.n	fd16 <_fwalk+0x36>
    fcf6:	89a3      	ldrh	r3, [r4, #12]
    fcf8:	2b01      	cmp	r3, #1
    fcfa:	f105 35ff 	add.w	r5, r5, #4294967295	; 0xffffffff
    fcfe:	d906      	bls.n	fd0e <_fwalk+0x2e>
    fd00:	f9b4 300e 	ldrsh.w	r3, [r4, #14]
    fd04:	3301      	adds	r3, #1
    fd06:	4620      	mov	r0, r4
    fd08:	d001      	beq.n	fd0e <_fwalk+0x2e>
    fd0a:	47c0      	blx	r8
    fd0c:	4306      	orrs	r6, r0
    fd0e:	1c6b      	adds	r3, r5, #1
    fd10:	f104 0468 	add.w	r4, r4, #104	; 0x68
    fd14:	d1ef      	bne.n	fcf6 <_fwalk+0x16>
    fd16:	683f      	ldr	r7, [r7, #0]
    fd18:	2f00      	cmp	r7, #0
    fd1a:	d1e8      	bne.n	fcee <_fwalk+0xe>
    fd1c:	4630      	mov	r0, r6
    fd1e:	e8bd 81f0 	ldmia.w	sp!, {r4, r5, r6, r7, r8, pc}
    fd22:	463e      	mov	r6, r7
    fd24:	4630      	mov	r0, r6
    fd26:	e8bd 81f0 	ldmia.w	sp!, {r4, r5, r6, r7, r8, pc}
    fd2a:	bf00      	nop

0000fd2c <__locale_charset>:
    fd2c:	4800      	ldr	r0, [pc, #0]	; (fd30 <__locale_charset+0x4>)
    fd2e:	4770      	bx	lr
    fd30:	20000974 	.word	0x20000974

0000fd34 <__locale_mb_cur_max>:
    fd34:	4b01      	ldr	r3, [pc, #4]	; (fd3c <__locale_mb_cur_max+0x8>)
    fd36:	6818      	ldr	r0, [r3, #0]
    fd38:	4770      	bx	lr
    fd3a:	bf00      	nop
    fd3c:	20000994 	.word	0x20000994

0000fd40 <_localeconv_r>:
    fd40:	4800      	ldr	r0, [pc, #0]	; (fd44 <_localeconv_r+0x4>)
    fd42:	4770      	bx	lr
    fd44:	2000093c 	.word	0x2000093c

0000fd48 <__smakebuf_r>:
    fd48:	b5f0      	push	{r4, r5, r6, r7, lr}
    fd4a:	898b      	ldrh	r3, [r1, #12]
    fd4c:	b29a      	uxth	r2, r3
    fd4e:	0796      	lsls	r6, r2, #30
    fd50:	b091      	sub	sp, #68	; 0x44
    fd52:	460c      	mov	r4, r1
    fd54:	4605      	mov	r5, r0
    fd56:	d437      	bmi.n	fdc8 <__smakebuf_r+0x80>
    fd58:	f9b1 100e 	ldrsh.w	r1, [r1, #14]
    fd5c:	2900      	cmp	r1, #0
    fd5e:	db17      	blt.n	fd90 <__smakebuf_r+0x48>
    fd60:	aa01      	add	r2, sp, #4
    fd62:	f001 f84f 	bl	10e04 <_fstat_r>
    fd66:	2800      	cmp	r0, #0
    fd68:	db10      	blt.n	fd8c <__smakebuf_r+0x44>
    fd6a:	9b02      	ldr	r3, [sp, #8]
    fd6c:	f403 4370 	and.w	r3, r3, #61440	; 0xf000
    fd70:	f5b3 5100 	subs.w	r1, r3, #8192	; 0x2000
    fd74:	424f      	negs	r7, r1
    fd76:	414f      	adcs	r7, r1
    fd78:	f5b3 4f00 	cmp.w	r3, #32768	; 0x8000
    fd7c:	d02c      	beq.n	fdd8 <__smakebuf_r+0x90>
    fd7e:	89a3      	ldrh	r3, [r4, #12]
    fd80:	f443 6300 	orr.w	r3, r3, #2048	; 0x800
    fd84:	81a3      	strh	r3, [r4, #12]
    fd86:	f44f 6680 	mov.w	r6, #1024	; 0x400
    fd8a:	e00b      	b.n	fda4 <__smakebuf_r+0x5c>
    fd8c:	89a3      	ldrh	r3, [r4, #12]
    fd8e:	b29a      	uxth	r2, r3
    fd90:	f012 0f80 	tst.w	r2, #128	; 0x80
    fd94:	f443 6300 	orr.w	r3, r3, #2048	; 0x800
    fd98:	81a3      	strh	r3, [r4, #12]
    fd9a:	bf14      	ite	ne
    fd9c:	2640      	movne	r6, #64	; 0x40
    fd9e:	f44f 6680 	moveq.w	r6, #1024	; 0x400
    fda2:	2700      	movs	r7, #0
    fda4:	4628      	mov	r0, r5
    fda6:	4631      	mov	r1, r6
    fda8:	f7fb f8fc 	bl	afa4 <_malloc_r>
    fdac:	89a3      	ldrh	r3, [r4, #12]
    fdae:	2800      	cmp	r0, #0
    fdb0:	d029      	beq.n	fe06 <__smakebuf_r+0xbe>
    fdb2:	4a1b      	ldr	r2, [pc, #108]	; (fe20 <__smakebuf_r+0xd8>)
    fdb4:	63ea      	str	r2, [r5, #60]	; 0x3c
    fdb6:	f043 0380 	orr.w	r3, r3, #128	; 0x80
    fdba:	81a3      	strh	r3, [r4, #12]
    fdbc:	6020      	str	r0, [r4, #0]
    fdbe:	6120      	str	r0, [r4, #16]
    fdc0:	6166      	str	r6, [r4, #20]
    fdc2:	b9a7      	cbnz	r7, fdee <__smakebuf_r+0xa6>
    fdc4:	b011      	add	sp, #68	; 0x44
    fdc6:	bdf0      	pop	{r4, r5, r6, r7, pc}
    fdc8:	f101 0343 	add.w	r3, r1, #67	; 0x43
    fdcc:	2201      	movs	r2, #1
    fdce:	600b      	str	r3, [r1, #0]
    fdd0:	610b      	str	r3, [r1, #16]
    fdd2:	614a      	str	r2, [r1, #20]
    fdd4:	b011      	add	sp, #68	; 0x44
    fdd6:	bdf0      	pop	{r4, r5, r6, r7, pc}
    fdd8:	4a12      	ldr	r2, [pc, #72]	; (fe24 <__smakebuf_r+0xdc>)
    fdda:	6aa3      	ldr	r3, [r4, #40]	; 0x28
    fddc:	4293      	cmp	r3, r2
    fdde:	d1ce      	bne.n	fd7e <__smakebuf_r+0x36>
    fde0:	89a3      	ldrh	r3, [r4, #12]
    fde2:	f44f 6680 	mov.w	r6, #1024	; 0x400
    fde6:	4333      	orrs	r3, r6
    fde8:	81a3      	strh	r3, [r4, #12]
    fdea:	64e6      	str	r6, [r4, #76]	; 0x4c
    fdec:	e7da      	b.n	fda4 <__smakebuf_r+0x5c>
    fdee:	4628      	mov	r0, r5
    fdf0:	f9b4 100e 	ldrsh.w	r1, [r4, #14]
    fdf4:	f001 f81a 	bl	10e2c <_isatty_r>
    fdf8:	2800      	cmp	r0, #0
    fdfa:	d0e3      	beq.n	fdc4 <__smakebuf_r+0x7c>
    fdfc:	89a3      	ldrh	r3, [r4, #12]
    fdfe:	f043 0301 	orr.w	r3, r3, #1
    fe02:	81a3      	strh	r3, [r4, #12]
    fe04:	e7de      	b.n	fdc4 <__smakebuf_r+0x7c>
    fe06:	059a      	lsls	r2, r3, #22
    fe08:	d4dc      	bmi.n	fdc4 <__smakebuf_r+0x7c>
    fe0a:	f104 0243 	add.w	r2, r4, #67	; 0x43
    fe0e:	f043 0302 	orr.w	r3, r3, #2
    fe12:	2101      	movs	r1, #1
    fe14:	81a3      	strh	r3, [r4, #12]
    fe16:	6022      	str	r2, [r4, #0]
    fe18:	6122      	str	r2, [r4, #16]
    fe1a:	6161      	str	r1, [r4, #20]
    fe1c:	e7d2      	b.n	fdc4 <__smakebuf_r+0x7c>
    fe1e:	bf00      	nop
    fe20:	0000f659 	.word	0x0000f659
    fe24:	000109ad 	.word	0x000109ad

0000fe28 <memchr>:
    fe28:	0783      	lsls	r3, r0, #30
    fe2a:	b470      	push	{r4, r5, r6}
    fe2c:	b2c9      	uxtb	r1, r1
    fe2e:	d03f      	beq.n	feb0 <memchr+0x88>
    fe30:	1e54      	subs	r4, r2, #1
    fe32:	b32a      	cbz	r2, fe80 <memchr+0x58>
    fe34:	7803      	ldrb	r3, [r0, #0]
    fe36:	428b      	cmp	r3, r1
    fe38:	d023      	beq.n	fe82 <memchr+0x5a>
    fe3a:	1c43      	adds	r3, r0, #1
    fe3c:	e004      	b.n	fe48 <memchr+0x20>
    fe3e:	b1fc      	cbz	r4, fe80 <memchr+0x58>
    fe40:	7804      	ldrb	r4, [r0, #0]
    fe42:	428c      	cmp	r4, r1
    fe44:	d01d      	beq.n	fe82 <memchr+0x5a>
    fe46:	4614      	mov	r4, r2
    fe48:	f013 0f03 	tst.w	r3, #3
    fe4c:	4618      	mov	r0, r3
    fe4e:	f104 32ff 	add.w	r2, r4, #4294967295	; 0xffffffff
    fe52:	f103 0301 	add.w	r3, r3, #1
    fe56:	d1f2      	bne.n	fe3e <memchr+0x16>
    fe58:	2c03      	cmp	r4, #3
    fe5a:	d814      	bhi.n	fe86 <memchr+0x5e>
    fe5c:	1e65      	subs	r5, r4, #1
    fe5e:	b34c      	cbz	r4, feb4 <memchr+0x8c>
    fe60:	7803      	ldrb	r3, [r0, #0]
    fe62:	428b      	cmp	r3, r1
    fe64:	d00d      	beq.n	fe82 <memchr+0x5a>
    fe66:	1c42      	adds	r2, r0, #1
    fe68:	2300      	movs	r3, #0
    fe6a:	e002      	b.n	fe72 <memchr+0x4a>
    fe6c:	7804      	ldrb	r4, [r0, #0]
    fe6e:	428c      	cmp	r4, r1
    fe70:	d007      	beq.n	fe82 <memchr+0x5a>
    fe72:	42ab      	cmp	r3, r5
    fe74:	4610      	mov	r0, r2
    fe76:	f103 0301 	add.w	r3, r3, #1
    fe7a:	f102 0201 	add.w	r2, r2, #1
    fe7e:	d1f5      	bne.n	fe6c <memchr+0x44>
    fe80:	2000      	movs	r0, #0
    fe82:	bc70      	pop	{r4, r5, r6}
    fe84:	4770      	bx	lr
    fe86:	ea41 2601 	orr.w	r6, r1, r1, lsl #8
    fe8a:	4603      	mov	r3, r0
    fe8c:	ea46 4606 	orr.w	r6, r6, r6, lsl #16
    fe90:	4618      	mov	r0, r3
    fe92:	3304      	adds	r3, #4
    fe94:	6802      	ldr	r2, [r0, #0]
    fe96:	4072      	eors	r2, r6
    fe98:	f1a2 3501 	sub.w	r5, r2, #16843009	; 0x1010101
    fe9c:	ea25 0202 	bic.w	r2, r5, r2
    fea0:	f012 3f80 	tst.w	r2, #2155905152	; 0x80808080
    fea4:	d1da      	bne.n	fe5c <memchr+0x34>
    fea6:	3c04      	subs	r4, #4
    fea8:	2c03      	cmp	r4, #3
    feaa:	4618      	mov	r0, r3
    feac:	d8f0      	bhi.n	fe90 <memchr+0x68>
    feae:	e7d5      	b.n	fe5c <memchr+0x34>
    feb0:	4614      	mov	r4, r2
    feb2:	e7d1      	b.n	fe58 <memchr+0x30>
    feb4:	4620      	mov	r0, r4
    feb6:	e7e4      	b.n	fe82 <memchr+0x5a>

0000feb8 <memmove>:
    feb8:	4288      	cmp	r0, r1
    feba:	b4f0      	push	{r4, r5, r6, r7}
    febc:	d910      	bls.n	fee0 <memmove+0x28>
    febe:	188c      	adds	r4, r1, r2
    fec0:	42a0      	cmp	r0, r4
    fec2:	d20d      	bcs.n	fee0 <memmove+0x28>
    fec4:	1885      	adds	r5, r0, r2
    fec6:	1e53      	subs	r3, r2, #1
    fec8:	b142      	cbz	r2, fedc <memmove+0x24>
    feca:	4621      	mov	r1, r4
    fecc:	462a      	mov	r2, r5
    fece:	f811 4d01 	ldrb.w	r4, [r1, #-1]!
    fed2:	f802 4d01 	strb.w	r4, [r2, #-1]!
    fed6:	3b01      	subs	r3, #1
    fed8:	1c5c      	adds	r4, r3, #1
    feda:	d1f8      	bne.n	fece <memmove+0x16>
    fedc:	bcf0      	pop	{r4, r5, r6, r7}
    fede:	4770      	bx	lr
    fee0:	2a0f      	cmp	r2, #15
    fee2:	d93f      	bls.n	ff64 <memmove+0xac>
    fee4:	ea40 0301 	orr.w	r3, r0, r1
    fee8:	079b      	lsls	r3, r3, #30
    feea:	d13f      	bne.n	ff6c <memmove+0xb4>
    feec:	f1a2 0710 	sub.w	r7, r2, #16
    fef0:	093f      	lsrs	r7, r7, #4
    fef2:	eb00 1607 	add.w	r6, r0, r7, lsl #4
    fef6:	3610      	adds	r6, #16
    fef8:	460c      	mov	r4, r1
    fefa:	4603      	mov	r3, r0
    fefc:	6825      	ldr	r5, [r4, #0]
    fefe:	601d      	str	r5, [r3, #0]
    ff00:	6865      	ldr	r5, [r4, #4]
    ff02:	605d      	str	r5, [r3, #4]
    ff04:	68a5      	ldr	r5, [r4, #8]
    ff06:	609d      	str	r5, [r3, #8]
    ff08:	68e5      	ldr	r5, [r4, #12]
    ff0a:	60dd      	str	r5, [r3, #12]
    ff0c:	3310      	adds	r3, #16
    ff0e:	42b3      	cmp	r3, r6
    ff10:	f104 0410 	add.w	r4, r4, #16
    ff14:	d1f2      	bne.n	fefc <memmove+0x44>
    ff16:	1c7b      	adds	r3, r7, #1
    ff18:	f002 0c0f 	and.w	ip, r2, #15
    ff1c:	011b      	lsls	r3, r3, #4
    ff1e:	f1bc 0f03 	cmp.w	ip, #3
    ff22:	4419      	add	r1, r3
    ff24:	4403      	add	r3, r0
    ff26:	d923      	bls.n	ff70 <memmove+0xb8>
    ff28:	460e      	mov	r6, r1
    ff2a:	461d      	mov	r5, r3
    ff2c:	4664      	mov	r4, ip
    ff2e:	3c04      	subs	r4, #4
    ff30:	f856 7b04 	ldr.w	r7, [r6], #4
    ff34:	f845 7b04 	str.w	r7, [r5], #4
    ff38:	2c03      	cmp	r4, #3
    ff3a:	d8f8      	bhi.n	ff2e <memmove+0x76>
    ff3c:	f1ac 0404 	sub.w	r4, ip, #4
    ff40:	f024 0403 	bic.w	r4, r4, #3
    ff44:	3404      	adds	r4, #4
    ff46:	f002 0203 	and.w	r2, r2, #3
    ff4a:	4423      	add	r3, r4
    ff4c:	4421      	add	r1, r4
    ff4e:	2a00      	cmp	r2, #0
    ff50:	d0c4      	beq.n	fedc <memmove+0x24>
    ff52:	441a      	add	r2, r3
    ff54:	f811 4b01 	ldrb.w	r4, [r1], #1
    ff58:	f803 4b01 	strb.w	r4, [r3], #1
    ff5c:	4293      	cmp	r3, r2
    ff5e:	d1f9      	bne.n	ff54 <memmove+0x9c>
    ff60:	bcf0      	pop	{r4, r5, r6, r7}
    ff62:	4770      	bx	lr
    ff64:	4603      	mov	r3, r0
    ff66:	2a00      	cmp	r2, #0
    ff68:	d1f3      	bne.n	ff52 <memmove+0x9a>
    ff6a:	e7b7      	b.n	fedc <memmove+0x24>
    ff6c:	4603      	mov	r3, r0
    ff6e:	e7f0      	b.n	ff52 <memmove+0x9a>
    ff70:	4662      	mov	r2, ip
    ff72:	2a00      	cmp	r2, #0
    ff74:	d1ed      	bne.n	ff52 <memmove+0x9a>
    ff76:	e7b1      	b.n	fedc <memmove+0x24>

0000ff78 <_Balloc>:
    ff78:	6cc2      	ldr	r2, [r0, #76]	; 0x4c
    ff7a:	b570      	push	{r4, r5, r6, lr}
    ff7c:	4605      	mov	r5, r0
    ff7e:	460c      	mov	r4, r1
    ff80:	b14a      	cbz	r2, ff96 <_Balloc+0x1e>
    ff82:	f852 0024 	ldr.w	r0, [r2, r4, lsl #2]
    ff86:	b180      	cbz	r0, ffaa <_Balloc+0x32>
    ff88:	6801      	ldr	r1, [r0, #0]
    ff8a:	f842 1024 	str.w	r1, [r2, r4, lsl #2]
    ff8e:	2200      	movs	r2, #0
    ff90:	6102      	str	r2, [r0, #16]
    ff92:	60c2      	str	r2, [r0, #12]
    ff94:	bd70      	pop	{r4, r5, r6, pc}
    ff96:	2221      	movs	r2, #33	; 0x21
    ff98:	2104      	movs	r1, #4
    ff9a:	f000 fe4b 	bl	10c34 <_calloc_r>
    ff9e:	64e8      	str	r0, [r5, #76]	; 0x4c
    ffa0:	4602      	mov	r2, r0
    ffa2:	2800      	cmp	r0, #0
    ffa4:	d1ed      	bne.n	ff82 <_Balloc+0xa>
    ffa6:	2000      	movs	r0, #0
    ffa8:	bd70      	pop	{r4, r5, r6, pc}
    ffaa:	2101      	movs	r1, #1
    ffac:	fa01 f604 	lsl.w	r6, r1, r4
    ffb0:	1d72      	adds	r2, r6, #5
    ffb2:	4628      	mov	r0, r5
    ffb4:	0092      	lsls	r2, r2, #2
    ffb6:	f000 fe3d 	bl	10c34 <_calloc_r>
    ffba:	2800      	cmp	r0, #0
    ffbc:	d0f3      	beq.n	ffa6 <_Balloc+0x2e>
    ffbe:	6044      	str	r4, [r0, #4]
    ffc0:	6086      	str	r6, [r0, #8]
    ffc2:	e7e4      	b.n	ff8e <_Balloc+0x16>

0000ffc4 <_Bfree>:
    ffc4:	b131      	cbz	r1, ffd4 <_Bfree+0x10>
    ffc6:	6cc3      	ldr	r3, [r0, #76]	; 0x4c
    ffc8:	684a      	ldr	r2, [r1, #4]
    ffca:	f853 0022 	ldr.w	r0, [r3, r2, lsl #2]
    ffce:	6008      	str	r0, [r1, #0]
    ffd0:	f843 1022 	str.w	r1, [r3, r2, lsl #2]
    ffd4:	4770      	bx	lr
    ffd6:	bf00      	nop

0000ffd8 <__multadd>:
    ffd8:	e92d 47f0 	stmdb	sp!, {r4, r5, r6, r7, r8, r9, sl, lr}
    ffdc:	f8d1 8010 	ldr.w	r8, [r1, #16]
    ffe0:	b082      	sub	sp, #8
    ffe2:	4689      	mov	r9, r1
    ffe4:	4682      	mov	sl, r0
    ffe6:	f101 0514 	add.w	r5, r1, #20
    ffea:	2400      	movs	r4, #0
    ffec:	682f      	ldr	r7, [r5, #0]
    ffee:	b2be      	uxth	r6, r7
    fff0:	0c3f      	lsrs	r7, r7, #16
    fff2:	fb02 3606 	mla	r6, r2, r6, r3
    fff6:	fb02 f307 	mul.w	r3, r2, r7
    fffa:	eb03 4316 	add.w	r3, r3, r6, lsr #16
    fffe:	3401      	adds	r4, #1
   10000:	b2b6      	uxth	r6, r6
   10002:	eb06 4603 	add.w	r6, r6, r3, lsl #16
   10006:	45a0      	cmp	r8, r4
   10008:	f845 6b04 	str.w	r6, [r5], #4
   1000c:	ea4f 4313 	mov.w	r3, r3, lsr #16
   10010:	dcec      	bgt.n	ffec <__multadd+0x14>
   10012:	b153      	cbz	r3, 1002a <STACK_SIZE+0x2a>
   10014:	f8d9 2008 	ldr.w	r2, [r9, #8]
   10018:	4590      	cmp	r8, r2
   1001a:	da0a      	bge.n	10032 <STACK_SIZE+0x32>
   1001c:	eb09 0188 	add.w	r1, r9, r8, lsl #2
   10020:	f108 0201 	add.w	r2, r8, #1
   10024:	614b      	str	r3, [r1, #20]
   10026:	f8c9 2010 	str.w	r2, [r9, #16]
   1002a:	4648      	mov	r0, r9
   1002c:	b002      	add	sp, #8
   1002e:	e8bd 87f0 	ldmia.w	sp!, {r4, r5, r6, r7, r8, r9, sl, pc}
   10032:	f8d9 1004 	ldr.w	r1, [r9, #4]
   10036:	9301      	str	r3, [sp, #4]
   10038:	3101      	adds	r1, #1
   1003a:	4650      	mov	r0, sl
   1003c:	f7ff ff9c 	bl	ff78 <_Balloc>
   10040:	f8d9 2010 	ldr.w	r2, [r9, #16]
   10044:	3202      	adds	r2, #2
   10046:	f109 010c 	add.w	r1, r9, #12
   1004a:	4604      	mov	r4, r0
   1004c:	0092      	lsls	r2, r2, #2
   1004e:	300c      	adds	r0, #12
   10050:	f7fb fa44 	bl	b4dc <memcpy>
   10054:	f8da 204c 	ldr.w	r2, [sl, #76]	; 0x4c
   10058:	f8d9 1004 	ldr.w	r1, [r9, #4]
   1005c:	9b01      	ldr	r3, [sp, #4]
   1005e:	f852 0021 	ldr.w	r0, [r2, r1, lsl #2]
   10062:	f8c9 0000 	str.w	r0, [r9]
   10066:	f842 9021 	str.w	r9, [r2, r1, lsl #2]
   1006a:	46a1      	mov	r9, r4
   1006c:	e7d6      	b.n	1001c <STACK_SIZE+0x1c>
   1006e:	bf00      	nop

00010070 <__hi0bits>:
   10070:	0c03      	lsrs	r3, r0, #16
   10072:	041b      	lsls	r3, r3, #16
   10074:	b9b3      	cbnz	r3, 100a4 <__hi0bits+0x34>
   10076:	0400      	lsls	r0, r0, #16
   10078:	2310      	movs	r3, #16
   1007a:	f010 4f7f 	tst.w	r0, #4278190080	; 0xff000000
   1007e:	bf04      	itt	eq
   10080:	0200      	lsleq	r0, r0, #8
   10082:	3308      	addeq	r3, #8
   10084:	f010 4f70 	tst.w	r0, #4026531840	; 0xf0000000
   10088:	bf04      	itt	eq
   1008a:	0100      	lsleq	r0, r0, #4
   1008c:	3304      	addeq	r3, #4
   1008e:	f010 4f40 	tst.w	r0, #3221225472	; 0xc0000000
   10092:	bf04      	itt	eq
   10094:	0080      	lsleq	r0, r0, #2
   10096:	3302      	addeq	r3, #2
   10098:	2800      	cmp	r0, #0
   1009a:	db07      	blt.n	100ac <__hi0bits+0x3c>
   1009c:	0042      	lsls	r2, r0, #1
   1009e:	d403      	bmi.n	100a8 <__hi0bits+0x38>
   100a0:	2020      	movs	r0, #32
   100a2:	4770      	bx	lr
   100a4:	2300      	movs	r3, #0
   100a6:	e7e8      	b.n	1007a <__hi0bits+0xa>
   100a8:	1c58      	adds	r0, r3, #1
   100aa:	4770      	bx	lr
   100ac:	4618      	mov	r0, r3
   100ae:	4770      	bx	lr

000100b0 <__lo0bits>:
   100b0:	6803      	ldr	r3, [r0, #0]
   100b2:	f013 0207 	ands.w	r2, r3, #7
   100b6:	d007      	beq.n	100c8 <__lo0bits+0x18>
   100b8:	07d9      	lsls	r1, r3, #31
   100ba:	d420      	bmi.n	100fe <__lo0bits+0x4e>
   100bc:	079a      	lsls	r2, r3, #30
   100be:	d420      	bmi.n	10102 <__lo0bits+0x52>
   100c0:	089b      	lsrs	r3, r3, #2
   100c2:	6003      	str	r3, [r0, #0]
   100c4:	2002      	movs	r0, #2
   100c6:	4770      	bx	lr
   100c8:	b299      	uxth	r1, r3
   100ca:	b909      	cbnz	r1, 100d0 <__lo0bits+0x20>
   100cc:	0c1b      	lsrs	r3, r3, #16
   100ce:	2210      	movs	r2, #16
   100d0:	f013 0fff 	tst.w	r3, #255	; 0xff
   100d4:	bf04      	itt	eq
   100d6:	0a1b      	lsreq	r3, r3, #8
   100d8:	3208      	addeq	r2, #8
   100da:	0719      	lsls	r1, r3, #28
   100dc:	bf04      	itt	eq
   100de:	091b      	lsreq	r3, r3, #4
   100e0:	3204      	addeq	r2, #4
   100e2:	0799      	lsls	r1, r3, #30
   100e4:	bf04      	itt	eq
   100e6:	089b      	lsreq	r3, r3, #2
   100e8:	3202      	addeq	r2, #2
   100ea:	07d9      	lsls	r1, r3, #31
   100ec:	d404      	bmi.n	100f8 <__lo0bits+0x48>
   100ee:	085b      	lsrs	r3, r3, #1
   100f0:	d101      	bne.n	100f6 <__lo0bits+0x46>
   100f2:	2020      	movs	r0, #32
   100f4:	4770      	bx	lr
   100f6:	3201      	adds	r2, #1
   100f8:	6003      	str	r3, [r0, #0]
   100fa:	4610      	mov	r0, r2
   100fc:	4770      	bx	lr
   100fe:	2000      	movs	r0, #0
   10100:	4770      	bx	lr
   10102:	085b      	lsrs	r3, r3, #1
   10104:	6003      	str	r3, [r0, #0]
   10106:	2001      	movs	r0, #1
   10108:	4770      	bx	lr
   1010a:	bf00      	nop

0001010c <__i2b>:
   1010c:	b510      	push	{r4, lr}
   1010e:	460c      	mov	r4, r1
   10110:	2101      	movs	r1, #1
   10112:	f7ff ff31 	bl	ff78 <_Balloc>
   10116:	2201      	movs	r2, #1
   10118:	6144      	str	r4, [r0, #20]
   1011a:	6102      	str	r2, [r0, #16]
   1011c:	bd10      	pop	{r4, pc}
   1011e:	bf00      	nop

00010120 <__multiply>:
   10120:	e92d 4ff0 	stmdb	sp!, {r4, r5, r6, r7, r8, r9, sl, fp, lr}
   10124:	690d      	ldr	r5, [r1, #16]
   10126:	f8d2 9010 	ldr.w	r9, [r2, #16]
   1012a:	454d      	cmp	r5, r9
   1012c:	b085      	sub	sp, #20
   1012e:	460c      	mov	r4, r1
   10130:	4692      	mov	sl, r2
   10132:	da04      	bge.n	1013e <__multiply+0x1e>
   10134:	462a      	mov	r2, r5
   10136:	4654      	mov	r4, sl
   10138:	464d      	mov	r5, r9
   1013a:	468a      	mov	sl, r1
   1013c:	4691      	mov	r9, r2
   1013e:	68a3      	ldr	r3, [r4, #8]
   10140:	6861      	ldr	r1, [r4, #4]
   10142:	eb05 0709 	add.w	r7, r5, r9
   10146:	429f      	cmp	r7, r3
   10148:	bfc8      	it	gt
   1014a:	3101      	addgt	r1, #1
   1014c:	f7ff ff14 	bl	ff78 <_Balloc>
   10150:	f100 0614 	add.w	r6, r0, #20
   10154:	eb06 0887 	add.w	r8, r6, r7, lsl #2
   10158:	4546      	cmp	r6, r8
   1015a:	9001      	str	r0, [sp, #4]
   1015c:	d205      	bcs.n	1016a <__multiply+0x4a>
   1015e:	4633      	mov	r3, r6
   10160:	2000      	movs	r0, #0
   10162:	f843 0b04 	str.w	r0, [r3], #4
   10166:	4598      	cmp	r8, r3
   10168:	d8fb      	bhi.n	10162 <__multiply+0x42>
   1016a:	f10a 0c14 	add.w	ip, sl, #20
   1016e:	eb0c 0989 	add.w	r9, ip, r9, lsl #2
   10172:	3414      	adds	r4, #20
   10174:	45cc      	cmp	ip, r9
   10176:	9400      	str	r4, [sp, #0]
   10178:	eb04 0585 	add.w	r5, r4, r5, lsl #2
   1017c:	d25b      	bcs.n	10236 <__multiply+0x116>
   1017e:	f8cd 8008 	str.w	r8, [sp, #8]
   10182:	9703      	str	r7, [sp, #12]
   10184:	46c8      	mov	r8, r9
   10186:	f85c 3b04 	ldr.w	r3, [ip], #4
   1018a:	b29c      	uxth	r4, r3
   1018c:	b324      	cbz	r4, 101d8 <__multiply+0xb8>
   1018e:	9a00      	ldr	r2, [sp, #0]
   10190:	4633      	mov	r3, r6
   10192:	f04f 0900 	mov.w	r9, #0
   10196:	e000      	b.n	1019a <__multiply+0x7a>
   10198:	460b      	mov	r3, r1
   1019a:	f852 7b04 	ldr.w	r7, [r2], #4
   1019e:	6819      	ldr	r1, [r3, #0]
   101a0:	fa1f fb87 	uxth.w	fp, r7
   101a4:	fa1f fa81 	uxth.w	sl, r1
   101a8:	0c38      	lsrs	r0, r7, #16
   101aa:	0c09      	lsrs	r1, r1, #16
   101ac:	fb04 a70b 	mla	r7, r4, fp, sl
   101b0:	44b9      	add	r9, r7
   101b2:	fb04 1000 	mla	r0, r4, r0, r1
   101b6:	eb00 4019 	add.w	r0, r0, r9, lsr #16
   101ba:	4619      	mov	r1, r3
   101bc:	fa1f f989 	uxth.w	r9, r9
   101c0:	ea49 4700 	orr.w	r7, r9, r0, lsl #16
   101c4:	4295      	cmp	r5, r2
   101c6:	ea4f 4910 	mov.w	r9, r0, lsr #16
   101ca:	f841 7b04 	str.w	r7, [r1], #4
   101ce:	d8e3      	bhi.n	10198 <__multiply+0x78>
   101d0:	f8c3 9004 	str.w	r9, [r3, #4]
   101d4:	f85c 3c04 	ldr.w	r3, [ip, #-4]
   101d8:	ea5f 4913 	movs.w	r9, r3, lsr #16
   101dc:	d024      	beq.n	10228 <__multiply+0x108>
   101de:	f8d6 a000 	ldr.w	sl, [r6]
   101e2:	9b00      	ldr	r3, [sp, #0]
   101e4:	4650      	mov	r0, sl
   101e6:	4631      	mov	r1, r6
   101e8:	f04f 0b00 	mov.w	fp, #0
   101ec:	e000      	b.n	101f0 <__multiply+0xd0>
   101ee:	4611      	mov	r1, r2
   101f0:	881a      	ldrh	r2, [r3, #0]
   101f2:	0c00      	lsrs	r0, r0, #16
   101f4:	fb09 0002 	mla	r0, r9, r2, r0
   101f8:	4483      	add	fp, r0
   101fa:	fa1f fa8a 	uxth.w	sl, sl
   101fe:	460a      	mov	r2, r1
   10200:	ea4a 400b 	orr.w	r0, sl, fp, lsl #16
   10204:	f842 0b04 	str.w	r0, [r2], #4
   10208:	f853 7b04 	ldr.w	r7, [r3], #4
   1020c:	6848      	ldr	r0, [r1, #4]
   1020e:	ea4f 4a17 	mov.w	sl, r7, lsr #16
   10212:	b284      	uxth	r4, r0
   10214:	fb09 4a0a 	mla	sl, r9, sl, r4
   10218:	eb0a 4a1b 	add.w	sl, sl, fp, lsr #16
   1021c:	429d      	cmp	r5, r3
   1021e:	ea4f 4b1a 	mov.w	fp, sl, lsr #16
   10222:	d8e4      	bhi.n	101ee <__multiply+0xce>
   10224:	f8c1 a004 	str.w	sl, [r1, #4]
   10228:	45e0      	cmp	r8, ip
   1022a:	f106 0604 	add.w	r6, r6, #4
   1022e:	d8aa      	bhi.n	10186 <__multiply+0x66>
   10230:	f8dd 8008 	ldr.w	r8, [sp, #8]
   10234:	9f03      	ldr	r7, [sp, #12]
   10236:	2f00      	cmp	r7, #0
   10238:	dd0a      	ble.n	10250 <__multiply+0x130>
   1023a:	f858 3c04 	ldr.w	r3, [r8, #-4]
   1023e:	f1a8 0804 	sub.w	r8, r8, #4
   10242:	b11b      	cbz	r3, 1024c <__multiply+0x12c>
   10244:	e004      	b.n	10250 <__multiply+0x130>
   10246:	f858 3d04 	ldr.w	r3, [r8, #-4]!
   1024a:	b90b      	cbnz	r3, 10250 <__multiply+0x130>
   1024c:	3f01      	subs	r7, #1
   1024e:	d1fa      	bne.n	10246 <__multiply+0x126>
   10250:	9b01      	ldr	r3, [sp, #4]
   10252:	4618      	mov	r0, r3
   10254:	611f      	str	r7, [r3, #16]
   10256:	b005      	add	sp, #20
   10258:	e8bd 8ff0 	ldmia.w	sp!, {r4, r5, r6, r7, r8, r9, sl, fp, pc}

0001025c <__pow5mult>:
   1025c:	f012 0303 	ands.w	r3, r2, #3
   10260:	e92d 41f0 	stmdb	sp!, {r4, r5, r6, r7, r8, lr}
   10264:	4614      	mov	r4, r2
   10266:	4607      	mov	r7, r0
   10268:	460e      	mov	r6, r1
   1026a:	d12c      	bne.n	102c6 <__pow5mult+0x6a>
   1026c:	10a4      	asrs	r4, r4, #2
   1026e:	d01c      	beq.n	102aa <__pow5mult+0x4e>
   10270:	6cbd      	ldr	r5, [r7, #72]	; 0x48
   10272:	2d00      	cmp	r5, #0
   10274:	d030      	beq.n	102d8 <__pow5mult+0x7c>
   10276:	f04f 0800 	mov.w	r8, #0
   1027a:	e004      	b.n	10286 <__pow5mult+0x2a>
   1027c:	1064      	asrs	r4, r4, #1
   1027e:	d014      	beq.n	102aa <__pow5mult+0x4e>
   10280:	6828      	ldr	r0, [r5, #0]
   10282:	b1a8      	cbz	r0, 102b0 <__pow5mult+0x54>
   10284:	4605      	mov	r5, r0
   10286:	07e3      	lsls	r3, r4, #31
   10288:	d5f8      	bpl.n	1027c <__pow5mult+0x20>
   1028a:	4638      	mov	r0, r7
   1028c:	4631      	mov	r1, r6
   1028e:	462a      	mov	r2, r5
   10290:	f7ff ff46 	bl	10120 <__multiply>
   10294:	b1ae      	cbz	r6, 102c2 <__pow5mult+0x66>
   10296:	6872      	ldr	r2, [r6, #4]
   10298:	6cfb      	ldr	r3, [r7, #76]	; 0x4c
   1029a:	1064      	asrs	r4, r4, #1
   1029c:	f853 1022 	ldr.w	r1, [r3, r2, lsl #2]
   102a0:	6031      	str	r1, [r6, #0]
   102a2:	f843 6022 	str.w	r6, [r3, r2, lsl #2]
   102a6:	4606      	mov	r6, r0
   102a8:	d1ea      	bne.n	10280 <__pow5mult+0x24>
   102aa:	4630      	mov	r0, r6
   102ac:	e8bd 81f0 	ldmia.w	sp!, {r4, r5, r6, r7, r8, pc}
   102b0:	4638      	mov	r0, r7
   102b2:	4629      	mov	r1, r5
   102b4:	462a      	mov	r2, r5
   102b6:	f7ff ff33 	bl	10120 <__multiply>
   102ba:	6028      	str	r0, [r5, #0]
   102bc:	f8c0 8000 	str.w	r8, [r0]
   102c0:	e7e0      	b.n	10284 <__pow5mult+0x28>
   102c2:	4606      	mov	r6, r0
   102c4:	e7da      	b.n	1027c <__pow5mult+0x20>
   102c6:	1e5d      	subs	r5, r3, #1
   102c8:	4a0a      	ldr	r2, [pc, #40]	; (102f4 <__pow5mult+0x98>)
   102ca:	2300      	movs	r3, #0
   102cc:	f852 2025 	ldr.w	r2, [r2, r5, lsl #2]
   102d0:	f7ff fe82 	bl	ffd8 <__multadd>
   102d4:	4606      	mov	r6, r0
   102d6:	e7c9      	b.n	1026c <__pow5mult+0x10>
   102d8:	2101      	movs	r1, #1
   102da:	4638      	mov	r0, r7
   102dc:	f7ff fe4c 	bl	ff78 <_Balloc>
   102e0:	f240 2171 	movw	r1, #625	; 0x271
   102e4:	2201      	movs	r2, #1
   102e6:	2300      	movs	r3, #0
   102e8:	6141      	str	r1, [r0, #20]
   102ea:	6102      	str	r2, [r0, #16]
   102ec:	4605      	mov	r5, r0
   102ee:	64b8      	str	r0, [r7, #72]	; 0x48
   102f0:	6003      	str	r3, [r0, #0]
   102f2:	e7c0      	b.n	10276 <__pow5mult+0x1a>
   102f4:	000118c8 	.word	0x000118c8

000102f8 <__lshift>:
   102f8:	e92d 4ff8 	stmdb	sp!, {r3, r4, r5, r6, r7, r8, r9, sl, fp, lr}
   102fc:	4693      	mov	fp, r2
   102fe:	690a      	ldr	r2, [r1, #16]
   10300:	688b      	ldr	r3, [r1, #8]
   10302:	ea4f 1a6b 	mov.w	sl, fp, asr #5
   10306:	eb0a 0902 	add.w	r9, sl, r2
   1030a:	f109 0601 	add.w	r6, r9, #1
   1030e:	429e      	cmp	r6, r3
   10310:	460f      	mov	r7, r1
   10312:	4680      	mov	r8, r0
   10314:	6849      	ldr	r1, [r1, #4]
   10316:	dd04      	ble.n	10322 <__lshift+0x2a>
   10318:	005b      	lsls	r3, r3, #1
   1031a:	429e      	cmp	r6, r3
   1031c:	f101 0101 	add.w	r1, r1, #1
   10320:	dcfa      	bgt.n	10318 <__lshift+0x20>
   10322:	4640      	mov	r0, r8
   10324:	f7ff fe28 	bl	ff78 <_Balloc>
   10328:	f1ba 0f00 	cmp.w	sl, #0
   1032c:	f100 0414 	add.w	r4, r0, #20
   10330:	dd09      	ble.n	10346 <__lshift+0x4e>
   10332:	2300      	movs	r3, #0
   10334:	461a      	mov	r2, r3
   10336:	4625      	mov	r5, r4
   10338:	3301      	adds	r3, #1
   1033a:	4553      	cmp	r3, sl
   1033c:	f845 2b04 	str.w	r2, [r5], #4
   10340:	d1fa      	bne.n	10338 <__lshift+0x40>
   10342:	eb04 0483 	add.w	r4, r4, r3, lsl #2
   10346:	693a      	ldr	r2, [r7, #16]
   10348:	f107 0314 	add.w	r3, r7, #20
   1034c:	f01b 0b1f 	ands.w	fp, fp, #31
   10350:	eb03 0c82 	add.w	ip, r3, r2, lsl #2
   10354:	d021      	beq.n	1039a <__lshift+0xa2>
   10356:	f1cb 0a20 	rsb	sl, fp, #32
   1035a:	2200      	movs	r2, #0
   1035c:	e000      	b.n	10360 <__lshift+0x68>
   1035e:	462c      	mov	r4, r5
   10360:	6819      	ldr	r1, [r3, #0]
   10362:	4625      	mov	r5, r4
   10364:	fa01 f10b 	lsl.w	r1, r1, fp
   10368:	430a      	orrs	r2, r1
   1036a:	f845 2b04 	str.w	r2, [r5], #4
   1036e:	f853 2b04 	ldr.w	r2, [r3], #4
   10372:	4563      	cmp	r3, ip
   10374:	fa22 f20a 	lsr.w	r2, r2, sl
   10378:	d3f1      	bcc.n	1035e <__lshift+0x66>
   1037a:	6062      	str	r2, [r4, #4]
   1037c:	b10a      	cbz	r2, 10382 <__lshift+0x8a>
   1037e:	f109 0602 	add.w	r6, r9, #2
   10382:	f8d8 304c 	ldr.w	r3, [r8, #76]	; 0x4c
   10386:	687a      	ldr	r2, [r7, #4]
   10388:	3e01      	subs	r6, #1
   1038a:	f853 1022 	ldr.w	r1, [r3, r2, lsl #2]
   1038e:	6106      	str	r6, [r0, #16]
   10390:	6039      	str	r1, [r7, #0]
   10392:	f843 7022 	str.w	r7, [r3, r2, lsl #2]
   10396:	e8bd 8ff8 	ldmia.w	sp!, {r3, r4, r5, r6, r7, r8, r9, sl, fp, pc}
   1039a:	f853 2b04 	ldr.w	r2, [r3], #4
   1039e:	f844 2b04 	str.w	r2, [r4], #4
   103a2:	459c      	cmp	ip, r3
   103a4:	d9ed      	bls.n	10382 <__lshift+0x8a>
   103a6:	f853 2b04 	ldr.w	r2, [r3], #4
   103aa:	f844 2b04 	str.w	r2, [r4], #4
   103ae:	459c      	cmp	ip, r3
   103b0:	d8f3      	bhi.n	1039a <__lshift+0xa2>
   103b2:	e7e6      	b.n	10382 <__lshift+0x8a>

000103b4 <__mcmp>:
   103b4:	6902      	ldr	r2, [r0, #16]
   103b6:	690b      	ldr	r3, [r1, #16]
   103b8:	1ad2      	subs	r2, r2, r3
   103ba:	b410      	push	{r4}
   103bc:	d115      	bne.n	103ea <__mcmp+0x36>
   103be:	009b      	lsls	r3, r3, #2
   103c0:	3014      	adds	r0, #20
   103c2:	3114      	adds	r1, #20
   103c4:	4419      	add	r1, r3
   103c6:	4403      	add	r3, r0
   103c8:	e001      	b.n	103ce <__mcmp+0x1a>
   103ca:	4298      	cmp	r0, r3
   103cc:	d211      	bcs.n	103f2 <__mcmp+0x3e>
   103ce:	f853 2d04 	ldr.w	r2, [r3, #-4]!
   103d2:	f851 4d04 	ldr.w	r4, [r1, #-4]!
   103d6:	42a2      	cmp	r2, r4
   103d8:	d0f7      	beq.n	103ca <__mcmp+0x16>
   103da:	4294      	cmp	r4, r2
   103dc:	bf94      	ite	ls
   103de:	2001      	movls	r0, #1
   103e0:	f04f 30ff 	movhi.w	r0, #4294967295	; 0xffffffff
   103e4:	f85d 4b04 	ldr.w	r4, [sp], #4
   103e8:	4770      	bx	lr
   103ea:	4610      	mov	r0, r2
   103ec:	f85d 4b04 	ldr.w	r4, [sp], #4
   103f0:	4770      	bx	lr
   103f2:	2000      	movs	r0, #0
   103f4:	f85d 4b04 	ldr.w	r4, [sp], #4
   103f8:	4770      	bx	lr
   103fa:	bf00      	nop

000103fc <__mdiff>:
   103fc:	e92d 47f0 	stmdb	sp!, {r4, r5, r6, r7, r8, r9, sl, lr}
   10400:	460d      	mov	r5, r1
   10402:	4604      	mov	r4, r0
   10404:	4611      	mov	r1, r2
   10406:	4628      	mov	r0, r5
   10408:	4616      	mov	r6, r2
   1040a:	f7ff ffd3 	bl	103b4 <__mcmp>
   1040e:	1e07      	subs	r7, r0, #0
   10410:	d055      	beq.n	104be <__mdiff+0xc2>
   10412:	db4e      	blt.n	104b2 <__mdiff+0xb6>
   10414:	f04f 0800 	mov.w	r8, #0
   10418:	6869      	ldr	r1, [r5, #4]
   1041a:	4620      	mov	r0, r4
   1041c:	f7ff fdac 	bl	ff78 <_Balloc>
   10420:	692f      	ldr	r7, [r5, #16]
   10422:	6932      	ldr	r2, [r6, #16]
   10424:	f8c0 800c 	str.w	r8, [r0, #12]
   10428:	3514      	adds	r5, #20
   1042a:	3614      	adds	r6, #20
   1042c:	f100 0314 	add.w	r3, r0, #20
   10430:	eb05 0c87 	add.w	ip, r5, r7, lsl #2
   10434:	eb06 0882 	add.w	r8, r6, r2, lsl #2
   10438:	2100      	movs	r1, #0
   1043a:	f856 2b04 	ldr.w	r2, [r6], #4
   1043e:	f855 4b04 	ldr.w	r4, [r5], #4
   10442:	fa1f f982 	uxth.w	r9, r2
   10446:	fa11 fa84 	uxtah	sl, r1, r4
   1044a:	0c11      	lsrs	r1, r2, #16
   1044c:	ebc1 4114 	rsb	r1, r1, r4, lsr #16
   10450:	ebc9 020a 	rsb	r2, r9, sl
   10454:	eb01 4122 	add.w	r1, r1, r2, asr #16
   10458:	b292      	uxth	r2, r2
   1045a:	ea42 4201 	orr.w	r2, r2, r1, lsl #16
   1045e:	45b0      	cmp	r8, r6
   10460:	f843 2b04 	str.w	r2, [r3], #4
   10464:	ea4f 4121 	mov.w	r1, r1, asr #16
   10468:	462c      	mov	r4, r5
   1046a:	d8e6      	bhi.n	1043a <__mdiff+0x3e>
   1046c:	45ac      	cmp	ip, r5
   1046e:	4698      	mov	r8, r3
   10470:	d915      	bls.n	1049e <__mdiff+0xa2>
   10472:	f854 6b04 	ldr.w	r6, [r4], #4
   10476:	fa11 f186 	uxtah	r1, r1, r6
   1047a:	0c36      	lsrs	r6, r6, #16
   1047c:	eb06 4621 	add.w	r6, r6, r1, asr #16
   10480:	b289      	uxth	r1, r1
   10482:	ea41 4206 	orr.w	r2, r1, r6, lsl #16
   10486:	45a4      	cmp	ip, r4
   10488:	f843 2b04 	str.w	r2, [r3], #4
   1048c:	ea4f 4126 	mov.w	r1, r6, asr #16
   10490:	d8ef      	bhi.n	10472 <__mdiff+0x76>
   10492:	43eb      	mvns	r3, r5
   10494:	4463      	add	r3, ip
   10496:	f023 0303 	bic.w	r3, r3, #3
   1049a:	3304      	adds	r3, #4
   1049c:	4443      	add	r3, r8
   1049e:	3b04      	subs	r3, #4
   104a0:	b922      	cbnz	r2, 104ac <__mdiff+0xb0>
   104a2:	f853 2d04 	ldr.w	r2, [r3, #-4]!
   104a6:	3f01      	subs	r7, #1
   104a8:	2a00      	cmp	r2, #0
   104aa:	d0fa      	beq.n	104a2 <__mdiff+0xa6>
   104ac:	6107      	str	r7, [r0, #16]
   104ae:	e8bd 87f0 	ldmia.w	sp!, {r4, r5, r6, r7, r8, r9, sl, pc}
   104b2:	462b      	mov	r3, r5
   104b4:	f04f 0801 	mov.w	r8, #1
   104b8:	4635      	mov	r5, r6
   104ba:	461e      	mov	r6, r3
   104bc:	e7ac      	b.n	10418 <__mdiff+0x1c>
   104be:	4620      	mov	r0, r4
   104c0:	4639      	mov	r1, r7
   104c2:	f7ff fd59 	bl	ff78 <_Balloc>
   104c6:	2301      	movs	r3, #1
   104c8:	6147      	str	r7, [r0, #20]
   104ca:	6103      	str	r3, [r0, #16]
   104cc:	e8bd 87f0 	ldmia.w	sp!, {r4, r5, r6, r7, r8, r9, sl, pc}

000104d0 <__d2b>:
   104d0:	e92d 43f0 	stmdb	sp!, {r4, r5, r6, r7, r8, r9, lr}
   104d4:	4689      	mov	r9, r1
   104d6:	b083      	sub	sp, #12
   104d8:	2101      	movs	r1, #1
   104da:	ec55 4b10 	vmov	r4, r5, d0
   104de:	4690      	mov	r8, r2
   104e0:	f7ff fd4a 	bl	ff78 <_Balloc>
   104e4:	f3c5 570a 	ubfx	r7, r5, #20, #11
   104e8:	4606      	mov	r6, r0
   104ea:	f3c5 0313 	ubfx	r3, r5, #0, #20
   104ee:	b10f      	cbz	r7, 104f4 <__d2b+0x24>
   104f0:	f443 1380 	orr.w	r3, r3, #1048576	; 0x100000
   104f4:	9301      	str	r3, [sp, #4]
   104f6:	b314      	cbz	r4, 1053e <__d2b+0x6e>
   104f8:	a802      	add	r0, sp, #8
   104fa:	f840 4d08 	str.w	r4, [r0, #-8]!
   104fe:	4668      	mov	r0, sp
   10500:	f7ff fdd6 	bl	100b0 <__lo0bits>
   10504:	2800      	cmp	r0, #0
   10506:	d131      	bne.n	1056c <__d2b+0x9c>
   10508:	e89d 000c 	ldmia.w	sp, {r2, r3}
   1050c:	6172      	str	r2, [r6, #20]
   1050e:	2b00      	cmp	r3, #0
   10510:	bf0c      	ite	eq
   10512:	2401      	moveq	r4, #1
   10514:	2402      	movne	r4, #2
   10516:	61b3      	str	r3, [r6, #24]
   10518:	6134      	str	r4, [r6, #16]
   1051a:	b9d7      	cbnz	r7, 10552 <__d2b+0x82>
   1051c:	eb06 0384 	add.w	r3, r6, r4, lsl #2
   10520:	f2a0 4032 	subw	r0, r0, #1074	; 0x432
   10524:	f8c9 0000 	str.w	r0, [r9]
   10528:	6918      	ldr	r0, [r3, #16]
   1052a:	f7ff fda1 	bl	10070 <__hi0bits>
   1052e:	ebc0 1044 	rsb	r0, r0, r4, lsl #5
   10532:	f8c8 0000 	str.w	r0, [r8]
   10536:	4630      	mov	r0, r6
   10538:	b003      	add	sp, #12
   1053a:	e8bd 83f0 	ldmia.w	sp!, {r4, r5, r6, r7, r8, r9, pc}
   1053e:	a801      	add	r0, sp, #4
   10540:	f7ff fdb6 	bl	100b0 <__lo0bits>
   10544:	2401      	movs	r4, #1
   10546:	9b01      	ldr	r3, [sp, #4]
   10548:	6173      	str	r3, [r6, #20]
   1054a:	3020      	adds	r0, #32
   1054c:	6134      	str	r4, [r6, #16]
   1054e:	2f00      	cmp	r7, #0
   10550:	d0e4      	beq.n	1051c <__d2b+0x4c>
   10552:	f2a7 4733 	subw	r7, r7, #1075	; 0x433
   10556:	4407      	add	r7, r0
   10558:	f1c0 0035 	rsb	r0, r0, #53	; 0x35
   1055c:	f8c9 7000 	str.w	r7, [r9]
   10560:	f8c8 0000 	str.w	r0, [r8]
   10564:	4630      	mov	r0, r6
   10566:	b003      	add	sp, #12
   10568:	e8bd 83f0 	ldmia.w	sp!, {r4, r5, r6, r7, r8, r9, pc}
   1056c:	e89d 000c 	ldmia.w	sp, {r2, r3}
   10570:	f1c0 0120 	rsb	r1, r0, #32
   10574:	fa03 f101 	lsl.w	r1, r3, r1
   10578:	430a      	orrs	r2, r1
   1057a:	40c3      	lsrs	r3, r0
   1057c:	9301      	str	r3, [sp, #4]
   1057e:	6172      	str	r2, [r6, #20]
   10580:	e7c5      	b.n	1050e <__d2b+0x3e>
   10582:	bf00      	nop

00010584 <_realloc_r>:
   10584:	e92d 4ff0 	stmdb	sp!, {r4, r5, r6, r7, r8, r9, sl, fp, lr}
   10588:	460c      	mov	r4, r1
   1058a:	b083      	sub	sp, #12
   1058c:	4690      	mov	r8, r2
   1058e:	4681      	mov	r9, r0
   10590:	2900      	cmp	r1, #0
   10592:	f000 80e2 	beq.w	1075a <_realloc_r+0x1d6>
   10596:	f7fb f885 	bl	b6a4 <__malloc_lock>
   1059a:	f108 060b 	add.w	r6, r8, #11
   1059e:	f854 3c04 	ldr.w	r3, [r4, #-4]
   105a2:	2e16      	cmp	r6, #22
   105a4:	f023 0503 	bic.w	r5, r3, #3
   105a8:	f1a4 0708 	sub.w	r7, r4, #8
   105ac:	d84b      	bhi.n	10646 <_realloc_r+0xc2>
   105ae:	2110      	movs	r1, #16
   105b0:	460e      	mov	r6, r1
   105b2:	45b0      	cmp	r8, r6
   105b4:	d84c      	bhi.n	10650 <_realloc_r+0xcc>
   105b6:	428d      	cmp	r5, r1
   105b8:	da78      	bge.n	106ac <_realloc_r+0x128>
   105ba:	f8df b390 	ldr.w	fp, [pc, #912]	; 1094c <_realloc_r+0x3c8>
   105be:	f8db e008 	ldr.w	lr, [fp, #8]
   105c2:	1978      	adds	r0, r7, r5
   105c4:	4586      	cmp	lr, r0
   105c6:	f000 80ce 	beq.w	10766 <_realloc_r+0x1e2>
   105ca:	6842      	ldr	r2, [r0, #4]
   105cc:	f022 0c01 	bic.w	ip, r2, #1
   105d0:	4484      	add	ip, r0
   105d2:	f8dc c004 	ldr.w	ip, [ip, #4]
   105d6:	f01c 0f01 	tst.w	ip, #1
   105da:	d07a      	beq.n	106d2 <_realloc_r+0x14e>
   105dc:	2200      	movs	r2, #0
   105de:	4610      	mov	r0, r2
   105e0:	07db      	lsls	r3, r3, #31
   105e2:	f100 8092 	bmi.w	1070a <_realloc_r+0x186>
   105e6:	f854 3c08 	ldr.w	r3, [r4, #-8]
   105ea:	ebc3 0a07 	rsb	sl, r3, r7
   105ee:	f8da 3004 	ldr.w	r3, [sl, #4]
   105f2:	f023 0303 	bic.w	r3, r3, #3
   105f6:	442b      	add	r3, r5
   105f8:	b388      	cbz	r0, 1065e <_realloc_r+0xda>
   105fa:	4570      	cmp	r0, lr
   105fc:	f000 80ed 	beq.w	107da <_realloc_r+0x256>
   10600:	eb02 0e03 	add.w	lr, r2, r3
   10604:	458e      	cmp	lr, r1
   10606:	db2a      	blt.n	1065e <_realloc_r+0xda>
   10608:	68c3      	ldr	r3, [r0, #12]
   1060a:	6882      	ldr	r2, [r0, #8]
   1060c:	4657      	mov	r7, sl
   1060e:	60d3      	str	r3, [r2, #12]
   10610:	609a      	str	r2, [r3, #8]
   10612:	f857 1f08 	ldr.w	r1, [r7, #8]!
   10616:	f8da 300c 	ldr.w	r3, [sl, #12]
   1061a:	60cb      	str	r3, [r1, #12]
   1061c:	1f2a      	subs	r2, r5, #4
   1061e:	2a24      	cmp	r2, #36	; 0x24
   10620:	6099      	str	r1, [r3, #8]
   10622:	f200 8126 	bhi.w	10872 <_realloc_r+0x2ee>
   10626:	2a13      	cmp	r2, #19
   10628:	f240 80b3 	bls.w	10792 <_realloc_r+0x20e>
   1062c:	6823      	ldr	r3, [r4, #0]
   1062e:	f8ca 3008 	str.w	r3, [sl, #8]
   10632:	6863      	ldr	r3, [r4, #4]
   10634:	f8ca 300c 	str.w	r3, [sl, #12]
   10638:	2a1b      	cmp	r2, #27
   1063a:	f200 8130 	bhi.w	1089e <_realloc_r+0x31a>
   1063e:	3408      	adds	r4, #8
   10640:	f10a 0310 	add.w	r3, sl, #16
   10644:	e0a6      	b.n	10794 <_realloc_r+0x210>
   10646:	f026 0607 	bic.w	r6, r6, #7
   1064a:	2e00      	cmp	r6, #0
   1064c:	4631      	mov	r1, r6
   1064e:	dab0      	bge.n	105b2 <_realloc_r+0x2e>
   10650:	230c      	movs	r3, #12
   10652:	2000      	movs	r0, #0
   10654:	f8c9 3000 	str.w	r3, [r9]
   10658:	b003      	add	sp, #12
   1065a:	e8bd 8ff0 	ldmia.w	sp!, {r4, r5, r6, r7, r8, r9, sl, fp, pc}
   1065e:	428b      	cmp	r3, r1
   10660:	db53      	blt.n	1070a <_realloc_r+0x186>
   10662:	4657      	mov	r7, sl
   10664:	f8da 100c 	ldr.w	r1, [sl, #12]
   10668:	f857 0f08 	ldr.w	r0, [r7, #8]!
   1066c:	1f2a      	subs	r2, r5, #4
   1066e:	2a24      	cmp	r2, #36	; 0x24
   10670:	60c1      	str	r1, [r0, #12]
   10672:	6088      	str	r0, [r1, #8]
   10674:	f200 8109 	bhi.w	1088a <_realloc_r+0x306>
   10678:	2a13      	cmp	r2, #19
   1067a:	f240 8104 	bls.w	10886 <_realloc_r+0x302>
   1067e:	6821      	ldr	r1, [r4, #0]
   10680:	f8ca 1008 	str.w	r1, [sl, #8]
   10684:	6861      	ldr	r1, [r4, #4]
   10686:	f8ca 100c 	str.w	r1, [sl, #12]
   1068a:	2a1b      	cmp	r2, #27
   1068c:	f200 811c 	bhi.w	108c8 <_realloc_r+0x344>
   10690:	3408      	adds	r4, #8
   10692:	f10a 0210 	add.w	r2, sl, #16
   10696:	6821      	ldr	r1, [r4, #0]
   10698:	6011      	str	r1, [r2, #0]
   1069a:	6861      	ldr	r1, [r4, #4]
   1069c:	6051      	str	r1, [r2, #4]
   1069e:	68a1      	ldr	r1, [r4, #8]
   106a0:	6091      	str	r1, [r2, #8]
   106a2:	461d      	mov	r5, r3
   106a4:	f8da 3004 	ldr.w	r3, [sl, #4]
   106a8:	463c      	mov	r4, r7
   106aa:	4657      	mov	r7, sl
   106ac:	1baa      	subs	r2, r5, r6
   106ae:	2a0f      	cmp	r2, #15
   106b0:	f003 0301 	and.w	r3, r3, #1
   106b4:	d819      	bhi.n	106ea <_realloc_r+0x166>
   106b6:	432b      	orrs	r3, r5
   106b8:	443d      	add	r5, r7
   106ba:	607b      	str	r3, [r7, #4]
   106bc:	686b      	ldr	r3, [r5, #4]
   106be:	f043 0301 	orr.w	r3, r3, #1
   106c2:	606b      	str	r3, [r5, #4]
   106c4:	4648      	mov	r0, r9
   106c6:	f7fa ffef 	bl	b6a8 <__malloc_unlock>
   106ca:	4620      	mov	r0, r4
   106cc:	b003      	add	sp, #12
   106ce:	e8bd 8ff0 	ldmia.w	sp!, {r4, r5, r6, r7, r8, r9, sl, fp, pc}
   106d2:	f022 0203 	bic.w	r2, r2, #3
   106d6:	eb02 0c05 	add.w	ip, r2, r5
   106da:	458c      	cmp	ip, r1
   106dc:	db80      	blt.n	105e0 <_realloc_r+0x5c>
   106de:	68c2      	ldr	r2, [r0, #12]
   106e0:	6881      	ldr	r1, [r0, #8]
   106e2:	4665      	mov	r5, ip
   106e4:	60ca      	str	r2, [r1, #12]
   106e6:	6091      	str	r1, [r2, #8]
   106e8:	e7e0      	b.n	106ac <_realloc_r+0x128>
   106ea:	19b9      	adds	r1, r7, r6
   106ec:	f042 0001 	orr.w	r0, r2, #1
   106f0:	431e      	orrs	r6, r3
   106f2:	440a      	add	r2, r1
   106f4:	607e      	str	r6, [r7, #4]
   106f6:	6048      	str	r0, [r1, #4]
   106f8:	6853      	ldr	r3, [r2, #4]
   106fa:	f043 0301 	orr.w	r3, r3, #1
   106fe:	3108      	adds	r1, #8
   10700:	6053      	str	r3, [r2, #4]
   10702:	4648      	mov	r0, r9
   10704:	f7ff f892 	bl	f82c <_free_r>
   10708:	e7dc      	b.n	106c4 <_realloc_r+0x140>
   1070a:	4641      	mov	r1, r8
   1070c:	4648      	mov	r0, r9
   1070e:	f7fa fc49 	bl	afa4 <_malloc_r>
   10712:	4680      	mov	r8, r0
   10714:	b1d0      	cbz	r0, 1074c <_realloc_r+0x1c8>
   10716:	f854 3c04 	ldr.w	r3, [r4, #-4]
   1071a:	f023 0201 	bic.w	r2, r3, #1
   1071e:	443a      	add	r2, r7
   10720:	f1a0 0108 	sub.w	r1, r0, #8
   10724:	4291      	cmp	r1, r2
   10726:	f000 809e 	beq.w	10866 <_realloc_r+0x2e2>
   1072a:	1f2a      	subs	r2, r5, #4
   1072c:	2a24      	cmp	r2, #36	; 0x24
   1072e:	d850      	bhi.n	107d2 <_realloc_r+0x24e>
   10730:	2a13      	cmp	r2, #19
   10732:	d823      	bhi.n	1077c <_realloc_r+0x1f8>
   10734:	4603      	mov	r3, r0
   10736:	4622      	mov	r2, r4
   10738:	6811      	ldr	r1, [r2, #0]
   1073a:	6019      	str	r1, [r3, #0]
   1073c:	6851      	ldr	r1, [r2, #4]
   1073e:	6059      	str	r1, [r3, #4]
   10740:	6892      	ldr	r2, [r2, #8]
   10742:	609a      	str	r2, [r3, #8]
   10744:	4621      	mov	r1, r4
   10746:	4648      	mov	r0, r9
   10748:	f7ff f870 	bl	f82c <_free_r>
   1074c:	4648      	mov	r0, r9
   1074e:	f7fa ffab 	bl	b6a8 <__malloc_unlock>
   10752:	4640      	mov	r0, r8
   10754:	b003      	add	sp, #12
   10756:	e8bd 8ff0 	ldmia.w	sp!, {r4, r5, r6, r7, r8, r9, sl, fp, pc}
   1075a:	4611      	mov	r1, r2
   1075c:	b003      	add	sp, #12
   1075e:	e8bd 4ff0 	ldmia.w	sp!, {r4, r5, r6, r7, r8, r9, sl, fp, lr}
   10762:	f7fa bc1f 	b.w	afa4 <_malloc_r>
   10766:	f8de 2004 	ldr.w	r2, [lr, #4]
   1076a:	f022 0203 	bic.w	r2, r2, #3
   1076e:	1950      	adds	r0, r2, r5
   10770:	f106 0c10 	add.w	ip, r6, #16
   10774:	4560      	cmp	r0, ip
   10776:	da19      	bge.n	107ac <_realloc_r+0x228>
   10778:	4670      	mov	r0, lr
   1077a:	e731      	b.n	105e0 <_realloc_r+0x5c>
   1077c:	6823      	ldr	r3, [r4, #0]
   1077e:	6003      	str	r3, [r0, #0]
   10780:	6863      	ldr	r3, [r4, #4]
   10782:	6043      	str	r3, [r0, #4]
   10784:	2a1b      	cmp	r2, #27
   10786:	d863      	bhi.n	10850 <_realloc_r+0x2cc>
   10788:	f100 0308 	add.w	r3, r0, #8
   1078c:	f104 0208 	add.w	r2, r4, #8
   10790:	e7d2      	b.n	10738 <_realloc_r+0x1b4>
   10792:	463b      	mov	r3, r7
   10794:	6822      	ldr	r2, [r4, #0]
   10796:	601a      	str	r2, [r3, #0]
   10798:	6862      	ldr	r2, [r4, #4]
   1079a:	605a      	str	r2, [r3, #4]
   1079c:	68a2      	ldr	r2, [r4, #8]
   1079e:	609a      	str	r2, [r3, #8]
   107a0:	463c      	mov	r4, r7
   107a2:	4675      	mov	r5, lr
   107a4:	f8da 3004 	ldr.w	r3, [sl, #4]
   107a8:	4657      	mov	r7, sl
   107aa:	e77f      	b.n	106ac <_realloc_r+0x128>
   107ac:	4437      	add	r7, r6
   107ae:	1b83      	subs	r3, r0, r6
   107b0:	f043 0301 	orr.w	r3, r3, #1
   107b4:	f8cb 7008 	str.w	r7, [fp, #8]
   107b8:	607b      	str	r3, [r7, #4]
   107ba:	f854 3c04 	ldr.w	r3, [r4, #-4]
   107be:	f003 0301 	and.w	r3, r3, #1
   107c2:	431e      	orrs	r6, r3
   107c4:	4648      	mov	r0, r9
   107c6:	f844 6c04 	str.w	r6, [r4, #-4]
   107ca:	f7fa ff6d 	bl	b6a8 <__malloc_unlock>
   107ce:	4620      	mov	r0, r4
   107d0:	e77c      	b.n	106cc <_realloc_r+0x148>
   107d2:	4621      	mov	r1, r4
   107d4:	f7ff fb70 	bl	feb8 <memmove>
   107d8:	e7b4      	b.n	10744 <_realloc_r+0x1c0>
   107da:	eb02 0c03 	add.w	ip, r2, r3
   107de:	f106 0210 	add.w	r2, r6, #16
   107e2:	4594      	cmp	ip, r2
   107e4:	f6ff af3b 	blt.w	1065e <_realloc_r+0xda>
   107e8:	4657      	mov	r7, sl
   107ea:	f8da 300c 	ldr.w	r3, [sl, #12]
   107ee:	f857 1f08 	ldr.w	r1, [r7, #8]!
   107f2:	1f2a      	subs	r2, r5, #4
   107f4:	2a24      	cmp	r2, #36	; 0x24
   107f6:	60cb      	str	r3, [r1, #12]
   107f8:	6099      	str	r1, [r3, #8]
   107fa:	f200 8087 	bhi.w	1090c <_realloc_r+0x388>
   107fe:	2a13      	cmp	r2, #19
   10800:	d978      	bls.n	108f4 <_realloc_r+0x370>
   10802:	6823      	ldr	r3, [r4, #0]
   10804:	f8ca 3008 	str.w	r3, [sl, #8]
   10808:	6863      	ldr	r3, [r4, #4]
   1080a:	f8ca 300c 	str.w	r3, [sl, #12]
   1080e:	2a1b      	cmp	r2, #27
   10810:	f200 8085 	bhi.w	1091e <_realloc_r+0x39a>
   10814:	3408      	adds	r4, #8
   10816:	f10a 0310 	add.w	r3, sl, #16
   1081a:	6822      	ldr	r2, [r4, #0]
   1081c:	601a      	str	r2, [r3, #0]
   1081e:	6862      	ldr	r2, [r4, #4]
   10820:	605a      	str	r2, [r3, #4]
   10822:	68a2      	ldr	r2, [r4, #8]
   10824:	609a      	str	r2, [r3, #8]
   10826:	eb0a 0306 	add.w	r3, sl, r6
   1082a:	ebc6 020c 	rsb	r2, r6, ip
   1082e:	f042 0201 	orr.w	r2, r2, #1
   10832:	f8cb 3008 	str.w	r3, [fp, #8]
   10836:	605a      	str	r2, [r3, #4]
   10838:	f8da 3004 	ldr.w	r3, [sl, #4]
   1083c:	f003 0301 	and.w	r3, r3, #1
   10840:	431e      	orrs	r6, r3
   10842:	4648      	mov	r0, r9
   10844:	f8ca 6004 	str.w	r6, [sl, #4]
   10848:	f7fa ff2e 	bl	b6a8 <__malloc_unlock>
   1084c:	4638      	mov	r0, r7
   1084e:	e73d      	b.n	106cc <_realloc_r+0x148>
   10850:	68a3      	ldr	r3, [r4, #8]
   10852:	6083      	str	r3, [r0, #8]
   10854:	68e3      	ldr	r3, [r4, #12]
   10856:	60c3      	str	r3, [r0, #12]
   10858:	2a24      	cmp	r2, #36	; 0x24
   1085a:	d02c      	beq.n	108b6 <_realloc_r+0x332>
   1085c:	f100 0310 	add.w	r3, r0, #16
   10860:	f104 0210 	add.w	r2, r4, #16
   10864:	e768      	b.n	10738 <_realloc_r+0x1b4>
   10866:	f850 2c04 	ldr.w	r2, [r0, #-4]
   1086a:	f022 0203 	bic.w	r2, r2, #3
   1086e:	4415      	add	r5, r2
   10870:	e71c      	b.n	106ac <_realloc_r+0x128>
   10872:	4621      	mov	r1, r4
   10874:	4638      	mov	r0, r7
   10876:	4675      	mov	r5, lr
   10878:	463c      	mov	r4, r7
   1087a:	f7ff fb1d 	bl	feb8 <memmove>
   1087e:	4657      	mov	r7, sl
   10880:	f8da 3004 	ldr.w	r3, [sl, #4]
   10884:	e712      	b.n	106ac <_realloc_r+0x128>
   10886:	463a      	mov	r2, r7
   10888:	e705      	b.n	10696 <_realloc_r+0x112>
   1088a:	4621      	mov	r1, r4
   1088c:	4638      	mov	r0, r7
   1088e:	461d      	mov	r5, r3
   10890:	463c      	mov	r4, r7
   10892:	f7ff fb11 	bl	feb8 <memmove>
   10896:	4657      	mov	r7, sl
   10898:	f8da 3004 	ldr.w	r3, [sl, #4]
   1089c:	e706      	b.n	106ac <_realloc_r+0x128>
   1089e:	68a3      	ldr	r3, [r4, #8]
   108a0:	f8ca 3010 	str.w	r3, [sl, #16]
   108a4:	68e3      	ldr	r3, [r4, #12]
   108a6:	f8ca 3014 	str.w	r3, [sl, #20]
   108aa:	2a24      	cmp	r2, #36	; 0x24
   108ac:	d018      	beq.n	108e0 <_realloc_r+0x35c>
   108ae:	3410      	adds	r4, #16
   108b0:	f10a 0318 	add.w	r3, sl, #24
   108b4:	e76e      	b.n	10794 <_realloc_r+0x210>
   108b6:	6923      	ldr	r3, [r4, #16]
   108b8:	6103      	str	r3, [r0, #16]
   108ba:	6963      	ldr	r3, [r4, #20]
   108bc:	6143      	str	r3, [r0, #20]
   108be:	f104 0218 	add.w	r2, r4, #24
   108c2:	f100 0318 	add.w	r3, r0, #24
   108c6:	e737      	b.n	10738 <_realloc_r+0x1b4>
   108c8:	68a1      	ldr	r1, [r4, #8]
   108ca:	f8ca 1010 	str.w	r1, [sl, #16]
   108ce:	68e1      	ldr	r1, [r4, #12]
   108d0:	f8ca 1014 	str.w	r1, [sl, #20]
   108d4:	2a24      	cmp	r2, #36	; 0x24
   108d6:	d00f      	beq.n	108f8 <_realloc_r+0x374>
   108d8:	3410      	adds	r4, #16
   108da:	f10a 0218 	add.w	r2, sl, #24
   108de:	e6da      	b.n	10696 <_realloc_r+0x112>
   108e0:	6923      	ldr	r3, [r4, #16]
   108e2:	f8ca 3018 	str.w	r3, [sl, #24]
   108e6:	6963      	ldr	r3, [r4, #20]
   108e8:	f8ca 301c 	str.w	r3, [sl, #28]
   108ec:	3418      	adds	r4, #24
   108ee:	f10a 0320 	add.w	r3, sl, #32
   108f2:	e74f      	b.n	10794 <_realloc_r+0x210>
   108f4:	463b      	mov	r3, r7
   108f6:	e790      	b.n	1081a <_realloc_r+0x296>
   108f8:	6922      	ldr	r2, [r4, #16]
   108fa:	f8ca 2018 	str.w	r2, [sl, #24]
   108fe:	6962      	ldr	r2, [r4, #20]
   10900:	f8ca 201c 	str.w	r2, [sl, #28]
   10904:	3418      	adds	r4, #24
   10906:	f10a 0220 	add.w	r2, sl, #32
   1090a:	e6c4      	b.n	10696 <_realloc_r+0x112>
   1090c:	4621      	mov	r1, r4
   1090e:	4638      	mov	r0, r7
   10910:	f8cd c004 	str.w	ip, [sp, #4]
   10914:	f7ff fad0 	bl	feb8 <memmove>
   10918:	f8dd c004 	ldr.w	ip, [sp, #4]
   1091c:	e783      	b.n	10826 <_realloc_r+0x2a2>
   1091e:	68a3      	ldr	r3, [r4, #8]
   10920:	f8ca 3010 	str.w	r3, [sl, #16]
   10924:	68e3      	ldr	r3, [r4, #12]
   10926:	f8ca 3014 	str.w	r3, [sl, #20]
   1092a:	2a24      	cmp	r2, #36	; 0x24
   1092c:	d003      	beq.n	10936 <_realloc_r+0x3b2>
   1092e:	3410      	adds	r4, #16
   10930:	f10a 0318 	add.w	r3, sl, #24
   10934:	e771      	b.n	1081a <_realloc_r+0x296>
   10936:	6923      	ldr	r3, [r4, #16]
   10938:	f8ca 3018 	str.w	r3, [sl, #24]
   1093c:	6963      	ldr	r3, [r4, #20]
   1093e:	f8ca 301c 	str.w	r3, [sl, #28]
   10942:	3418      	adds	r4, #24
   10944:	f10a 0320 	add.w	r3, sl, #32
   10948:	e767      	b.n	1081a <_realloc_r+0x296>
   1094a:	bf00      	nop
   1094c:	2000052c 	.word	0x2000052c

00010950 <__sread>:
   10950:	b510      	push	{r4, lr}
   10952:	460c      	mov	r4, r1
   10954:	f9b1 100e 	ldrsh.w	r1, [r1, #14]
   10958:	f000 fa8e 	bl	10e78 <_read_r>
   1095c:	2800      	cmp	r0, #0
   1095e:	db03      	blt.n	10968 <__sread+0x18>
   10960:	6d23      	ldr	r3, [r4, #80]	; 0x50
   10962:	4403      	add	r3, r0
   10964:	6523      	str	r3, [r4, #80]	; 0x50
   10966:	bd10      	pop	{r4, pc}
   10968:	89a3      	ldrh	r3, [r4, #12]
   1096a:	f423 5380 	bic.w	r3, r3, #4096	; 0x1000
   1096e:	81a3      	strh	r3, [r4, #12]
   10970:	bd10      	pop	{r4, pc}
   10972:	bf00      	nop

00010974 <__swrite>:
   10974:	e92d 41f0 	stmdb	sp!, {r4, r5, r6, r7, r8, lr}
   10978:	460c      	mov	r4, r1
   1097a:	8989      	ldrh	r1, [r1, #12]
   1097c:	461d      	mov	r5, r3
   1097e:	05cb      	lsls	r3, r1, #23
   10980:	4616      	mov	r6, r2
   10982:	4607      	mov	r7, r0
   10984:	d506      	bpl.n	10994 <__swrite+0x20>
   10986:	f9b4 100e 	ldrsh.w	r1, [r4, #14]
   1098a:	2200      	movs	r2, #0
   1098c:	2302      	movs	r3, #2
   1098e:	f000 fa5f 	bl	10e50 <_lseek_r>
   10992:	89a1      	ldrh	r1, [r4, #12]
   10994:	f421 5180 	bic.w	r1, r1, #4096	; 0x1000
   10998:	81a1      	strh	r1, [r4, #12]
   1099a:	4638      	mov	r0, r7
   1099c:	f9b4 100e 	ldrsh.w	r1, [r4, #14]
   109a0:	4632      	mov	r2, r6
   109a2:	462b      	mov	r3, r5
   109a4:	e8bd 41f0 	ldmia.w	sp!, {r4, r5, r6, r7, r8, lr}
   109a8:	f000 b8dc 	b.w	10b64 <_write_r>

000109ac <__sseek>:
   109ac:	b510      	push	{r4, lr}
   109ae:	460c      	mov	r4, r1
   109b0:	f9b1 100e 	ldrsh.w	r1, [r1, #14]
   109b4:	f000 fa4c 	bl	10e50 <_lseek_r>
   109b8:	89a3      	ldrh	r3, [r4, #12]
   109ba:	1c42      	adds	r2, r0, #1
   109bc:	bf0e      	itee	eq
   109be:	f423 5380 	biceq.w	r3, r3, #4096	; 0x1000
   109c2:	f443 5380 	orrne.w	r3, r3, #4096	; 0x1000
   109c6:	6520      	strne	r0, [r4, #80]	; 0x50
   109c8:	81a3      	strh	r3, [r4, #12]
   109ca:	bd10      	pop	{r4, pc}

000109cc <__sclose>:
   109cc:	f9b1 100e 	ldrsh.w	r1, [r1, #14]
   109d0:	f000 b960 	b.w	10c94 <_close_r>

000109d4 <__ssprint_r>:
   109d4:	e92d 4ff0 	stmdb	sp!, {r4, r5, r6, r7, r8, r9, sl, fp, lr}
   109d8:	6894      	ldr	r4, [r2, #8]
   109da:	6816      	ldr	r6, [r2, #0]
   109dc:	b083      	sub	sp, #12
   109de:	4692      	mov	sl, r2
   109e0:	4680      	mov	r8, r0
   109e2:	460d      	mov	r5, r1
   109e4:	2c00      	cmp	r4, #0
   109e6:	d06f      	beq.n	10ac8 <__ssprint_r+0xf4>
   109e8:	f04f 0b00 	mov.w	fp, #0
   109ec:	6808      	ldr	r0, [r1, #0]
   109ee:	688b      	ldr	r3, [r1, #8]
   109f0:	465c      	mov	r4, fp
   109f2:	2c00      	cmp	r4, #0
   109f4:	d043      	beq.n	10a7e <__ssprint_r+0xaa>
   109f6:	429c      	cmp	r4, r3
   109f8:	461f      	mov	r7, r3
   109fa:	d345      	bcc.n	10a88 <__ssprint_r+0xb4>
   109fc:	89ab      	ldrh	r3, [r5, #12]
   109fe:	f413 6f90 	tst.w	r3, #1152	; 0x480
   10a02:	d044      	beq.n	10a8e <__ssprint_r+0xba>
   10a04:	696f      	ldr	r7, [r5, #20]
   10a06:	6929      	ldr	r1, [r5, #16]
   10a08:	eb07 0747 	add.w	r7, r7, r7, lsl #1
   10a0c:	eb07 77d7 	add.w	r7, r7, r7, lsr #31
   10a10:	ebc1 0900 	rsb	r9, r1, r0
   10a14:	1c62      	adds	r2, r4, #1
   10a16:	107f      	asrs	r7, r7, #1
   10a18:	444a      	add	r2, r9
   10a1a:	4297      	cmp	r7, r2
   10a1c:	bf34      	ite	cc
   10a1e:	4617      	movcc	r7, r2
   10a20:	463a      	movcs	r2, r7
   10a22:	055b      	lsls	r3, r3, #21
   10a24:	d535      	bpl.n	10a92 <__ssprint_r+0xbe>
   10a26:	4611      	mov	r1, r2
   10a28:	4640      	mov	r0, r8
   10a2a:	f7fa fabb 	bl	afa4 <_malloc_r>
   10a2e:	2800      	cmp	r0, #0
   10a30:	d039      	beq.n	10aa6 <__ssprint_r+0xd2>
   10a32:	6929      	ldr	r1, [r5, #16]
   10a34:	9001      	str	r0, [sp, #4]
   10a36:	464a      	mov	r2, r9
   10a38:	f7fa fd50 	bl	b4dc <memcpy>
   10a3c:	89aa      	ldrh	r2, [r5, #12]
   10a3e:	9b01      	ldr	r3, [sp, #4]
   10a40:	f422 6290 	bic.w	r2, r2, #1152	; 0x480
   10a44:	f042 0280 	orr.w	r2, r2, #128	; 0x80
   10a48:	81aa      	strh	r2, [r5, #12]
   10a4a:	ebc9 0207 	rsb	r2, r9, r7
   10a4e:	eb03 0009 	add.w	r0, r3, r9
   10a52:	616f      	str	r7, [r5, #20]
   10a54:	612b      	str	r3, [r5, #16]
   10a56:	6028      	str	r0, [r5, #0]
   10a58:	60aa      	str	r2, [r5, #8]
   10a5a:	4627      	mov	r7, r4
   10a5c:	46a1      	mov	r9, r4
   10a5e:	464a      	mov	r2, r9
   10a60:	4659      	mov	r1, fp
   10a62:	f7ff fa29 	bl	feb8 <memmove>
   10a66:	f8da 2008 	ldr.w	r2, [sl, #8]
   10a6a:	68ab      	ldr	r3, [r5, #8]
   10a6c:	6828      	ldr	r0, [r5, #0]
   10a6e:	1bdb      	subs	r3, r3, r7
   10a70:	4448      	add	r0, r9
   10a72:	1b14      	subs	r4, r2, r4
   10a74:	60ab      	str	r3, [r5, #8]
   10a76:	6028      	str	r0, [r5, #0]
   10a78:	f8ca 4008 	str.w	r4, [sl, #8]
   10a7c:	b324      	cbz	r4, 10ac8 <__ssprint_r+0xf4>
   10a7e:	f8d6 b000 	ldr.w	fp, [r6]
   10a82:	6874      	ldr	r4, [r6, #4]
   10a84:	3608      	adds	r6, #8
   10a86:	e7b4      	b.n	109f2 <__ssprint_r+0x1e>
   10a88:	4627      	mov	r7, r4
   10a8a:	46a1      	mov	r9, r4
   10a8c:	e7e7      	b.n	10a5e <__ssprint_r+0x8a>
   10a8e:	46b9      	mov	r9, r7
   10a90:	e7e5      	b.n	10a5e <__ssprint_r+0x8a>
   10a92:	4640      	mov	r0, r8
   10a94:	f7ff fd76 	bl	10584 <_realloc_r>
   10a98:	4603      	mov	r3, r0
   10a9a:	2800      	cmp	r0, #0
   10a9c:	d1d5      	bne.n	10a4a <__ssprint_r+0x76>
   10a9e:	4640      	mov	r0, r8
   10aa0:	6929      	ldr	r1, [r5, #16]
   10aa2:	f7fe fec3 	bl	f82c <_free_r>
   10aa6:	89aa      	ldrh	r2, [r5, #12]
   10aa8:	230c      	movs	r3, #12
   10aaa:	f8c8 3000 	str.w	r3, [r8]
   10aae:	f042 0240 	orr.w	r2, r2, #64	; 0x40
   10ab2:	2300      	movs	r3, #0
   10ab4:	f04f 30ff 	mov.w	r0, #4294967295	; 0xffffffff
   10ab8:	81aa      	strh	r2, [r5, #12]
   10aba:	f8ca 3008 	str.w	r3, [sl, #8]
   10abe:	f8ca 3004 	str.w	r3, [sl, #4]
   10ac2:	b003      	add	sp, #12
   10ac4:	e8bd 8ff0 	ldmia.w	sp!, {r4, r5, r6, r7, r8, r9, sl, fp, pc}
   10ac8:	4620      	mov	r0, r4
   10aca:	f8ca 4004 	str.w	r4, [sl, #4]
   10ace:	b003      	add	sp, #12
   10ad0:	e8bd 8ff0 	ldmia.w	sp!, {r4, r5, r6, r7, r8, r9, sl, fp, pc}

00010ad4 <__sprint_r.part.0>:
   10ad4:	6e4b      	ldr	r3, [r1, #100]	; 0x64
   10ad6:	e92d 47f0 	stmdb	sp!, {r4, r5, r6, r7, r8, r9, sl, lr}
   10ada:	049c      	lsls	r4, r3, #18
   10adc:	460e      	mov	r6, r1
   10ade:	4680      	mov	r8, r0
   10ae0:	4691      	mov	r9, r2
   10ae2:	d52a      	bpl.n	10b3a <__sprint_r.part.0+0x66>
   10ae4:	6893      	ldr	r3, [r2, #8]
   10ae6:	6812      	ldr	r2, [r2, #0]
   10ae8:	f102 0a08 	add.w	sl, r2, #8
   10aec:	b31b      	cbz	r3, 10b36 <__sprint_r.part.0+0x62>
   10aee:	e91a 00a0 	ldmdb	sl, {r5, r7}
   10af2:	08bf      	lsrs	r7, r7, #2
   10af4:	d017      	beq.n	10b26 <__sprint_r.part.0+0x52>
   10af6:	3d04      	subs	r5, #4
   10af8:	2400      	movs	r4, #0
   10afa:	e001      	b.n	10b00 <__sprint_r.part.0+0x2c>
   10afc:	42a7      	cmp	r7, r4
   10afe:	d010      	beq.n	10b22 <__sprint_r.part.0+0x4e>
   10b00:	4640      	mov	r0, r8
   10b02:	f855 1f04 	ldr.w	r1, [r5, #4]!
   10b06:	4632      	mov	r2, r6
   10b08:	f000 f91e 	bl	10d48 <_fputwc_r>
   10b0c:	1c43      	adds	r3, r0, #1
   10b0e:	f104 0401 	add.w	r4, r4, #1
   10b12:	d1f3      	bne.n	10afc <__sprint_r.part.0+0x28>
   10b14:	2300      	movs	r3, #0
   10b16:	f8c9 3008 	str.w	r3, [r9, #8]
   10b1a:	f8c9 3004 	str.w	r3, [r9, #4]
   10b1e:	e8bd 87f0 	ldmia.w	sp!, {r4, r5, r6, r7, r8, r9, sl, pc}
   10b22:	f8d9 3008 	ldr.w	r3, [r9, #8]
   10b26:	eba3 0387 	sub.w	r3, r3, r7, lsl #2
   10b2a:	f8c9 3008 	str.w	r3, [r9, #8]
   10b2e:	f10a 0a08 	add.w	sl, sl, #8
   10b32:	2b00      	cmp	r3, #0
   10b34:	d1db      	bne.n	10aee <__sprint_r.part.0+0x1a>
   10b36:	2000      	movs	r0, #0
   10b38:	e7ec      	b.n	10b14 <__sprint_r.part.0+0x40>
   10b3a:	f7fe ff45 	bl	f9c8 <__sfvwrite_r>
   10b3e:	2300      	movs	r3, #0
   10b40:	f8c9 3008 	str.w	r3, [r9, #8]
   10b44:	f8c9 3004 	str.w	r3, [r9, #4]
   10b48:	e8bd 87f0 	ldmia.w	sp!, {r4, r5, r6, r7, r8, r9, sl, pc}

00010b4c <__sprint_r>:
   10b4c:	6893      	ldr	r3, [r2, #8]
   10b4e:	b410      	push	{r4}
   10b50:	b11b      	cbz	r3, 10b5a <__sprint_r+0xe>
   10b52:	f85d 4b04 	ldr.w	r4, [sp], #4
   10b56:	f7ff bfbd 	b.w	10ad4 <__sprint_r.part.0>
   10b5a:	4618      	mov	r0, r3
   10b5c:	6053      	str	r3, [r2, #4]
   10b5e:	f85d 4b04 	ldr.w	r4, [sp], #4
   10b62:	4770      	bx	lr

00010b64 <_write_r>:
   10b64:	b570      	push	{r4, r5, r6, lr}
   10b66:	4c08      	ldr	r4, [pc, #32]	; (10b88 <_write_r+0x24>)
   10b68:	4606      	mov	r6, r0
   10b6a:	2500      	movs	r5, #0
   10b6c:	4608      	mov	r0, r1
   10b6e:	4611      	mov	r1, r2
   10b70:	461a      	mov	r2, r3
   10b72:	6025      	str	r5, [r4, #0]
   10b74:	f7f9 f880 	bl	9c78 <_write>
   10b78:	1c43      	adds	r3, r0, #1
   10b7a:	d000      	beq.n	10b7e <_write_r+0x1a>
   10b7c:	bd70      	pop	{r4, r5, r6, pc}
   10b7e:	6823      	ldr	r3, [r4, #0]
   10b80:	2b00      	cmp	r3, #0
   10b82:	d0fb      	beq.n	10b7c <_write_r+0x18>
   10b84:	6033      	str	r3, [r6, #0]
   10b86:	bd70      	pop	{r4, r5, r6, pc}
   10b88:	20000eb0 	.word	0x20000eb0

00010b8c <__register_exitproc>:
   10b8c:	b5f0      	push	{r4, r5, r6, r7, lr}
   10b8e:	4c27      	ldr	r4, [pc, #156]	; (10c2c <__register_exitproc+0xa0>)
   10b90:	6826      	ldr	r6, [r4, #0]
   10b92:	f8d6 4148 	ldr.w	r4, [r6, #328]	; 0x148
   10b96:	b085      	sub	sp, #20
   10b98:	4607      	mov	r7, r0
   10b9a:	2c00      	cmp	r4, #0
   10b9c:	d041      	beq.n	10c22 <__register_exitproc+0x96>
   10b9e:	6865      	ldr	r5, [r4, #4]
   10ba0:	2d1f      	cmp	r5, #31
   10ba2:	dd1e      	ble.n	10be2 <__register_exitproc+0x56>
   10ba4:	4822      	ldr	r0, [pc, #136]	; (10c30 <__register_exitproc+0xa4>)
   10ba6:	b918      	cbnz	r0, 10bb0 <__register_exitproc+0x24>
   10ba8:	f04f 30ff 	mov.w	r0, #4294967295	; 0xffffffff
   10bac:	b005      	add	sp, #20
   10bae:	bdf0      	pop	{r4, r5, r6, r7, pc}
   10bb0:	f44f 70c8 	mov.w	r0, #400	; 0x190
   10bb4:	9103      	str	r1, [sp, #12]
   10bb6:	9202      	str	r2, [sp, #8]
   10bb8:	9301      	str	r3, [sp, #4]
   10bba:	f7fa f9e3 	bl	af84 <malloc>
   10bbe:	9903      	ldr	r1, [sp, #12]
   10bc0:	9a02      	ldr	r2, [sp, #8]
   10bc2:	9b01      	ldr	r3, [sp, #4]
   10bc4:	4604      	mov	r4, r0
   10bc6:	2800      	cmp	r0, #0
   10bc8:	d0ee      	beq.n	10ba8 <__register_exitproc+0x1c>
   10bca:	f8d6 5148 	ldr.w	r5, [r6, #328]	; 0x148
   10bce:	6025      	str	r5, [r4, #0]
   10bd0:	2000      	movs	r0, #0
   10bd2:	6060      	str	r0, [r4, #4]
   10bd4:	4605      	mov	r5, r0
   10bd6:	f8c6 4148 	str.w	r4, [r6, #328]	; 0x148
   10bda:	f8c4 0188 	str.w	r0, [r4, #392]	; 0x188
   10bde:	f8c4 018c 	str.w	r0, [r4, #396]	; 0x18c
   10be2:	b93f      	cbnz	r7, 10bf4 <__register_exitproc+0x68>
   10be4:	1cab      	adds	r3, r5, #2
   10be6:	2000      	movs	r0, #0
   10be8:	3501      	adds	r5, #1
   10bea:	6065      	str	r5, [r4, #4]
   10bec:	f844 1023 	str.w	r1, [r4, r3, lsl #2]
   10bf0:	b005      	add	sp, #20
   10bf2:	bdf0      	pop	{r4, r5, r6, r7, pc}
   10bf4:	eb04 0085 	add.w	r0, r4, r5, lsl #2
   10bf8:	f04f 0c01 	mov.w	ip, #1
   10bfc:	f8c0 2088 	str.w	r2, [r0, #136]	; 0x88
   10c00:	f8d4 6188 	ldr.w	r6, [r4, #392]	; 0x188
   10c04:	fa0c f205 	lsl.w	r2, ip, r5
   10c08:	4316      	orrs	r6, r2
   10c0a:	2f02      	cmp	r7, #2
   10c0c:	f8c4 6188 	str.w	r6, [r4, #392]	; 0x188
   10c10:	f8c0 3108 	str.w	r3, [r0, #264]	; 0x108
   10c14:	d1e6      	bne.n	10be4 <__register_exitproc+0x58>
   10c16:	f8d4 318c 	ldr.w	r3, [r4, #396]	; 0x18c
   10c1a:	431a      	orrs	r2, r3
   10c1c:	f8c4 218c 	str.w	r2, [r4, #396]	; 0x18c
   10c20:	e7e0      	b.n	10be4 <__register_exitproc+0x58>
   10c22:	f506 74a6 	add.w	r4, r6, #332	; 0x14c
   10c26:	f8c6 4148 	str.w	r4, [r6, #328]	; 0x148
   10c2a:	e7b8      	b.n	10b9e <__register_exitproc+0x12>
   10c2c:	00011740 	.word	0x00011740
   10c30:	0000af85 	.word	0x0000af85

00010c34 <_calloc_r>:
   10c34:	b510      	push	{r4, lr}
   10c36:	fb02 f101 	mul.w	r1, r2, r1
   10c3a:	f7fa f9b3 	bl	afa4 <_malloc_r>
   10c3e:	4604      	mov	r4, r0
   10c40:	b168      	cbz	r0, 10c5e <_calloc_r+0x2a>
   10c42:	f850 2c04 	ldr.w	r2, [r0, #-4]
   10c46:	f022 0203 	bic.w	r2, r2, #3
   10c4a:	3a04      	subs	r2, #4
   10c4c:	2a24      	cmp	r2, #36	; 0x24
   10c4e:	d818      	bhi.n	10c82 <_calloc_r+0x4e>
   10c50:	2a13      	cmp	r2, #19
   10c52:	d806      	bhi.n	10c62 <_calloc_r+0x2e>
   10c54:	4603      	mov	r3, r0
   10c56:	2200      	movs	r2, #0
   10c58:	601a      	str	r2, [r3, #0]
   10c5a:	605a      	str	r2, [r3, #4]
   10c5c:	609a      	str	r2, [r3, #8]
   10c5e:	4620      	mov	r0, r4
   10c60:	bd10      	pop	{r4, pc}
   10c62:	2300      	movs	r3, #0
   10c64:	2a1b      	cmp	r2, #27
   10c66:	6003      	str	r3, [r0, #0]
   10c68:	6043      	str	r3, [r0, #4]
   10c6a:	d90f      	bls.n	10c8c <_calloc_r+0x58>
   10c6c:	2a24      	cmp	r2, #36	; 0x24
   10c6e:	6083      	str	r3, [r0, #8]
   10c70:	60c3      	str	r3, [r0, #12]
   10c72:	bf05      	ittet	eq
   10c74:	6103      	streq	r3, [r0, #16]
   10c76:	6143      	streq	r3, [r0, #20]
   10c78:	f100 0310 	addne.w	r3, r0, #16
   10c7c:	f100 0318 	addeq.w	r3, r0, #24
   10c80:	e7e9      	b.n	10c56 <_calloc_r+0x22>
   10c82:	2100      	movs	r1, #0
   10c84:	f7fa fcc4 	bl	b610 <memset>
   10c88:	4620      	mov	r0, r4
   10c8a:	bd10      	pop	{r4, pc}
   10c8c:	f100 0308 	add.w	r3, r0, #8
   10c90:	e7e1      	b.n	10c56 <_calloc_r+0x22>
   10c92:	bf00      	nop

00010c94 <_close_r>:
   10c94:	b538      	push	{r3, r4, r5, lr}
   10c96:	4c07      	ldr	r4, [pc, #28]	; (10cb4 <_close_r+0x20>)
   10c98:	2300      	movs	r3, #0
   10c9a:	4605      	mov	r5, r0
   10c9c:	4608      	mov	r0, r1
   10c9e:	6023      	str	r3, [r4, #0]
   10ca0:	f7f4 f870 	bl	4d84 <_close>
   10ca4:	1c43      	adds	r3, r0, #1
   10ca6:	d000      	beq.n	10caa <_close_r+0x16>
   10ca8:	bd38      	pop	{r3, r4, r5, pc}
   10caa:	6823      	ldr	r3, [r4, #0]
   10cac:	2b00      	cmp	r3, #0
   10cae:	d0fb      	beq.n	10ca8 <_close_r+0x14>
   10cb0:	602b      	str	r3, [r5, #0]
   10cb2:	bd38      	pop	{r3, r4, r5, pc}
   10cb4:	20000eb0 	.word	0x20000eb0

00010cb8 <_fclose_r>:
   10cb8:	b570      	push	{r4, r5, r6, lr}
   10cba:	460c      	mov	r4, r1
   10cbc:	4605      	mov	r5, r0
   10cbe:	b131      	cbz	r1, 10cce <_fclose_r+0x16>
   10cc0:	b110      	cbz	r0, 10cc8 <_fclose_r+0x10>
   10cc2:	6b83      	ldr	r3, [r0, #56]	; 0x38
   10cc4:	2b00      	cmp	r3, #0
   10cc6:	d02f      	beq.n	10d28 <_fclose_r+0x70>
   10cc8:	f9b4 300c 	ldrsh.w	r3, [r4, #12]
   10ccc:	b90b      	cbnz	r3, 10cd2 <_fclose_r+0x1a>
   10cce:	2000      	movs	r0, #0
   10cd0:	bd70      	pop	{r4, r5, r6, pc}
   10cd2:	4628      	mov	r0, r5
   10cd4:	4621      	mov	r1, r4
   10cd6:	f7fe fca9 	bl	f62c <_fflush_r>
   10cda:	6ae3      	ldr	r3, [r4, #44]	; 0x2c
   10cdc:	4606      	mov	r6, r0
   10cde:	b133      	cbz	r3, 10cee <_fclose_r+0x36>
   10ce0:	4628      	mov	r0, r5
   10ce2:	69e1      	ldr	r1, [r4, #28]
   10ce4:	4798      	blx	r3
   10ce6:	2800      	cmp	r0, #0
   10ce8:	bfb8      	it	lt
   10cea:	f04f 36ff 	movlt.w	r6, #4294967295	; 0xffffffff
   10cee:	89a3      	ldrh	r3, [r4, #12]
   10cf0:	061b      	lsls	r3, r3, #24
   10cf2:	d41c      	bmi.n	10d2e <_fclose_r+0x76>
   10cf4:	6b21      	ldr	r1, [r4, #48]	; 0x30
   10cf6:	b141      	cbz	r1, 10d0a <_fclose_r+0x52>
   10cf8:	f104 0340 	add.w	r3, r4, #64	; 0x40
   10cfc:	4299      	cmp	r1, r3
   10cfe:	d002      	beq.n	10d06 <_fclose_r+0x4e>
   10d00:	4628      	mov	r0, r5
   10d02:	f7fe fd93 	bl	f82c <_free_r>
   10d06:	2300      	movs	r3, #0
   10d08:	6323      	str	r3, [r4, #48]	; 0x30
   10d0a:	6c61      	ldr	r1, [r4, #68]	; 0x44
   10d0c:	b121      	cbz	r1, 10d18 <_fclose_r+0x60>
   10d0e:	4628      	mov	r0, r5
   10d10:	f7fe fd8c 	bl	f82c <_free_r>
   10d14:	2300      	movs	r3, #0
   10d16:	6463      	str	r3, [r4, #68]	; 0x44
   10d18:	f7fe fd1e 	bl	f758 <__sfp_lock_acquire>
   10d1c:	2300      	movs	r3, #0
   10d1e:	81a3      	strh	r3, [r4, #12]
   10d20:	f7fe fd1c 	bl	f75c <__sfp_lock_release>
   10d24:	4630      	mov	r0, r6
   10d26:	bd70      	pop	{r4, r5, r6, pc}
   10d28:	f7fe fc9c 	bl	f664 <__sinit>
   10d2c:	e7cc      	b.n	10cc8 <_fclose_r+0x10>
   10d2e:	4628      	mov	r0, r5
   10d30:	6921      	ldr	r1, [r4, #16]
   10d32:	f7fe fd7b 	bl	f82c <_free_r>
   10d36:	e7dd      	b.n	10cf4 <_fclose_r+0x3c>

00010d38 <fclose>:
   10d38:	4b02      	ldr	r3, [pc, #8]	; (10d44 <fclose+0xc>)
   10d3a:	4601      	mov	r1, r0
   10d3c:	6818      	ldr	r0, [r3, #0]
   10d3e:	f7ff bfbb 	b.w	10cb8 <_fclose_r>
   10d42:	bf00      	nop
   10d44:	20000528 	.word	0x20000528

00010d48 <_fputwc_r>:
   10d48:	e92d 41f0 	stmdb	sp!, {r4, r5, r6, r7, r8, lr}
   10d4c:	8993      	ldrh	r3, [r2, #12]
   10d4e:	460f      	mov	r7, r1
   10d50:	0499      	lsls	r1, r3, #18
   10d52:	b082      	sub	sp, #8
   10d54:	4614      	mov	r4, r2
   10d56:	4680      	mov	r8, r0
   10d58:	d406      	bmi.n	10d68 <_fputwc_r+0x20>
   10d5a:	6e52      	ldr	r2, [r2, #100]	; 0x64
   10d5c:	f443 5300 	orr.w	r3, r3, #8192	; 0x2000
   10d60:	f442 5200 	orr.w	r2, r2, #8192	; 0x2000
   10d64:	81a3      	strh	r3, [r4, #12]
   10d66:	6662      	str	r2, [r4, #100]	; 0x64
   10d68:	f7fe ffe4 	bl	fd34 <__locale_mb_cur_max>
   10d6c:	2801      	cmp	r0, #1
   10d6e:	d03d      	beq.n	10dec <_fputwc_r+0xa4>
   10d70:	463a      	mov	r2, r7
   10d72:	4640      	mov	r0, r8
   10d74:	a901      	add	r1, sp, #4
   10d76:	f104 035c 	add.w	r3, r4, #92	; 0x5c
   10d7a:	f000 f8e5 	bl	10f48 <_wcrtomb_r>
   10d7e:	1c42      	adds	r2, r0, #1
   10d80:	4606      	mov	r6, r0
   10d82:	d02c      	beq.n	10dde <_fputwc_r+0x96>
   10d84:	2800      	cmp	r0, #0
   10d86:	d039      	beq.n	10dfc <_fputwc_r+0xb4>
   10d88:	f89d 1004 	ldrb.w	r1, [sp, #4]
   10d8c:	2500      	movs	r5, #0
   10d8e:	e009      	b.n	10da4 <_fputwc_r+0x5c>
   10d90:	6823      	ldr	r3, [r4, #0]
   10d92:	7019      	strb	r1, [r3, #0]
   10d94:	6823      	ldr	r3, [r4, #0]
   10d96:	3301      	adds	r3, #1
   10d98:	6023      	str	r3, [r4, #0]
   10d9a:	3501      	adds	r5, #1
   10d9c:	42b5      	cmp	r5, r6
   10d9e:	d22d      	bcs.n	10dfc <_fputwc_r+0xb4>
   10da0:	ab01      	add	r3, sp, #4
   10da2:	5ce9      	ldrb	r1, [r5, r3]
   10da4:	68a3      	ldr	r3, [r4, #8]
   10da6:	3b01      	subs	r3, #1
   10da8:	2b00      	cmp	r3, #0
   10daa:	60a3      	str	r3, [r4, #8]
   10dac:	daf0      	bge.n	10d90 <_fputwc_r+0x48>
   10dae:	69a2      	ldr	r2, [r4, #24]
   10db0:	4293      	cmp	r3, r2
   10db2:	db05      	blt.n	10dc0 <_fputwc_r+0x78>
   10db4:	6823      	ldr	r3, [r4, #0]
   10db6:	7019      	strb	r1, [r3, #0]
   10db8:	6823      	ldr	r3, [r4, #0]
   10dba:	7819      	ldrb	r1, [r3, #0]
   10dbc:	290a      	cmp	r1, #10
   10dbe:	d1ea      	bne.n	10d96 <_fputwc_r+0x4e>
   10dc0:	4640      	mov	r0, r8
   10dc2:	4622      	mov	r2, r4
   10dc4:	f000 f86c 	bl	10ea0 <__swbuf_r>
   10dc8:	f1b0 33ff 	subs.w	r3, r0, #4294967295	; 0xffffffff
   10dcc:	4258      	negs	r0, r3
   10dce:	4158      	adcs	r0, r3
   10dd0:	2800      	cmp	r0, #0
   10dd2:	d0e2      	beq.n	10d9a <_fputwc_r+0x52>
   10dd4:	f04f 30ff 	mov.w	r0, #4294967295	; 0xffffffff
   10dd8:	b002      	add	sp, #8
   10dda:	e8bd 81f0 	ldmia.w	sp!, {r4, r5, r6, r7, r8, pc}
   10dde:	89a3      	ldrh	r3, [r4, #12]
   10de0:	f043 0340 	orr.w	r3, r3, #64	; 0x40
   10de4:	81a3      	strh	r3, [r4, #12]
   10de6:	b002      	add	sp, #8
   10de8:	e8bd 81f0 	ldmia.w	sp!, {r4, r5, r6, r7, r8, pc}
   10dec:	1e7b      	subs	r3, r7, #1
   10dee:	2bfe      	cmp	r3, #254	; 0xfe
   10df0:	d8be      	bhi.n	10d70 <_fputwc_r+0x28>
   10df2:	b2f9      	uxtb	r1, r7
   10df4:	4606      	mov	r6, r0
   10df6:	f88d 1004 	strb.w	r1, [sp, #4]
   10dfa:	e7c7      	b.n	10d8c <_fputwc_r+0x44>
   10dfc:	4638      	mov	r0, r7
   10dfe:	b002      	add	sp, #8
   10e00:	e8bd 81f0 	ldmia.w	sp!, {r4, r5, r6, r7, r8, pc}

00010e04 <_fstat_r>:
   10e04:	b538      	push	{r3, r4, r5, lr}
   10e06:	4c08      	ldr	r4, [pc, #32]	; (10e28 <_fstat_r+0x24>)
   10e08:	2300      	movs	r3, #0
   10e0a:	4605      	mov	r5, r0
   10e0c:	4608      	mov	r0, r1
   10e0e:	4611      	mov	r1, r2
   10e10:	6023      	str	r3, [r4, #0]
   10e12:	f7f3 ffbb 	bl	4d8c <_fstat>
   10e16:	1c43      	adds	r3, r0, #1
   10e18:	d000      	beq.n	10e1c <_fstat_r+0x18>
   10e1a:	bd38      	pop	{r3, r4, r5, pc}
   10e1c:	6823      	ldr	r3, [r4, #0]
   10e1e:	2b00      	cmp	r3, #0
   10e20:	d0fb      	beq.n	10e1a <_fstat_r+0x16>
   10e22:	602b      	str	r3, [r5, #0]
   10e24:	bd38      	pop	{r3, r4, r5, pc}
   10e26:	bf00      	nop
   10e28:	20000eb0 	.word	0x20000eb0

00010e2c <_isatty_r>:
   10e2c:	b538      	push	{r3, r4, r5, lr}
   10e2e:	4c07      	ldr	r4, [pc, #28]	; (10e4c <_isatty_r+0x20>)
   10e30:	2300      	movs	r3, #0
   10e32:	4605      	mov	r5, r0
   10e34:	4608      	mov	r0, r1
   10e36:	6023      	str	r3, [r4, #0]
   10e38:	f7f3 ffae 	bl	4d98 <_isatty>
   10e3c:	1c43      	adds	r3, r0, #1
   10e3e:	d000      	beq.n	10e42 <_isatty_r+0x16>
   10e40:	bd38      	pop	{r3, r4, r5, pc}
   10e42:	6823      	ldr	r3, [r4, #0]
   10e44:	2b00      	cmp	r3, #0
   10e46:	d0fb      	beq.n	10e40 <_isatty_r+0x14>
   10e48:	602b      	str	r3, [r5, #0]
   10e4a:	bd38      	pop	{r3, r4, r5, pc}
   10e4c:	20000eb0 	.word	0x20000eb0

00010e50 <_lseek_r>:
   10e50:	b570      	push	{r4, r5, r6, lr}
   10e52:	4c08      	ldr	r4, [pc, #32]	; (10e74 <_lseek_r+0x24>)
   10e54:	4606      	mov	r6, r0
   10e56:	2500      	movs	r5, #0
   10e58:	4608      	mov	r0, r1
   10e5a:	4611      	mov	r1, r2
   10e5c:	461a      	mov	r2, r3
   10e5e:	6025      	str	r5, [r4, #0]
   10e60:	f7f3 ff9c 	bl	4d9c <_lseek>
   10e64:	1c43      	adds	r3, r0, #1
   10e66:	d000      	beq.n	10e6a <_lseek_r+0x1a>
   10e68:	bd70      	pop	{r4, r5, r6, pc}
   10e6a:	6823      	ldr	r3, [r4, #0]
   10e6c:	2b00      	cmp	r3, #0
   10e6e:	d0fb      	beq.n	10e68 <_lseek_r+0x18>
   10e70:	6033      	str	r3, [r6, #0]
   10e72:	bd70      	pop	{r4, r5, r6, pc}
   10e74:	20000eb0 	.word	0x20000eb0

00010e78 <_read_r>:
   10e78:	b570      	push	{r4, r5, r6, lr}
   10e7a:	4c08      	ldr	r4, [pc, #32]	; (10e9c <_read_r+0x24>)
   10e7c:	4606      	mov	r6, r0
   10e7e:	2500      	movs	r5, #0
   10e80:	4608      	mov	r0, r1
   10e82:	4611      	mov	r1, r2
   10e84:	461a      	mov	r2, r3
   10e86:	6025      	str	r5, [r4, #0]
   10e88:	f7f8 ff4e 	bl	9d28 <_read>
   10e8c:	1c43      	adds	r3, r0, #1
   10e8e:	d000      	beq.n	10e92 <_read_r+0x1a>
   10e90:	bd70      	pop	{r4, r5, r6, pc}
   10e92:	6823      	ldr	r3, [r4, #0]
   10e94:	2b00      	cmp	r3, #0
   10e96:	d0fb      	beq.n	10e90 <_read_r+0x18>
   10e98:	6033      	str	r3, [r6, #0]
   10e9a:	bd70      	pop	{r4, r5, r6, pc}
   10e9c:	20000eb0 	.word	0x20000eb0

00010ea0 <__swbuf_r>:
   10ea0:	b5f8      	push	{r3, r4, r5, r6, r7, lr}
   10ea2:	460d      	mov	r5, r1
   10ea4:	4614      	mov	r4, r2
   10ea6:	4607      	mov	r7, r0
   10ea8:	b110      	cbz	r0, 10eb0 <__swbuf_r+0x10>
   10eaa:	6b83      	ldr	r3, [r0, #56]	; 0x38
   10eac:	2b00      	cmp	r3, #0
   10eae:	d048      	beq.n	10f42 <__swbuf_r+0xa2>
   10eb0:	89a2      	ldrh	r2, [r4, #12]
   10eb2:	69a3      	ldr	r3, [r4, #24]
   10eb4:	60a3      	str	r3, [r4, #8]
   10eb6:	b293      	uxth	r3, r2
   10eb8:	0718      	lsls	r0, r3, #28
   10eba:	d538      	bpl.n	10f2e <__swbuf_r+0x8e>
   10ebc:	6926      	ldr	r6, [r4, #16]
   10ebe:	2e00      	cmp	r6, #0
   10ec0:	d035      	beq.n	10f2e <__swbuf_r+0x8e>
   10ec2:	0499      	lsls	r1, r3, #18
   10ec4:	b2ed      	uxtb	r5, r5
   10ec6:	d515      	bpl.n	10ef4 <__swbuf_r+0x54>
   10ec8:	6823      	ldr	r3, [r4, #0]
   10eca:	6962      	ldr	r2, [r4, #20]
   10ecc:	1b9e      	subs	r6, r3, r6
   10ece:	4296      	cmp	r6, r2
   10ed0:	da1c      	bge.n	10f0c <__swbuf_r+0x6c>
   10ed2:	3601      	adds	r6, #1
   10ed4:	68a2      	ldr	r2, [r4, #8]
   10ed6:	1c59      	adds	r1, r3, #1
   10ed8:	3a01      	subs	r2, #1
   10eda:	60a2      	str	r2, [r4, #8]
   10edc:	6021      	str	r1, [r4, #0]
   10ede:	701d      	strb	r5, [r3, #0]
   10ee0:	6963      	ldr	r3, [r4, #20]
   10ee2:	42b3      	cmp	r3, r6
   10ee4:	d01a      	beq.n	10f1c <__swbuf_r+0x7c>
   10ee6:	89a3      	ldrh	r3, [r4, #12]
   10ee8:	07db      	lsls	r3, r3, #31
   10eea:	d501      	bpl.n	10ef0 <__swbuf_r+0x50>
   10eec:	2d0a      	cmp	r5, #10
   10eee:	d015      	beq.n	10f1c <__swbuf_r+0x7c>
   10ef0:	4628      	mov	r0, r5
   10ef2:	bdf8      	pop	{r3, r4, r5, r6, r7, pc}
   10ef4:	6e63      	ldr	r3, [r4, #100]	; 0x64
   10ef6:	f423 5300 	bic.w	r3, r3, #8192	; 0x2000
   10efa:	f442 5200 	orr.w	r2, r2, #8192	; 0x2000
   10efe:	6663      	str	r3, [r4, #100]	; 0x64
   10f00:	6823      	ldr	r3, [r4, #0]
   10f02:	81a2      	strh	r2, [r4, #12]
   10f04:	6962      	ldr	r2, [r4, #20]
   10f06:	1b9e      	subs	r6, r3, r6
   10f08:	4296      	cmp	r6, r2
   10f0a:	dbe2      	blt.n	10ed2 <__swbuf_r+0x32>
   10f0c:	4638      	mov	r0, r7
   10f0e:	4621      	mov	r1, r4
   10f10:	f7fe fb8c 	bl	f62c <_fflush_r>
   10f14:	b940      	cbnz	r0, 10f28 <__swbuf_r+0x88>
   10f16:	6823      	ldr	r3, [r4, #0]
   10f18:	2601      	movs	r6, #1
   10f1a:	e7db      	b.n	10ed4 <__swbuf_r+0x34>
   10f1c:	4638      	mov	r0, r7
   10f1e:	4621      	mov	r1, r4
   10f20:	f7fe fb84 	bl	f62c <_fflush_r>
   10f24:	2800      	cmp	r0, #0
   10f26:	d0e3      	beq.n	10ef0 <__swbuf_r+0x50>
   10f28:	f04f 30ff 	mov.w	r0, #4294967295	; 0xffffffff
   10f2c:	bdf8      	pop	{r3, r4, r5, r6, r7, pc}
   10f2e:	4638      	mov	r0, r7
   10f30:	4621      	mov	r1, r4
   10f32:	f7fd fa99 	bl	e468 <__swsetup_r>
   10f36:	2800      	cmp	r0, #0
   10f38:	d1f6      	bne.n	10f28 <__swbuf_r+0x88>
   10f3a:	89a2      	ldrh	r2, [r4, #12]
   10f3c:	6926      	ldr	r6, [r4, #16]
   10f3e:	b293      	uxth	r3, r2
   10f40:	e7bf      	b.n	10ec2 <__swbuf_r+0x22>
   10f42:	f7fe fb8f 	bl	f664 <__sinit>
   10f46:	e7b3      	b.n	10eb0 <__swbuf_r+0x10>

00010f48 <_wcrtomb_r>:
   10f48:	e92d 41f0 	stmdb	sp!, {r4, r5, r6, r7, r8, lr}
   10f4c:	461e      	mov	r6, r3
   10f4e:	b086      	sub	sp, #24
   10f50:	460c      	mov	r4, r1
   10f52:	4605      	mov	r5, r0
   10f54:	4617      	mov	r7, r2
   10f56:	4b0f      	ldr	r3, [pc, #60]	; (10f94 <_wcrtomb_r+0x4c>)
   10f58:	b191      	cbz	r1, 10f80 <_wcrtomb_r+0x38>
   10f5a:	f8d3 8000 	ldr.w	r8, [r3]
   10f5e:	f7fe fee5 	bl	fd2c <__locale_charset>
   10f62:	9600      	str	r6, [sp, #0]
   10f64:	4603      	mov	r3, r0
   10f66:	4621      	mov	r1, r4
   10f68:	463a      	mov	r2, r7
   10f6a:	4628      	mov	r0, r5
   10f6c:	47c0      	blx	r8
   10f6e:	1c43      	adds	r3, r0, #1
   10f70:	d103      	bne.n	10f7a <_wcrtomb_r+0x32>
   10f72:	2200      	movs	r2, #0
   10f74:	238a      	movs	r3, #138	; 0x8a
   10f76:	6032      	str	r2, [r6, #0]
   10f78:	602b      	str	r3, [r5, #0]
   10f7a:	b006      	add	sp, #24
   10f7c:	e8bd 81f0 	ldmia.w	sp!, {r4, r5, r6, r7, r8, pc}
   10f80:	681f      	ldr	r7, [r3, #0]
   10f82:	f7fe fed3 	bl	fd2c <__locale_charset>
   10f86:	9600      	str	r6, [sp, #0]
   10f88:	4603      	mov	r3, r0
   10f8a:	4622      	mov	r2, r4
   10f8c:	4628      	mov	r0, r5
   10f8e:	a903      	add	r1, sp, #12
   10f90:	47b8      	blx	r7
   10f92:	e7ec      	b.n	10f6e <_wcrtomb_r+0x26>
   10f94:	20000998 	.word	0x20000998

00010f98 <__ascii_wctomb>:
   10f98:	b121      	cbz	r1, 10fa4 <__ascii_wctomb+0xc>
   10f9a:	2aff      	cmp	r2, #255	; 0xff
   10f9c:	d804      	bhi.n	10fa8 <__ascii_wctomb+0x10>
   10f9e:	700a      	strb	r2, [r1, #0]
   10fa0:	2001      	movs	r0, #1
   10fa2:	4770      	bx	lr
   10fa4:	4608      	mov	r0, r1
   10fa6:	4770      	bx	lr
   10fa8:	238a      	movs	r3, #138	; 0x8a
   10faa:	6003      	str	r3, [r0, #0]
   10fac:	f04f 30ff 	mov.w	r0, #4294967295	; 0xffffffff
   10fb0:	4770      	bx	lr
   10fb2:	bf00      	nop

00010fb4 <__aeabi_d2iz>:
   10fb4:	ea4f 0241 	mov.w	r2, r1, lsl #1
   10fb8:	f512 1200 	adds.w	r2, r2, #2097152	; 0x200000
   10fbc:	d215      	bcs.n	10fea <__aeabi_d2iz+0x36>
   10fbe:	d511      	bpl.n	10fe4 <__aeabi_d2iz+0x30>
   10fc0:	f46f 7378 	mvn.w	r3, #992	; 0x3e0
   10fc4:	ebb3 5262 	subs.w	r2, r3, r2, asr #21
   10fc8:	d912      	bls.n	10ff0 <__aeabi_d2iz+0x3c>
   10fca:	ea4f 23c1 	mov.w	r3, r1, lsl #11
   10fce:	f043 4300 	orr.w	r3, r3, #2147483648	; 0x80000000
   10fd2:	ea43 5350 	orr.w	r3, r3, r0, lsr #21
   10fd6:	f011 4f00 	tst.w	r1, #2147483648	; 0x80000000
   10fda:	fa23 f002 	lsr.w	r0, r3, r2
   10fde:	bf18      	it	ne
   10fe0:	4240      	negne	r0, r0
   10fe2:	4770      	bx	lr
   10fe4:	f04f 0000 	mov.w	r0, #0
   10fe8:	4770      	bx	lr
   10fea:	ea50 3001 	orrs.w	r0, r0, r1, lsl #12
   10fee:	d105      	bne.n	10ffc <__aeabi_d2iz+0x48>
   10ff0:	f011 4000 	ands.w	r0, r1, #2147483648	; 0x80000000
   10ff4:	bf08      	it	eq
   10ff6:	f06f 4000 	mvneq.w	r0, #2147483648	; 0x80000000
   10ffa:	4770      	bx	lr
   10ffc:	f04f 0000 	mov.w	r0, #0
   11000:	4770      	bx	lr
   11002:	bf00      	nop
   11004:	2f62696c 	.word	0x2f62696c
   11008:	34465341 	.word	0x34465341
   1100c:	6372732f 	.word	0x6372732f
   11010:	6c61682f 	.word	0x6c61682f
   11014:	6372732f 	.word	0x6372732f
   11018:	6c61682f 	.word	0x6c61682f
   1101c:	6364615f 	.word	0x6364615f
   11020:	6e79735f 	.word	0x6e79735f
   11024:	00632e63 	.word	0x00632e63
   11028:	2f62696c 	.word	0x2f62696c
   1102c:	34465341 	.word	0x34465341
   11030:	6372732f 	.word	0x6372732f
   11034:	6c61682f 	.word	0x6c61682f
   11038:	6372732f 	.word	0x6372732f
   1103c:	6c61682f 	.word	0x6c61682f
   11040:	6332695f 	.word	0x6332695f
   11044:	735f6d5f 	.word	0x735f6d5f
   11048:	2e636e79 	.word	0x2e636e79
   1104c:	00000063 	.word	0x00000063
   11050:	2f62696c 	.word	0x2f62696c
   11054:	34465341 	.word	0x34465341
   11058:	6372732f 	.word	0x6372732f
   1105c:	6c61682f 	.word	0x6c61682f
   11060:	6372732f 	.word	0x6372732f
   11064:	6c61682f 	.word	0x6c61682f
   11068:	69636d5f 	.word	0x69636d5f
   1106c:	6e79735f 	.word	0x6e79735f
   11070:	00632e63 	.word	0x00632e63
   11074:	2f62696c 	.word	0x2f62696c
   11078:	34465341 	.word	0x34465341
   1107c:	6372732f 	.word	0x6372732f
   11080:	6c61682f 	.word	0x6c61682f
   11084:	6372732f 	.word	0x6372732f
   11088:	6c61682f 	.word	0x6c61682f
   1108c:	6970735f 	.word	0x6970735f
   11090:	735f6d5f 	.word	0x735f6d5f
   11094:	2e636e79 	.word	0x2e636e79
   11098:	00000063 	.word	0x00000063
   1109c:	2f62696c 	.word	0x2f62696c
   110a0:	34465341 	.word	0x34465341
   110a4:	6372732f 	.word	0x6372732f
   110a8:	6c61682f 	.word	0x6c61682f
   110ac:	6372732f 	.word	0x6372732f
   110b0:	6c61682f 	.word	0x6c61682f
   110b4:	6173755f 	.word	0x6173755f
   110b8:	735f7472 	.word	0x735f7472
   110bc:	2e636e79 	.word	0x2e636e79
   110c0:	00000063 	.word	0x00000063
   110c4:	2f62696c 	.word	0x2f62696c
   110c8:	34465341 	.word	0x34465341
   110cc:	6372732f 	.word	0x6372732f
   110d0:	6c61682f 	.word	0x6c61682f
   110d4:	6974752f 	.word	0x6974752f
   110d8:	732f736c 	.word	0x732f736c
   110dc:	752f6372 	.word	0x752f6372
   110e0:	736c6974 	.word	0x736c6974
   110e4:	73696c5f 	.word	0x73696c5f
   110e8:	00632e74 	.word	0x00632e74

000110ec <_adcs>:
	...
   11104:	2f62696c 34465341 6372732f 6c70682f     lib/ASF4/src/hpl
   11114:	6364612f 6c70682f 6364615f 0000632e     /adc/hpl_adc.c..

00011124 <_map>:
   11124:	00000000 00000030 00000001 00000031     ....0.......1...
   11134:	00000006 00000036 00000007 00000037     ....6.......7...
   11144:	0000000b 0000001b 0000000e 0000000e     ................
   11154:	2f62696c 34465341 6372732f 6c70682f     lib/ASF4/src/hpl
   11164:	6369652f 6c70682f 6369655f 0000632e     /eic/hpl_eic.c..
   11174:	2f62696c 34465341 6372732f 6c70682f     lib/ASF4/src/hpl
   11184:	6864732f 70682f63 64735f6c 632e6368     /sdhc/hpl_sdhc.c
   11194:	00000000 40003000 40003400 41012000     .....0.@.4.@. .A
   111a4:	41014000 43000000 43000400              .@.A...C...C

000111b0 <sercomspi_regs>:
   111b0:	0002000c 00020000 00000000 01ff00fe     ................
   111c0:	02000c00 02000000 00000000 ff00fe00     ................
   111d0:	00000301                                ....

000111d4 <_i2cms>:
   111d4:	00000005 00200014 00000100 0000e6e5     ...... .........
   111e4:	00d70000 02dc6c00 2f62696c 34465341     .....l..lib/ASF4
   111f4:	6372732f 6c70682f 7265732f 2f6d6f63     /src/hpl/sercom/
   11204:	5f6c7068 63726573 632e6d6f 00000000     hpl_sercom.c....
   11214:	00004a25 00000804                       %J......

0001121c <_usb_ep_cfgs>:
   1121c:	20000be0 00000000 00000040 20000c20     ... ....@... .. 
   1122c:	00000000 00000040 20000a78 00000000     ....@...x.. ....
   1123c:	00000040 2f62696c 34465341 6372732f     @...lib/ASF4/src
   1124c:	6273752f 7665642f 2f656369 64627375     /usb/device/usbd
   1125c:	00632e63 706d7544 66756220 20726566     c.c.Dump buffer 
   1126c:	6e656c28 3d687467 3a296425 00000000     (length=%d):....
   1127c:	33250a0d 00003a78 32302520 00000078     ..%3x:.. %02x...
   1128c:	61656c50 70206573 2067756c 53206e61     Please plug an S
   1129c:	4d202c44 6f20434d 44532072 63204f49     D, MMC or SDIO c
   112ac:	20647261 73206e69 2e746f6c 0000000d     ard in slot.....
   112bc:	64726143 666e6920 616d726f 6e6f6974     Card information
   112cc:	00000d3a 20202020 00000000 43484453     :...    ....SDHC
   112dc:	00000000 00004453 20434d4d 68676948     ....SD..MMC High
   112ec:	6e654420 79746973 00000000 00434d4d      Density....MMC.
   112fc:	4f494453 0000000d 43204453 4f424d4f     SDIO....SD COMBO
   1130c:	00000000 6e6b6e55 000d776f 20200a0d     ....Unknow....  
   1131c:	64252020 0d424d20 0000000a 2d2d0a0d       %d MB.......--
   1132c:	6554202d 77207473 20687469 65726964     - Test with dire
   1133c:	72207463 20646165 20646e61 74697277     ct read and writ
   1134c:	6f632065 6e616d6d 666f2064 41494320     e command of CIA
   1135c:	00000d3a 6f727245 53203a72 204f4944     :...Error: SDIO 
   1136c:	65726964 72207463 20646165 6c696166     direct read fail
   1137c:	0d2e6465 00000000 74697257 78302065     ed......Write 0x
   1138c:	74203230 4549206f 4943284e 29342e41     02 to IEN(CIA.4)
   1139c:	00000d2e 6f727245 53203a72 204f4944     ....Error: SDIO 
   113ac:	65726964 77207463 65746972 69616620     direct write fai
   113bc:	2e64656c 0000000d 63656843 4549206b     led.....Check IE
   113cc:	6661204e 20726574 74697277 00003a65     N after write:..
   113dc:	30257830 0a0d7832 00000000 74736554     0x%02x......Test
   113ec:	2e4b4f20 0000000d 74736554 69616620      OK.....Test fai
   113fc:	2e64656c 0000000d 2d2d0a0d 6554202d     led.......--- Te
   1140c:	77207473 20687469 65747865 6465646e     st with extended
   1141c:	61657220 6e612064 72772064 20657469      read and write 
   1142c:	6d6d6f63 20646e61 4320666f 0d3a4149     command of CIA:.
   1143c:	00000000 6f727245 53203a72 204f4944     ....Error: SDIO 
   1144c:	65747865 6465646e 61657220 61662064     extended read fa
   1145c:	64656c69 00000d2e 69646f4d 53207966     iled....Modify S
   1146c:	20656d6f 20572f52 65747962 6f662073     ome R/W bytes fo
   1147c:	4e462072 6e612030 72772064 3a657469     r FN0 and write:
   1148c:	0000000d 6f727245 53203a72 204f4944     ....Error: SDIO 
   1149c:	65747865 6465646e 69727720 66206574     extended write f
   114ac:	656c6961 000d2e64 63656843 4943206b     ailed...Check CI
   114bc:	66612041 20726574 74697277 000d3a65     A after write:..
   114cc:	2e414943 61462034 000d6c69 74736554     CIA.4 Fail..Test
   114dc:	0d4b4f20 00000000 6d654d5b 2079726f      OK.....[Memory 
   114ec:	74207369 73206f6f 6c6c616d 000d5d2e     is too small.]..
   114fc:	64726143 572f5220 73657420 000d3a74     Card R/W test:..
   1150c:	20202020 64616552 202e2e2e 00000000         Read... ....
   1151c:	4941465b 000d5d4c 5d4b4f5b 0000000d     [FAIL]..[OK]....
   1152c:	20202020 74697257 61702065 72657474         Write patter
   1153c:	2e2e2e6e 00000020 20202020 64616552     n... ...    Read
   1154c:	646e6120 65686320 70206b63 65747461      and check patte
   1155c:	2e2e6e72 0000202e 64616552 41465b20     rn... ..Read [FA
   1156c:	0d5d4c49 00000000 63656843 465b206b     IL].....Check [F
   1157c:	5d4c4941 0000000d 74736554 6e696620     AIL]....Test fin
   1158c:	65687369 70202c64 7361656c 6e752065     ished, please un
   1159c:	67756c70 20646567 20656874 64726163     plugged the card
   115ac:	00000d2e 30494d42 472d3838 206f7279     ....BMI088-Gyro 
   115bc:	70736552 65736e6f 7830203a 30207825     Response: 0x%x 0
   115cc:	0a782578 00000000 30494d42 412d3838     x%x.....BMI088-A
   115dc:	6c656363 73655220 736e6f70 30203a65     ccel Response: 0
   115ec:	20782578 78257830 25783020 000a2078     x%x 0x%x 0x%x ..
   115fc:	4c584441 20353733 70736552 65736e6f     ADXL375 Response
   1160c:	7830203a 000a7825 33504d42 52203838     : 0x%x..BMP388 R
   1161c:	6f707365 3a65736e 25783020 78302078     esponse: 0x%x 0x
   1162c:	30207825 0a782578 00000000 69757153     %x 0x%x.....Squi
   1163c:	65522062 6e6f7073 203a6573 78257830     b Response: 0x%x
   1164c:	0000000a 004e614e 69666e49 7974696e     ....NaN.Infinity
   1165c:	00000000 6c6c756e 00000000 5c5c2222     ....null....""\\
   1166c:	0c660862 0d720a6e 00000974 65757274     b.f.n.r.t...true
   1167c:	00000000 736c6166 00000065 4b504f54     ....false...TOPK
   1168c:	00004b45 74736574 6625203a 0000000a     EK..test: %f....
   1169c:	0079656b 756c6176 00000065 4b504f54     key.value...TOPK
   116ac:	00003245 4b504f54 00003345 203a5841     E2..TOPKE3..AX: 
   116bc:	20663525 00000020 203a5941 20663525     %5f  ...AY: %5f 
   116cc:	00000020 203a5a41 0a663525 00000000      ...AZ: %5f.....
   116dc:	203a5441 20643525 00000020 203a5441     AT: %5d  ...AT: 
   116ec:	756c3525 00002020 203a5847 20643525     %5lu  ..GX: %5d 
   116fc:	00000020 203a5947 20643525 00000020      ...GY: %5d  ...
   1170c:	203a5a47 20643525 00000020 203a5848     GZ: %5d  ...HX: 
   1171c:	20643525 00000020 203a5948 20643525     %5d  ...HY: %5d 
   1172c:	00000020 203a5a48 20643525 00000a20      ...HZ: %5d  ...
   1173c:	00000043                                C...

00011740 <_global_impure_ptr>:
   11740:	20000100                                ... 

00011744 <zeroes.6763>:
   11744:	30303030 30303030 30303030 30303030     0000000000000000
   11754:	00464e49 00666e69 004e414e 006e616e     INF.inf.NAN.nan.
   11764:	33323130 37363534 42413938 46454443     0123456789ABCDEF
   11774:	00000000 33323130 37363534 62613938     ....0123456789ab
   11784:	66656463 00000000 6c756e28 0000296c     cdef....(null)..
   11794:	00000030                                0...

00011798 <blanks.6762>:
   11798:	20202020 20202020 20202020 20202020                     

000117a8 <blanks.6777>:
   117a8:	20202020 20202020 20202020 20202020                     

000117b8 <zeroes.6778>:
   117b8:	30303030 30303030 30303030 30303030     0000000000000000
   117c8:	49534f50 00000058 0000002e 00000000     POSIX...........

000117d8 <__mprec_tens>:
   117d8:	00000000 3ff00000 00000000 40240000     .......?......$@
   117e8:	00000000 40590000 00000000 408f4000     ......Y@.....@.@
   117f8:	00000000 40c38800 00000000 40f86a00     .......@.....j.@
   11808:	00000000 412e8480 00000000 416312d0     .......A......cA
   11818:	00000000 4197d784 00000000 41cdcd65     .......A....e..A
   11828:	20000000 4202a05f e8000000 42374876     ... _..B....vH7B
   11838:	a2000000 426d1a94 e5400000 42a2309c     ......mB..@..0.B
   11848:	1e900000 42d6bcc4 26340000 430c6bf5     .......B..4&.k.C
   11858:	37e08000 4341c379 85d8a000 43763457     ...7y.AC....W4vC
   11868:	674ec800 43abc16d 60913d00 43e158e4     ..Ngm..C.=.`.X.C
   11878:	78b58c40 4415af1d d6e2ef50 444b1ae4     @..x...DP.....KD
   11888:	064dd592 4480f0cf c7e14af6 44b52d02     ..M....D.J...-.D
   11898:	79d99db4 44ea7843                       ...yCx.D

000118a0 <__mprec_bigtens>:
   118a0:	37e08000 4341c379 b5056e17 4693b8b5     ...7y.AC.n.....F
   118b0:	e93ff9f5 4d384f03 f9301d32 5a827748     ..?..O8M2.0.Hw.Z
   118c0:	7f73bf3c 75154fdd                       <.s..O.u

000118c8 <p05.5269>:
   118c8:	00000005 00000019 0000007d              ........}...

000118d4 <_init>:
   118d4:	b5f8      	push	{r3, r4, r5, r6, r7, lr}
   118d6:	bf00      	nop
   118d8:	bcf8      	pop	{r3, r4, r5, r6, r7}
   118da:	bc08      	pop	{r3}
   118dc:	469e      	mov	lr, r3
   118de:	4770      	bx	lr

000118e0 <__init_array_start>:
   118e0:	0000e52d 	.word	0x0000e52d

000118e4 <__frame_dummy_init_array_entry>:
   118e4:	00004289                                .B..

000118e8 <_fini>:
   118e8:	b5f8      	push	{r3, r4, r5, r6, r7, lr}
   118ea:	bf00      	nop
   118ec:	bcf8      	pop	{r3, r4, r5, r6, r7}
   118ee:	bc08      	pop	{r3}
   118f0:	469e      	mov	lr, r3
   118f2:	4770      	bx	lr

000118f4 <__fini_array_start>:
   118f4:	00004265 	.word	0x00004265
